---
triple:          'arm64-apple-darwin'
binary-path:     '/Users/melon/Documents/GitHub/Dynasty App /Dynasty-R-S-Good1.2.13/Dynasty/build/ios/Release-iphoneos/FirebaseFirestoreInternal/FirebaseFirestoreInternal.framework/FirebaseFirestoreInternal'
relocations:
  - { offsetInCU: 0x33, offset: 0x33, size: 0x8, addend: 0x0, symName: _FirebaseFirestoreInternalVersionString, symObjAddr: 0x0, symBinAddr: 0x17D6E0, symSize: 0x0 }
  - { offsetInCU: 0x67, offset: 0x67, size: 0x8, addend: 0x0, symName: _FirebaseFirestoreInternalVersionNumber, symObjAddr: 0x38, symBinAddr: 0x17D718, symSize: 0x0 }
  - { offsetInCU: 0x5708, offset: 0x5784, size: 0x8, addend: 0x0, symName: __ZN8firebase9firestore5modeleqERKNS1_14AggregateAliasES4_, symObjAddr: 0x4, symBinAddr: 0x4004, symSize: 0xB0 }
  - { offsetInCU: 0x5BA1, offset: 0x5C1D, size: 0x8, addend: 0x0, symName: __ZNK8firebase9firestore5model14AggregateAlias11StringValueEv, symObjAddr: 0x0, symBinAddr: 0x4000, symSize: 0x4 }
  - { offsetInCU: 0x5C43, offset: 0x5CBF, size: 0x8, addend: 0x0, symName: __ZNK8firebase9firestore5model14AggregateAlias4HashEv, symObjAddr: 0xB4, symBinAddr: 0x40B4, symSize: 0x24 }
  - { offsetInCU: 0x5D08, offset: 0x5D84, size: 0x8, addend: 0x0, symName: __ZNKSt3__113__string_hashIcNS_9allocatorIcEEEclERKNS_12basic_stringIcNS_11char_traitsIcEES2_EE, symObjAddr: 0xE4, symBinAddr: 0x40E4, symSize: 0x3C }
  - { offsetInCU: 0x5DD0, offset: 0x5E4C, size: 0x8, addend: 0x0, symName: __ZNSt3__121__murmur2_or_cityhashImLm64EEclEPKvm, symObjAddr: 0x120, symBinAddr: 0x4120, symSize: 0x208 }
  - { offsetInCU: 0x6460, offset: 0x64DC, size: 0x8, addend: 0x0, symName: __ZNSt3__121__murmur2_or_cityhashImLm64EE18__hash_len_0_to_16EPKcm, symObjAddr: 0x328, symBinAddr: 0x4328, symSize: 0xF8 }
  - { offsetInCU: 0x6660, offset: 0x66DC, size: 0x8, addend: 0x0, symName: __ZNSt3__121__murmur2_or_cityhashImLm64EE19__hash_len_33_to_64EPKcm, symObjAddr: 0x4CC, symBinAddr: 0x44CC, symSize: 0x110 }
  - { offsetInCU: 0x67DF, offset: 0x685B, size: 0x8, addend: 0x0, symName: __ZNSt3__121__murmur2_or_cityhashImLm64EE19__hash_len_17_to_32EPKcm, symObjAddr: 0x420, symBinAddr: 0x4420, symSize: 0xAC }
  - { offsetInCU: 0x6A87, offset: 0xD464, size: 0x8, addend: 0x0, symName: __ZNK8firebase9firestore5model14AggregateField4HashEv, symObjAddr: 0x0, symBinAddr: 0x45DC, symSize: 0x9C }
  - { offsetInCU: 0x12F89, offset: 0x2100B, size: 0x8, addend: 0x0, symName: __ZNSt3__125__throw_bad_function_callB7v160006Ev, symObjAddr: 0x1050, symBinAddr: 0x56BC, symSize: 0x34 }
  - { offsetInCU: 0x134DB, offset: 0x2155D, size: 0x8, addend: 0x0, symName: __ZNSt3__120__throw_length_errorB7v160006EPKc, symObjAddr: 0x1270, symBinAddr: 0x58DC, symSize: 0x50 }
  - { offsetInCU: 0x15E62, offset: 0x23EE4, size: 0x8, addend: 0x0, symName: __ZN8firebase9firestore4util4impl16RankedInvokeHashINSt3__16vectorINS0_5model14AggregateFieldENS4_9allocatorIS7_EEEEEEDTcl10InvokeHashdeclsr3stdE5beginfp_EEERKT_NS2_10HashChoiceILi3EEE, symObjAddr: 0xB90, symBinAddr: 0x51FC, symSize: 0x6C }
  - { offsetInCU: 0x175B0, offset: 0x25632, size: 0x8, addend: 0x0, symName: __ZN8firebase9firestore5modeleqERKNS1_14AggregateFieldES4_, symObjAddr: 0xA3C, symBinAddr: 0x50A8, symSize: 0x154 }
  - { offsetInCU: 0x184C6, offset: 0x26548, size: 0x8, addend: 0x0, symName: __ZN8firebase9firestore3apieqERKNS1_14AggregateQueryES4_, symObjAddr: 0x0, symBinAddr: 0x4678, symSize: 0x88 }
  - { offsetInCU: 0x1C656, offset: 0x2A6D8, size: 0x8, addend: 0x0, symName: __ZN8firebase9firestore3api14AggregateQuery3GetEONSt3__18functionIFvRKNS0_4util8StatusOrIxEEEEE, symObjAddr: 0x1A8, symBinAddr: 0x4820, symSize: 0x164 }
  - { offsetInCU: 0x1EF14, offset: 0x2CF96, size: 0x8, addend: 0x0, symName: __ZNK8firebase9firestore3api14AggregateQuery4HashEv, symObjAddr: 0x88, symBinAddr: 0x4700, symSize: 0x40 }
  - { offsetInCU: 0x1F0BF, offset: 0x2D141, size: 0x8, addend: 0x0, symName: __ZN8firebase9firestore3api14AggregateQueryC2ENS1_5QueryEONSt3__16vectorINS0_5model14AggregateFieldENS4_9allocatorIS7_EEEE, symObjAddr: 0xC8, symBinAddr: 0x4740, symSize: 0x54 }
  - { offsetInCU: 0x1F178, offset: 0x2D1FA, size: 0x8, addend: 0x0, symName: __ZN8firebase9firestore3api5QueryC2EOS2_, symObjAddr: 0x38C, symBinAddr: 0x4A04, symSize: 0xFC }
  - { offsetInCU: 0x1F1AC, offset: 0x2D22E, size: 0x8, addend: 0x0, symName: __ZN8firebase9firestore3api5QueryC2EOS2_, symObjAddr: 0x38C, symBinAddr: 0x4A04, symSize: 0xFC }
  - { offsetInCU: 0x1F1CF, offset: 0x2D251, size: 0x8, addend: 0x0, symName: __ZN8firebase9firestore3api5QueryC2EOS2_, symObjAddr: 0x38C, symBinAddr: 0x4A04, symSize: 0xFC }
  - { offsetInCU: 0x1F8CB, offset: 0x2D94D, size: 0x8, addend: 0x0, symName: __ZN8firebase9firestore3api14AggregateQueryC1ENS1_5QueryEONSt3__16vectorINS0_5model14AggregateFieldENS4_9allocatorIS7_EEEE, symObjAddr: 0x11C, symBinAddr: 0x4794, symSize: 0x54 }
  - { offsetInCU: 0x1FA11, offset: 0x2DA93, size: 0x8, addend: 0x0, symName: __ZN8firebase9firestore3api14AggregateQuery12GetAggregateEONSt3__18functionIFvRKNS0_4util8StatusOrINS0_5model11ObjectValueEEEEEE, symObjAddr: 0x170, symBinAddr: 0x47E8, symSize: 0x38 }
  - { offsetInCU: 0x20043, offset: 0x2E0C5, size: 0x8, addend: 0x0, symName: __ZNSt3__110__function12__value_funcIFvRKN8firebase9firestore4util8StatusOrIxEEEEC2B7v160006EOSA_, symObjAddr: 0xBFC, symBinAddr: 0x5268, symSize: 0x64 }
  - { offsetInCU: 0x200DD, offset: 0x2E15F, size: 0x8, addend: 0x0, symName: __ZN8firebase9firestore3api14AggregateQueryD1Ev, symObjAddr: 0x30C, symBinAddr: 0x4984, symSize: 0x40 }
  - { offsetInCU: 0x20175, offset: 0x2E1F7, size: 0x8, addend: 0x0, symName: __ZNSt3__16vectorIN8firebase9firestore5model14AggregateFieldENS_9allocatorIS4_EEED2B7v160006Ev, symObjAddr: 0x494, symBinAddr: 0x4B00, symSize: 0x38 }
  - { offsetInCU: 0x201FF, offset: 0x2E281, size: 0x8, addend: 0x0, symName: __ZN8firebase9firestore3api5QueryD2Ev, symObjAddr: 0x658, symBinAddr: 0x4CC4, symSize: 0x84 }
  - { offsetInCU: 0x20706, offset: 0x2E788, size: 0x8, addend: 0x0, symName: __ZN8firebase9firestore3api14AggregateQueryD0Ev, symObjAddr: 0x34C, symBinAddr: 0x49C4, symSize: 0x40 }
  - { offsetInCU: 0x20CB3, offset: 0x2ED35, size: 0x8, addend: 0x0, symName: __ZNSt3__16vectorIN8firebase9firestore5model14AggregateFieldENS_9allocatorIS4_EEE16__destroy_vectorclB7v160006Ev, symObjAddr: 0x4CC, symBinAddr: 0x4B38, symSize: 0x84 }
  - { offsetInCU: 0x20EC5, offset: 0x2EF47, size: 0x8, addend: 0x0, symName: __ZNSt3__19allocatorIN8firebase9firestore5model14AggregateFieldEE7destroyB7v160006EPS4_, symObjAddr: 0x550, symBinAddr: 0x4BBC, symSize: 0x3C }
  - { offsetInCU: 0x21269, offset: 0x2F2EB, size: 0x8, addend: 0x0, symName: __ZNSt3__16vectorINS_12basic_stringIcNS_11char_traitsIcEENS_9allocatorIcEEEENS4_IS6_EEED2B7v160006Ev, symObjAddr: 0x58C, symBinAddr: 0x4BF8, symSize: 0x38 }
  - { offsetInCU: 0x21342, offset: 0x2F3C4, size: 0x8, addend: 0x0, symName: __ZNSt3__16vectorINS_12basic_stringIcNS_11char_traitsIcEENS_9allocatorIcEEEENS4_IS6_EEE16__destroy_vectorclB7v160006Ev, symObjAddr: 0x5C4, symBinAddr: 0x4C30, symSize: 0x40 }
  - { offsetInCU: 0x2147A, offset: 0x2F4FC, size: 0x8, addend: 0x0, symName: __ZNSt3__16vectorINS_12basic_stringIcNS_11char_traitsIcEENS_9allocatorIcEEEENS4_IS6_EEE7__clearB7v160006Ev, symObjAddr: 0x604, symBinAddr: 0x4C70, symSize: 0x54 }
  - { offsetInCU: 0x218DC, offset: 0x2F95E, size: 0x8, addend: 0x0, symName: __ZNSt3__110shared_ptrIN8firebase9firestore4util18ThreadSafeMemoizerINS2_4core6TargetEEEED2B7v160006Ev, symObjAddr: 0x6DC, symBinAddr: 0x4D48, symSize: 0x58 }
  - { offsetInCU: 0x2196E, offset: 0x2F9F0, size: 0x8, addend: 0x0, symName: __ZNSt3__110shared_ptrIN8firebase9firestore4util18ThreadSafeMemoizerINS_6vectorINS2_4core7OrderByENS_9allocatorIS7_EEEEEEED2B7v160006Ev, symObjAddr: 0x734, symBinAddr: 0x4DA0, symSize: 0x58 }
  - { offsetInCU: 0x21A00, offset: 0x2FA82, size: 0x8, addend: 0x0, symName: __ZNSt3__110shared_ptrIN8firebase9firestore6nanopb7MessageINS2_31_google_firestore_v1_ArrayValueEEEED2B7v160006Ev, symObjAddr: 0x78C, symBinAddr: 0x4DF8, symSize: 0x58 }
  - { offsetInCU: 0x21A92, offset: 0x2FB14, size: 0x8, addend: 0x0, symName: __ZNSt3__16vectorIN8firebase9firestore4core7OrderByENS_9allocatorIS4_EEED2B7v160006Ev, symObjAddr: 0x7E4, symBinAddr: 0x4E50, symSize: 0x38 }
  - { offsetInCU: 0x21B1C, offset: 0x2FB9E, size: 0x8, addend: 0x0, symName: __ZNSt3__16vectorIN8firebase9firestore4core6FilterENS_9allocatorIS4_EEED2B7v160006Ev, symObjAddr: 0x88C, symBinAddr: 0x4EF8, symSize: 0x38 }
  - { offsetInCU: 0x21BA6, offset: 0x2FC28, size: 0x8, addend: 0x0, symName: __ZNSt3__110shared_ptrIKNS_12basic_stringIcNS_11char_traitsIcEENS_9allocatorIcEEEEED2B7v160006Ev, symObjAddr: 0x98C, symBinAddr: 0x4FF8, symSize: 0x58 }
  - { offsetInCU: 0x21C38, offset: 0x2FCBA, size: 0x8, addend: 0x0, symName: __ZNSt3__110shared_ptrIN8firebase9firestore3api9FirestoreEED2B7v160006Ev, symObjAddr: 0x9E4, symBinAddr: 0x5050, symSize: 0x58 }
  - { offsetInCU: 0x21D4B, offset: 0x2FDCD, size: 0x8, addend: 0x0, symName: __ZNSt3__16vectorIN8firebase9firestore4core7OrderByENS_9allocatorIS4_EEE16__destroy_vectorclB7v160006Ev, symObjAddr: 0x81C, symBinAddr: 0x4E88, symSize: 0x70 }
  - { offsetInCU: 0x220C5, offset: 0x30147, size: 0x8, addend: 0x0, symName: __ZNSt3__16vectorIN8firebase9firestore4core6FilterENS_9allocatorIS4_EEE16__destroy_vectorclB7v160006Ev, symObjAddr: 0x8C4, symBinAddr: 0x4F30, symSize: 0x70 }
  - { offsetInCU: 0x223BA, offset: 0x3043C, size: 0x8, addend: 0x0, symName: __ZNSt3__110shared_ptrIKN8firebase9firestore4core6Filter3RepEED2B7v160006Ev, symObjAddr: 0x934, symBinAddr: 0x4FA0, symSize: 0x58 }
  - { offsetInCU: 0x2258D, offset: 0x3060F, size: 0x8, addend: 0x0, symName: '__ZNSt3__110__function6__funcIZN8firebase9firestore3api14AggregateQuery3GetEONS_8functionIFvRKNS3_4util8StatusOrIxEEEEEE3$_0NS_9allocatorISF_EEFvRKNS8_INS3_5model11ObjectValueEEEEED1Ev', symObjAddr: 0xC60, symBinAddr: 0x52CC, symSize: 0x5C }
  - { offsetInCU: 0x22742, offset: 0x307C4, size: 0x8, addend: 0x0, symName: '__ZNSt3__110__function6__funcIZN8firebase9firestore3api14AggregateQuery3GetEONS_8functionIFvRKNS3_4util8StatusOrIxEEEEEE3$_0NS_9allocatorISF_EEFvRKNS8_INS3_5model11ObjectValueEEEEED0Ev', symObjAddr: 0xCBC, symBinAddr: 0x5328, symSize: 0x5C }
  - { offsetInCU: 0x22C63, offset: 0x30CE5, size: 0x8, addend: 0x0, symName: '__ZNKSt3__110__function6__funcIZN8firebase9firestore3api14AggregateQuery3GetEONS_8functionIFvRKNS3_4util8StatusOrIxEEEEEE3$_0NS_9allocatorISF_EEFvRKNS8_INS3_5model11ObjectValueEEEEE7__cloneEv', symObjAddr: 0xD18, symBinAddr: 0x5384, symSize: 0x54 }
  - { offsetInCU: 0x22FD2, offset: 0x31054, size: 0x8, addend: 0x0, symName: __ZNSt3__110__function12__value_funcIFvRKN8firebase9firestore4util8StatusOrIxEEEEC2B7v160006ERKSA_, symObjAddr: 0xFEC, symBinAddr: 0x5658, symSize: 0x64 }
  - { offsetInCU: 0x2318B, offset: 0x3120D, size: 0x8, addend: 0x0, symName: '__ZNKSt3__110__function6__funcIZN8firebase9firestore3api14AggregateQuery3GetEONS_8functionIFvRKNS3_4util8StatusOrIxEEEEEE3$_0NS_9allocatorISF_EEFvRKNS8_INS3_5model11ObjectValueEEEEE7__cloneEPNS0_6__baseISN_EE', symObjAddr: 0xD6C, symBinAddr: 0x53D8, symSize: 0x1C }
  - { offsetInCU: 0x233BB, offset: 0x3143D, size: 0x8, addend: 0x0, symName: '__ZNSt3__110__function6__funcIZN8firebase9firestore3api14AggregateQuery3GetEONS_8functionIFvRKNS3_4util8StatusOrIxEEEEEE3$_0NS_9allocatorISF_EEFvRKNS8_INS3_5model11ObjectValueEEEEE7destroyEv', symObjAddr: 0xD88, symBinAddr: 0x53F4, symSize: 0x34 }
  - { offsetInCU: 0x2351F, offset: 0x315A1, size: 0x8, addend: 0x0, symName: '__ZNSt3__110__function6__funcIZN8firebase9firestore3api14AggregateQuery3GetEONS_8functionIFvRKNS3_4util8StatusOrIxEEEEEE3$_0NS_9allocatorISF_EEFvRKNS8_INS3_5model11ObjectValueEEEEE18destroy_deallocateEv', symObjAddr: 0xDBC, symBinAddr: 0x5428, symSize: 0x50 }
  - { offsetInCU: 0x23A4E, offset: 0x31AD0, size: 0x8, addend: 0x0, symName: '__ZNSt3__110__function6__funcIZN8firebase9firestore3api14AggregateQuery3GetEONS_8functionIFvRKNS3_4util8StatusOrIxEEEEEE3$_0NS_9allocatorISF_EEFvRKNS8_INS3_5model11ObjectValueEEEEEclESM_', symObjAddr: 0xE0C, symBinAddr: 0x5478, symSize: 0x198 }
  - { offsetInCU: 0x24479, offset: 0x324FB, size: 0x8, addend: 0x0, symName: __ZN8firebase9firestore4util17internal_statusor12StatusOrDataIxEC2ERKNS1_6StatusE, symObjAddr: 0x109C, symBinAddr: 0x5708, symSize: 0x60 }
  - { offsetInCU: 0x246EE, offset: 0x32770, size: 0x8, addend: 0x0, symName: __ZNSt3__112basic_stringIcNS_11char_traitsIcEENS_9allocatorIcEEEC2B7v160006IDnEEPKc, symObjAddr: 0x11C0, symBinAddr: 0x582C, symSize: 0x9C }
  - { offsetInCU: 0x24A4D, offset: 0x32ACF, size: 0x8, addend: 0x0, symName: __ZNKSt3__112basic_stringIcNS_11char_traitsIcEENS_9allocatorIcEEE20__throw_length_errorB7v160006Ev, symObjAddr: 0x125C, symBinAddr: 0x58C8, symSize: 0x14 }
  - { offsetInCU: 0x24A64, offset: 0x32AE6, size: 0x8, addend: 0x0, symName: __ZNSt3__110unique_ptrIN8firebase9firestore4util6Status5StateENS5_7DeleterEE5resetB7v160006EPS5_, symObjAddr: 0x1198, symBinAddr: 0x5804, symSize: 0x28 }
  - { offsetInCU: 0x24AAA, offset: 0x32B2C, size: 0x8, addend: 0x0, symName: '__ZNKSt3__110__function6__funcIZN8firebase9firestore3api14AggregateQuery3GetEONS_8functionIFvRKNS3_4util8StatusOrIxEEEEEE3$_0NS_9allocatorISF_EEFvRKNS8_INS3_5model11ObjectValueEEEEE6targetERKSt9type_info', symObjAddr: 0xFA4, symBinAddr: 0x5610, symSize: 0x3C }
  - { offsetInCU: 0x24AF7, offset: 0x32B79, size: 0x8, addend: 0x0, symName: __ZNKSt9type_infoeqB7v160006ERKS_, symObjAddr: 0x12E4, symBinAddr: 0x5950, symSize: 0x48 }
  - { offsetInCU: 0x24B7E, offset: 0x32C00, size: 0x8, addend: 0x0, symName: '__ZNKSt3__110__function6__funcIZN8firebase9firestore3api14AggregateQuery3GetEONS_8functionIFvRKNS3_4util8StatusOrIxEEEEEE3$_0NS_9allocatorISF_EEFvRKNS8_INS3_5model11ObjectValueEEEEE11target_typeEv', symObjAddr: 0xFE0, symBinAddr: 0x564C, symSize: 0xC }
  - { offsetInCU: 0x24BFB, offset: 0x32C7D, size: 0x8, addend: 0x0, symName: __ZNSt3__117bad_function_callD1Ev, symObjAddr: 0x1084, symBinAddr: 0x56F0, symSize: 0x4 }
  - { offsetInCU: 0x24C1D, offset: 0x32C9F, size: 0x8, addend: 0x0, symName: __ZNSt3__117bad_function_callD1Ev, symObjAddr: 0x1084, symBinAddr: 0x56F0, symSize: 0x4 }
  - { offsetInCU: 0x24C50, offset: 0x32CD2, size: 0x8, addend: 0x0, symName: __ZNSt3__117bad_function_callD0Ev, symObjAddr: 0x1088, symBinAddr: 0x56F4, symSize: 0x14 }
  - { offsetInCU: 0x24E8A, offset: 0x32F0C, size: 0x8, addend: 0x0, symName: __ZN8firebase9firestore4util6Status5State7MakePtrIJRS3_EEENSt3__110unique_ptrIS3_NS3_7DeleterEEEDpOT_, symObjAddr: 0x10FC, symBinAddr: 0x5768, symSize: 0x9C }
  - { offsetInCU: 0x255D5, offset: 0x33657, size: 0x8, addend: 0x0, symName: __ZNKSt3__112basic_stringIcNS_11char_traitsIcEENS_9allocatorIcEEE20__throw_length_errorB7v160006Ev, symObjAddr: 0x125C, symBinAddr: 0x58C8, symSize: 0x14 }
  - { offsetInCU: 0x255FD, offset: 0x3367F, size: 0x8, addend: 0x0, symName: __ZNSt3__120__throw_length_errorB7v160006EPKc, symObjAddr: 0x1270, symBinAddr: 0x58DC, symSize: 0x50 }
  - { offsetInCU: 0x25608, offset: 0x3368A, size: 0x8, addend: 0x0, symName: __ZNSt12length_errorC1B7v160006EPKc, symObjAddr: 0x12C0, symBinAddr: 0x592C, symSize: 0x24 }
  - { offsetInCU: 0x26, offset: 0x33774, size: 0x8, addend: 0x0, symName: __ZNK8firebase9firestore38_google_firestore_v1_AggregationResult8ToStringEi, symObjAddr: 0x0, symBinAddr: 0x5998, symSize: 0x224 }
  - { offsetInCU: 0x4A, offset: 0x33798, size: 0x8, addend: 0x0, symName: __ZN8firebase9firestore44google_firestore_v1_AggregationResult_fieldsE, symObjAddr: 0xE58, symBinAddr: 0x22CC00, symSize: 0x0 }
  - { offsetInCU: 0x64, offset: 0x337B2, size: 0x8, addend: 0x0, symName: __ZN8firebase9firestore65google_firestore_v1_AggregationResult_AggregateFieldsEntry_fieldsE, symObjAddr: 0xDF8, symBinAddr: 0x22CBA0, symSize: 0x0 }
  - { offsetInCU: 0xCA, offset: 0x33818, size: 0x8, addend: 0x0, symName: __ZN8firebase9firestore6nanopb17PrintMessageFieldINS0_59_google_firestore_v1_AggregationResult_AggregateFieldsEntryEEENSt3__112basic_stringIcNS4_11char_traitsIcEENS4_9allocatorIcEEEEN4absl12lts_2022062311string_viewERKT_ib, symObjAddr: 0x224, symBinAddr: 0x5BBC, symSize: 0x274 }
  - { offsetInCU: 0x1036, offset: 0x34784, size: 0x8, addend: 0x0, symName: __ZN8firebase9firestore6nanopb19PrintPrimitiveFieldIP16pb_bytes_array_sEENSt3__112basic_stringIcNS5_11char_traitsIcEENS5_9allocatorIcEEEEN4absl12lts_2022062311string_viewET_ib, symObjAddr: 0x75C, symBinAddr: 0x60F4, symSize: 0x18C }
  - { offsetInCU: 0x18CD, offset: 0x3501B, size: 0x8, addend: 0x0, symName: __ZN8firebase9firestore6nanopb17PrintMessageFieldINS0_26_google_firestore_v1_ValueEEENSt3__112basic_stringIcNS4_11char_traitsIcEENS4_9allocatorIcEEEEN4absl12lts_2022062311string_viewERKT_ib, symObjAddr: 0x8E8, symBinAddr: 0x6280, symSize: 0x274 }
  - { offsetInCU: 0x539D, offset: 0x38AEB, size: 0x8, addend: 0x0, symName: __ZNSt3__1plB7v160006IcNS_11char_traitsIcEENS_9allocatorIcEEEENS_12basic_stringIT_T0_T1_EERKS9_SB_, symObjAddr: 0x498, symBinAddr: 0x5E30, symSize: 0xB4 }
  - { offsetInCU: 0x7DF9, offset: 0x3B547, size: 0x8, addend: 0x0, symName: __ZNK8firebase9firestore38_google_firestore_v1_AggregationResult8ToStringEi, symObjAddr: 0x0, symBinAddr: 0x5998, symSize: 0x224 }
  - { offsetInCU: 0x8E8F, offset: 0x3C5DD, size: 0x8, addend: 0x0, symName: __ZNK8firebase9firestore59_google_firestore_v1_AggregationResult_AggregateFieldsEntry8ToStringEi, symObjAddr: 0x54C, symBinAddr: 0x5EE4, symSize: 0x210 }
  - { offsetInCU: 0x9DB4, offset: 0x3D502, size: 0x8, addend: 0x0, symName: __ZNSt3__112basic_stringIcNS_11char_traitsIcEENS_9allocatorIcEEEC2B7v160006ENS_24__uninitialized_size_tagEmRKS4_, symObjAddr: 0xB5C, symBinAddr: 0x64F4, symSize: 0x74 }
  - { offsetInCU: 0x26, offset: 0x3D89B, size: 0x8, addend: 0x0, symName: __ZNK8firebase9firestore20_google_protobuf_Any8ToStringEi, symObjAddr: 0x0, symBinAddr: 0x6568, symSize: 0x244 }
  - { offsetInCU: 0x4A, offset: 0x3D8BF, size: 0x8, addend: 0x0, symName: __ZN8firebase9firestore26google_protobuf_Any_fieldsE, symObjAddr: 0x688, symBinAddr: 0x17D900, symSize: 0x0 }
  - { offsetInCU: 0x4FD9, offset: 0x4284E, size: 0x8, addend: 0x0, symName: __ZNK8firebase9firestore20_google_protobuf_Any8ToStringEi, symObjAddr: 0x0, symBinAddr: 0x6568, symSize: 0x244 }
  - { offsetInCU: 0x5947, offset: 0x497A3, size: 0x8, addend: 0x0, symName: __ZNSt3__115allocate_sharedB7v160006IN8firebase9firestore4core22ArrayContainsAnyFilter3RepENS_9allocatorIS5_EEJRKNS2_5model9FieldPathENS2_6nanopb13SharedMessageINS2_26_google_firestore_v1_ValueEEEEvEENS_10shared_ptrIT_EERKT0_DpOT1_, symObjAddr: 0x4C4, symBinAddr: 0x6B38, symSize: 0x60 }
  - { offsetInCU: 0x5F35, offset: 0x49D91, size: 0x8, addend: 0x0, symName: __ZNSt3__130__uninitialized_allocator_copyB7v160006INS_9allocatorINS_12basic_stringIcNS_11char_traitsIcEENS1_IcEEEEEEPS6_S8_S8_EET2_RT_T0_T1_S9_, symObjAddr: 0x834, symBinAddr: 0x6E34, symSize: 0xA0 }
  - { offsetInCU: 0x60F0, offset: 0x49F4C, size: 0x8, addend: 0x0, symName: __ZNSt3__119__allocate_at_leastB7v160006INS_9allocatorINS_12basic_stringIcNS_11char_traitsIcEENS1_IcEEEEEEEENS_19__allocation_resultINS_16allocator_traitsIT_E7pointerEEERSA_m, symObjAddr: 0x77C, symBinAddr: 0x6DF0, symSize: 0x44 }
  - { offsetInCU: 0x62BD, offset: 0x4A119, size: 0x8, addend: 0x0, symName: __ZSt28__throw_bad_array_new_lengthB7v160006v, symObjAddr: 0x524, symBinAddr: 0x6B98, symSize: 0x28 }
  - { offsetInCU: 0x85F4, offset: 0x4C450, size: 0x8, addend: 0x0, symName: __ZN8firebase9firestore4core22ArrayContainsAnyFilterC2ERKNS0_5model9FieldPathENS0_6nanopb13SharedMessageINS0_26_google_firestore_v1_ValueEEE, symObjAddr: 0x0, symBinAddr: 0x67AC, symSize: 0xD8 }
  - { offsetInCU: 0x88D6, offset: 0x4C732, size: 0x8, addend: 0x0, symName: __ZNSt3__110shared_ptrIN8firebase9firestore4core22ArrayContainsAnyFilter3RepEED2B7v160006Ev, symObjAddr: 0xAC4, symBinAddr: 0x70C4, symSize: 0x58 }
  - { offsetInCU: 0x8960, offset: 0x4C7BC, size: 0x8, addend: 0x0, symName: __ZN8firebase9firestore4core22ArrayContainsAnyFilterC1ERKNS0_5model9FieldPathENS0_6nanopb13SharedMessageINS0_26_google_firestore_v1_ValueEEE, symObjAddr: 0xD8, symBinAddr: 0x6884, symSize: 0x4 }
  - { offsetInCU: 0x89A8, offset: 0x4C804, size: 0x8, addend: 0x0, symName: __ZN8firebase9firestore4core22ArrayContainsAnyFilterC1ERKNS0_5model9FieldPathENS0_6nanopb13SharedMessageINS0_26_google_firestore_v1_ValueEEE, symObjAddr: 0xD8, symBinAddr: 0x6884, symSize: 0x4 }
  - { offsetInCU: 0x8AA6, offset: 0x4C902, size: 0x8, addend: 0x0, symName: __ZNK8firebase9firestore4core22ArrayContainsAnyFilter3Rep7MatchesERKNS0_5model8DocumentE, symObjAddr: 0xDC, symBinAddr: 0x6888, symSize: 0xB4 }
  - { offsetInCU: 0x8D8F, offset: 0x4CBEB, size: 0x8, addend: 0x0, symName: __ZN8firebase9firestore4core22ArrayContainsAnyFilter3RepD1Ev, symObjAddr: 0x190, symBinAddr: 0x693C, symSize: 0x5C }
  - { offsetInCU: 0x8F15, offset: 0x4CD71, size: 0x8, addend: 0x0, symName: __ZNSt3__110shared_ptrIN8firebase9firestore6nanopb7MessageINS2_26_google_firestore_v1_ValueEEEED2B7v160006Ev, symObjAddr: 0x2C4, symBinAddr: 0x6A70, symSize: 0x58 }
  - { offsetInCU: 0x8FF4, offset: 0x4CE50, size: 0x8, addend: 0x0, symName: __ZNSt3__110shared_ptrIN8firebase9firestore4util18ThreadSafeMemoizerINS_6vectorINS2_4core11FieldFilterENS_9allocatorIS7_EEEEEEED2B7v160006Ev, symObjAddr: 0x414, symBinAddr: 0x6AE0, symSize: 0x58 }
  - { offsetInCU: 0x90A1, offset: 0x4CEFD, size: 0x8, addend: 0x0, symName: __ZN8firebase9firestore4core22ArrayContainsAnyFilter3RepD0Ev, symObjAddr: 0x1EC, symBinAddr: 0x6998, symSize: 0x5C }
  - { offsetInCU: 0x924D, offset: 0x4D0A9, size: 0x8, addend: 0x0, symName: __ZNK8firebase9firestore4core22ArrayContainsAnyFilter3Rep4typeEv, symObjAddr: 0x248, symBinAddr: 0x69F4, symSize: 0x8 }
  - { offsetInCU: 0x9273, offset: 0x4D0CF, size: 0x8, addend: 0x0, symName: __ZNK8firebase9firestore4core11FieldFilter3Rep14IsAFieldFilterEv, symObjAddr: 0x250, symBinAddr: 0x69FC, symSize: 0x8 }
  - { offsetInCU: 0x9299, offset: 0x4D0F5, size: 0x8, addend: 0x0, symName: __ZNK8firebase9firestore4core6Filter3Rep18IsACompositeFilterEv, symObjAddr: 0x258, symBinAddr: 0x6A04, symSize: 0x8 }
  - { offsetInCU: 0x92BF, offset: 0x4D11B, size: 0x8, addend: 0x0, symName: __ZNK8firebase9firestore4core11FieldFilter3Rep7IsEmptyEv, symObjAddr: 0x260, symBinAddr: 0x6A0C, symSize: 0x8 }
  - { offsetInCU: 0x92E5, offset: 0x4D141, size: 0x8, addend: 0x0, symName: __ZN8firebase9firestore4core11FieldFilter3RepD2Ev, symObjAddr: 0x268, symBinAddr: 0x6A14, symSize: 0x5C }
  - { offsetInCU: 0x978D, offset: 0x4D5E9, size: 0x8, addend: 0x0, symName: __ZN8firebase9firestore4core6Filter3RepD1Ev, symObjAddr: 0x3F4, symBinAddr: 0x1763F0, symSize: 0x4 }
  - { offsetInCU: 0x97B5, offset: 0x4D611, size: 0x8, addend: 0x0, symName: __ZN8firebase9firestore4core6Filter3RepD0Ev, symObjAddr: 0x3F8, symBinAddr: 0x1763F4, symSize: 0x4 }
  - { offsetInCU: 0x97DD, offset: 0x4D639, size: 0x8, addend: 0x0, symName: __ZNK8firebase9firestore4core6Filter3Rep4typeEv, symObjAddr: 0x3FC, symBinAddr: 0x6AC8, symSize: 0x8 }
  - { offsetInCU: 0x9803, offset: 0x4D65F, size: 0x8, addend: 0x0, symName: __ZNK8firebase9firestore4core6Filter3Rep14IsAFieldFilterEv, symObjAddr: 0x404, symBinAddr: 0x6AD0, symSize: 0x8 }
  - { offsetInCU: 0x9829, offset: 0x4D685, size: 0x8, addend: 0x0, symName: __ZNK8firebase9firestore4core6Filter3Rep12IsInequalityEv, symObjAddr: 0x40C, symBinAddr: 0x6AD8, symSize: 0x8 }
  - { offsetInCU: 0x9A68, offset: 0x4D8C4, size: 0x8, addend: 0x0, symName: __ZNSt3__120__shared_ptr_emplaceIN8firebase9firestore4core22ArrayContainsAnyFilter3RepENS_9allocatorIS5_EEEC2B7v160006IJRKNS2_5model9FieldPathENS2_6nanopb13SharedMessageINS2_26_google_firestore_v1_ValueEEEEEES7_DpOT_, symObjAddr: 0x54C, symBinAddr: 0x6BC0, symSize: 0xD0 }
  - { offsetInCU: 0xA0C4, offset: 0x4DF20, size: 0x8, addend: 0x0, symName: __ZNSt3__16vectorINS_12basic_stringIcNS_11char_traitsIcEENS_9allocatorIcEEEENS4_IS6_EEEC2ERKS8_, symObjAddr: 0x664, symBinAddr: 0x6CD8, symSize: 0xB4 }
  - { offsetInCU: 0xA320, offset: 0x4E17C, size: 0x8, addend: 0x0, symName: __ZN8firebase9firestore4core22ArrayContainsAnyFilter3RepC2ENS0_5model9FieldPathENS0_6nanopb13SharedMessageINS0_26_google_firestore_v1_ValueEEE, symObjAddr: 0x988, symBinAddr: 0x6F88, symSize: 0x13C }
  - { offsetInCU: 0xA9C1, offset: 0x4E81D, size: 0x8, addend: 0x0, symName: __ZNSt3__120__shared_ptr_emplaceIN8firebase9firestore4core22ArrayContainsAnyFilter3RepENS_9allocatorIS5_EEED1Ev, symObjAddr: 0x61C, symBinAddr: 0x6C90, symSize: 0x14 }
  - { offsetInCU: 0xA9E3, offset: 0x4E83F, size: 0x8, addend: 0x0, symName: __ZNSt3__120__shared_ptr_emplaceIN8firebase9firestore4core22ArrayContainsAnyFilter3RepENS_9allocatorIS5_EEED1Ev, symObjAddr: 0x61C, symBinAddr: 0x6C90, symSize: 0x14 }
  - { offsetInCU: 0xAA1A, offset: 0x4E876, size: 0x8, addend: 0x0, symName: __ZNSt3__120__shared_ptr_emplaceIN8firebase9firestore4core22ArrayContainsAnyFilter3RepENS_9allocatorIS5_EEED0Ev, symObjAddr: 0x630, symBinAddr: 0x6CA4, symSize: 0x24 }
  - { offsetInCU: 0xAA7F, offset: 0x4E8DB, size: 0x8, addend: 0x0, symName: __ZNSt3__120__shared_ptr_emplaceIN8firebase9firestore4core22ArrayContainsAnyFilter3RepENS_9allocatorIS5_EEE16__on_zero_sharedEv, symObjAddr: 0x654, symBinAddr: 0x6CC8, symSize: 0xC }
  - { offsetInCU: 0xAAB1, offset: 0x4E90D, size: 0x8, addend: 0x0, symName: __ZNSt3__120__shared_ptr_emplaceIN8firebase9firestore4core22ArrayContainsAnyFilter3RepENS_9allocatorIS5_EEE21__on_zero_shared_weakEv, symObjAddr: 0x660, symBinAddr: 0x6CD4, symSize: 0x4 }
  - { offsetInCU: 0xAAE3, offset: 0x4E93F, size: 0x8, addend: 0x0, symName: __ZNSt3__120__shared_ptr_emplaceIN8firebase9firestore4core22ArrayContainsAnyFilter3RepENS_9allocatorIS5_EEE21__on_zero_shared_weakEv, symObjAddr: 0x660, symBinAddr: 0x6CD4, symSize: 0x4 }
  - { offsetInCU: 0xAB06, offset: 0x4E962, size: 0x8, addend: 0x0, symName: __ZNSt3__120__shared_ptr_emplaceIN8firebase9firestore4core22ArrayContainsAnyFilter3RepENS_9allocatorIS5_EEE21__on_zero_shared_weakEv, symObjAddr: 0x660, symBinAddr: 0x6CD4, symSize: 0x4 }
  - { offsetInCU: 0xAB29, offset: 0x4E985, size: 0x8, addend: 0x0, symName: __ZNSt3__120__shared_ptr_emplaceIN8firebase9firestore4core22ArrayContainsAnyFilter3RepENS_9allocatorIS5_EEE21__on_zero_shared_weakEv, symObjAddr: 0x660, symBinAddr: 0x6CD4, symSize: 0x4 }
  - { offsetInCU: 0xAB56, offset: 0x4E9B2, size: 0x8, addend: 0x0, symName: __ZNSt3__120__shared_ptr_emplaceIN8firebase9firestore4core22ArrayContainsAnyFilter3RepENS_9allocatorIS5_EEE21__on_zero_shared_weakEv, symObjAddr: 0x660, symBinAddr: 0x6CD4, symSize: 0x4 }
  - { offsetInCU: 0xAB7D, offset: 0x4E9D9, size: 0x8, addend: 0x0, symName: __ZNSt3__120__shared_ptr_emplaceIN8firebase9firestore4core22ArrayContainsAnyFilter3RepENS_9allocatorIS5_EEE21__on_zero_shared_weakEv, symObjAddr: 0x660, symBinAddr: 0x6CD4, symSize: 0x4 }
  - { offsetInCU: 0xAD44, offset: 0x4EBA0, size: 0x8, addend: 0x0, symName: __ZNSt3__16vectorINS_12basic_stringIcNS_11char_traitsIcEENS_9allocatorIcEEEENS4_IS6_EEE11__vallocateB7v160006Em, symObjAddr: 0x718, symBinAddr: 0x6D8C, symSize: 0x50 }
  - { offsetInCU: 0xADBD, offset: 0x4EC19, size: 0x8, addend: 0x0, symName: __ZNKSt3__16vectorINS_12basic_stringIcNS_11char_traitsIcEENS_9allocatorIcEEEENS4_IS6_EEE20__throw_length_errorB7v160006Ev, symObjAddr: 0x768, symBinAddr: 0x6DDC, symSize: 0x14 }
  - { offsetInCU: 0xADCF, offset: 0x4EC2B, size: 0x8, addend: 0x0, symName: __ZNSt3__128__exception_guard_exceptionsINS_6vectorINS_12basic_stringIcNS_11char_traitsIcEENS_9allocatorIcEEEENS5_IS7_EEE16__destroy_vectorEED2B7v160006Ev, symObjAddr: 0x954, symBinAddr: 0x6F54, symSize: 0x34 }
  - { offsetInCU: 0xAE21, offset: 0x4EC7D, size: 0x8, addend: 0x0, symName: __ZNKSt3__16vectorINS_12basic_stringIcNS_11char_traitsIcEENS_9allocatorIcEEEENS4_IS6_EEE20__throw_length_errorB7v160006Ev, symObjAddr: 0x768, symBinAddr: 0x6DDC, symSize: 0x14 }
  - { offsetInCU: 0xAE49, offset: 0x4ECA5, size: 0x8, addend: 0x0, symName: __ZNSt3__119__allocate_at_leastB7v160006INS_9allocatorINS_12basic_stringIcNS_11char_traitsIcEENS1_IcEEEEEEEENS_19__allocation_resultINS_16allocator_traitsIT_E7pointerEEERSA_m, symObjAddr: 0x77C, symBinAddr: 0x6DF0, symSize: 0x44 }
  - { offsetInCU: 0xAFCC, offset: 0x4EE28, size: 0x8, addend: 0x0, symName: __ZNSt3__128__exception_guard_exceptionsINS_29_AllocatorDestroyRangeReverseINS_9allocatorINS_12basic_stringIcNS_11char_traitsIcEENS2_IcEEEEEEPS7_EEED2B7v160006Ev, symObjAddr: 0x8D4, symBinAddr: 0x6ED4, symSize: 0x34 }
  - { offsetInCU: 0xB00A, offset: 0x4EE66, size: 0x8, addend: 0x0, symName: __ZNKSt3__129_AllocatorDestroyRangeReverseINS_9allocatorINS_12basic_stringIcNS_11char_traitsIcEENS1_IcEEEEEEPS6_EclB7v160006Ev, symObjAddr: 0x908, symBinAddr: 0x6F08, symSize: 0x4C }
  - { offsetInCU: 0x5345, offset: 0x545CB, size: 0x8, addend: 0x0, symName: __ZNSt3__115allocate_sharedB7v160006IKN8firebase9firestore4core19ArrayContainsFilter3RepENS_9allocatorIS6_EEJRKNS2_5model9FieldPathENS2_6nanopb13SharedMessageINS2_26_google_firestore_v1_ValueEEEEvEENS_10shared_ptrIT_EERKT0_DpOT1_, symObjAddr: 0x434, symBinAddr: 0x7338, symSize: 0x60 }
  - { offsetInCU: 0x7E98, offset: 0x5711E, size: 0x8, addend: 0x0, symName: __ZN8firebase9firestore4core19ArrayContainsFilterC2ERKNS0_5model9FieldPathENS0_6nanopb13SharedMessageINS0_26_google_firestore_v1_ValueEEE, symObjAddr: 0x0, symBinAddr: 0x711C, symSize: 0xD8 }
  - { offsetInCU: 0x817A, offset: 0x57400, size: 0x8, addend: 0x0, symName: __ZNSt3__110shared_ptrIKN8firebase9firestore4core19ArrayContainsFilter3RepEED2B7v160006Ev, symObjAddr: 0x9BC, symBinAddr: 0x7574, symSize: 0x58 }
  - { offsetInCU: 0x8204, offset: 0x5748A, size: 0x8, addend: 0x0, symName: __ZN8firebase9firestore4core19ArrayContainsFilterC1ERKNS0_5model9FieldPathENS0_6nanopb13SharedMessageINS0_26_google_firestore_v1_ValueEEE, symObjAddr: 0xD8, symBinAddr: 0x71F4, symSize: 0x4 }
  - { offsetInCU: 0x824C, offset: 0x574D2, size: 0x8, addend: 0x0, symName: __ZN8firebase9firestore4core19ArrayContainsFilterC1ERKNS0_5model9FieldPathENS0_6nanopb13SharedMessageINS0_26_google_firestore_v1_ValueEEE, symObjAddr: 0xD8, symBinAddr: 0x71F4, symSize: 0x4 }
  - { offsetInCU: 0x834A, offset: 0x575D0, size: 0x8, addend: 0x0, symName: __ZNK8firebase9firestore4core19ArrayContainsFilter3Rep7MatchesERKNS0_5model8DocumentE, symObjAddr: 0xDC, symBinAddr: 0x71F8, symSize: 0x80 }
  - { offsetInCU: 0x8617, offset: 0x5789D, size: 0x8, addend: 0x0, symName: __ZN8firebase9firestore4core19ArrayContainsFilter3RepD1Ev, symObjAddr: 0x15C, symBinAddr: 0x7278, symSize: 0x5C }
  - { offsetInCU: 0x88B5, offset: 0x57B3B, size: 0x8, addend: 0x0, symName: __ZN8firebase9firestore4core19ArrayContainsFilter3RepD0Ev, symObjAddr: 0x1B8, symBinAddr: 0x72D4, symSize: 0x5C }
  - { offsetInCU: 0x8A61, offset: 0x57CE7, size: 0x8, addend: 0x0, symName: __ZNK8firebase9firestore4core19ArrayContainsFilter3Rep4typeEv, symObjAddr: 0x214, symBinAddr: 0x7330, symSize: 0x8 }
  - { offsetInCU: 0x8FFA, offset: 0x58280, size: 0x8, addend: 0x0, symName: __ZNSt3__120__shared_ptr_emplaceIKN8firebase9firestore4core19ArrayContainsFilter3RepENS_9allocatorIS6_EEEC2B7v160006IJRKNS2_5model9FieldPathENS2_6nanopb13SharedMessageINS2_26_google_firestore_v1_ValueEEEEEES8_DpOT_, symObjAddr: 0x4BC, symBinAddr: 0x7398, symSize: 0xD0 }
  - { offsetInCU: 0x97D9, offset: 0x58A5F, size: 0x8, addend: 0x0, symName: __ZN8firebase9firestore4core19ArrayContainsFilter3RepC2ENS0_5model9FieldPathENS0_6nanopb13SharedMessageINS0_26_google_firestore_v1_ValueEEE, symObjAddr: 0x8F8, symBinAddr: 0x74B0, symSize: 0xC4 }
  - { offsetInCU: 0x9BF3, offset: 0x58E79, size: 0x8, addend: 0x0, symName: __ZNSt3__120__shared_ptr_emplaceIKN8firebase9firestore4core19ArrayContainsFilter3RepENS_9allocatorIS6_EEED1Ev, symObjAddr: 0x58C, symBinAddr: 0x7468, symSize: 0x14 }
  - { offsetInCU: 0x9C15, offset: 0x58E9B, size: 0x8, addend: 0x0, symName: __ZNSt3__120__shared_ptr_emplaceIKN8firebase9firestore4core19ArrayContainsFilter3RepENS_9allocatorIS6_EEED1Ev, symObjAddr: 0x58C, symBinAddr: 0x7468, symSize: 0x14 }
  - { offsetInCU: 0x9C4C, offset: 0x58ED2, size: 0x8, addend: 0x0, symName: __ZNSt3__120__shared_ptr_emplaceIKN8firebase9firestore4core19ArrayContainsFilter3RepENS_9allocatorIS6_EEED0Ev, symObjAddr: 0x5A0, symBinAddr: 0x747C, symSize: 0x24 }
  - { offsetInCU: 0x9CB1, offset: 0x58F37, size: 0x8, addend: 0x0, symName: __ZNSt3__120__shared_ptr_emplaceIKN8firebase9firestore4core19ArrayContainsFilter3RepENS_9allocatorIS6_EEE16__on_zero_sharedEv, symObjAddr: 0x5C4, symBinAddr: 0x74A0, symSize: 0xC }
  - { offsetInCU: 0x9CE3, offset: 0x58F69, size: 0x8, addend: 0x0, symName: __ZNSt3__120__shared_ptr_emplaceIKN8firebase9firestore4core19ArrayContainsFilter3RepENS_9allocatorIS6_EEE21__on_zero_shared_weakEv, symObjAddr: 0x5D0, symBinAddr: 0x74AC, symSize: 0x4 }
  - { offsetInCU: 0x9D15, offset: 0x58F9B, size: 0x8, addend: 0x0, symName: __ZNSt3__120__shared_ptr_emplaceIKN8firebase9firestore4core19ArrayContainsFilter3RepENS_9allocatorIS6_EEE21__on_zero_shared_weakEv, symObjAddr: 0x5D0, symBinAddr: 0x74AC, symSize: 0x4 }
  - { offsetInCU: 0x9D38, offset: 0x58FBE, size: 0x8, addend: 0x0, symName: __ZNSt3__120__shared_ptr_emplaceIKN8firebase9firestore4core19ArrayContainsFilter3RepENS_9allocatorIS6_EEE21__on_zero_shared_weakEv, symObjAddr: 0x5D0, symBinAddr: 0x74AC, symSize: 0x4 }
  - { offsetInCU: 0x9D5B, offset: 0x58FE1, size: 0x8, addend: 0x0, symName: __ZNSt3__120__shared_ptr_emplaceIKN8firebase9firestore4core19ArrayContainsFilter3RepENS_9allocatorIS6_EEE21__on_zero_shared_weakEv, symObjAddr: 0x5D0, symBinAddr: 0x74AC, symSize: 0x4 }
  - { offsetInCU: 0x9D88, offset: 0x5900E, size: 0x8, addend: 0x0, symName: __ZNSt3__120__shared_ptr_emplaceIKN8firebase9firestore4core19ArrayContainsFilter3RepENS_9allocatorIS6_EEE21__on_zero_shared_weakEv, symObjAddr: 0x5D0, symBinAddr: 0x74AC, symSize: 0x4 }
  - { offsetInCU: 0x9DAF, offset: 0x59035, size: 0x8, addend: 0x0, symName: __ZNSt3__120__shared_ptr_emplaceIKN8firebase9firestore4core19ArrayContainsFilter3RepENS_9allocatorIS6_EEE21__on_zero_shared_weakEv, symObjAddr: 0x5D0, symBinAddr: 0x74AC, symSize: 0x4 }
  - { offsetInCU: 0x8118, offset: 0x617AB, size: 0x8, addend: 0x0, symName: __ZNSt3__119__allocate_at_leastB7v160006INS_9allocatorIN8firebase9firestore4util7TimerIdEEEEENS_19__allocation_resultINS_16allocator_traitsIT_E7pointerEEERS9_m, symObjAddr: 0x16EC, symBinAddr: 0x8B7C, symSize: 0x34 }
  - { offsetInCU: 0x81B6, offset: 0x61849, size: 0x8, addend: 0x0, symName: __ZN4absl12lts_202206238AlphaNumC2Ei.cold.1, symObjAddr: 0x1720, symBinAddr: 0x1763F8, symSize: 0x28 }
  - { offsetInCU: 0x9B2A, offset: 0x631BD, size: 0x8, addend: 0x0, symName: __ZN8firebase9firestore4util12StringFormatIJNSt3__112basic_stringIcNS3_11char_traitsIcEENS3_9allocatorIcEEEES9_EEES9_PKcDpRKT_, symObjAddr: 0x314, symBinAddr: 0x78D4, symSize: 0x88 }
  - { offsetInCU: 0x9EF2, offset: 0x63585, size: 0x8, addend: 0x0, symName: __ZN8firebase9firestore4util12StringFormatIJNS1_7TimerIdEEEENSt3__112basic_stringIcNS4_11char_traitsIcEENS4_9allocatorIcEEEEPKcDpRKT_, symObjAddr: 0x15A4, symBinAddr: 0x8AA8, symSize: 0x7C }
  - { offsetInCU: 0xA8AF, offset: 0x63F42, size: 0x8, addend: 0x0, symName: __ZNSt3__110shared_ptrIN8firebase9firestore4util10AsyncQueueEE18__enable_weak_thisB7v160006IS4_S4_vEEvPKNS_23enable_shared_from_thisIT_EEPT0_, symObjAddr: 0xFD8, symBinAddr: 0x8598, symSize: 0xB0 }
  - { offsetInCU: 0xABC1, offset: 0x64254, size: 0x8, addend: 0x0, symName: __ZN8firebase9firestore4util10AsyncQueue4WrapERKNSt3__18functionIFvvEEE, symObjAddr: 0x8F8, symBinAddr: 0x7EB8, symSize: 0x154 }
  - { offsetInCU: 0xB41F, offset: 0x64AB2, size: 0x8, addend: 0x0, symName: __ZN8firebase9firestore4util10AsyncQueue27RunScheduledOperationsUntilENS1_7TimerIdE, symObjAddr: 0xD14, symBinAddr: 0x82D4, symSize: 0x150 }
  - { offsetInCU: 0xDAE2, offset: 0x67175, size: 0x8, addend: 0x0, symName: __ZN8firebase9firestore4util10AsyncQueue6CreateENSt3__110unique_ptrINS1_8ExecutorENS3_14default_deleteIS5_EEEE, symObjAddr: 0x0, symBinAddr: 0x75CC, symSize: 0x6C }
  - { offsetInCU: 0xDD8C, offset: 0x6741F, size: 0x8, addend: 0x0, symName: __ZNSt3__110shared_ptrIN8firebase9firestore4util10AsyncQueueEEC2IS4_vEEPT_, symObjAddr: 0xF64, symBinAddr: 0x8524, symSize: 0x74 }
  - { offsetInCU: 0xDF17, offset: 0x675AA, size: 0x8, addend: 0x0, symName: __ZN8firebase9firestore4util10AsyncQueueC1ENSt3__110unique_ptrINS1_8ExecutorENS3_14default_deleteIS5_EEEE, symObjAddr: 0x6C, symBinAddr: 0x7638, symSize: 0x40 }
  - { offsetInCU: 0xDF41, offset: 0x675D4, size: 0x8, addend: 0x0, symName: __ZN8firebase9firestore4util10AsyncQueueC1ENSt3__110unique_ptrINS1_8ExecutorENS3_14default_deleteIS5_EEEE, symObjAddr: 0x6C, symBinAddr: 0x7638, symSize: 0x40 }
  - { offsetInCU: 0xDF64, offset: 0x675F7, size: 0x8, addend: 0x0, symName: __ZN8firebase9firestore4util10AsyncQueueC1ENSt3__110unique_ptrINS1_8ExecutorENS3_14default_deleteIS5_EEEE, symObjAddr: 0x6C, symBinAddr: 0x7638, symSize: 0x40 }
  - { offsetInCU: 0xDF80, offset: 0x67613, size: 0x8, addend: 0x0, symName: __ZN8firebase9firestore4util10AsyncQueueC1ENSt3__110unique_ptrINS1_8ExecutorENS3_14default_deleteIS5_EEEE, symObjAddr: 0x6C, symBinAddr: 0x7638, symSize: 0x40 }
  - { offsetInCU: 0xDF9C, offset: 0x6762F, size: 0x8, addend: 0x0, symName: __ZN8firebase9firestore4util10AsyncQueueC1ENSt3__110unique_ptrINS1_8ExecutorENS3_14default_deleteIS5_EEEE, symObjAddr: 0x6C, symBinAddr: 0x7638, symSize: 0x40 }
  - { offsetInCU: 0xE13C, offset: 0x677CF, size: 0x8, addend: 0x0, symName: __ZN8firebase9firestore4util10AsyncQueueC2ENSt3__110unique_ptrINS1_8ExecutorENS3_14default_deleteIS5_EEEE, symObjAddr: 0xAC, symBinAddr: 0x7678, symSize: 0x40 }
  - { offsetInCU: 0xE166, offset: 0x677F9, size: 0x8, addend: 0x0, symName: __ZN8firebase9firestore4util10AsyncQueueC2ENSt3__110unique_ptrINS1_8ExecutorENS3_14default_deleteIS5_EEEE, symObjAddr: 0xAC, symBinAddr: 0x7678, symSize: 0x40 }
  - { offsetInCU: 0xE182, offset: 0x67815, size: 0x8, addend: 0x0, symName: __ZN8firebase9firestore4util10AsyncQueueC2ENSt3__110unique_ptrINS1_8ExecutorENS3_14default_deleteIS5_EEEE, symObjAddr: 0xAC, symBinAddr: 0x7678, symSize: 0x40 }
  - { offsetInCU: 0xE19E, offset: 0x67831, size: 0x8, addend: 0x0, symName: __ZN8firebase9firestore4util10AsyncQueueC2ENSt3__110unique_ptrINS1_8ExecutorENS3_14default_deleteIS5_EEEE, symObjAddr: 0xAC, symBinAddr: 0x7678, symSize: 0x40 }
  - { offsetInCU: 0xE5C9, offset: 0x67C5C, size: 0x8, addend: 0x0, symName: __ZN8firebase9firestore4util10AsyncQueueD2Ev, symObjAddr: 0xEC, symBinAddr: 0x76B8, symSize: 0x8C }
  - { offsetInCU: 0xE8E0, offset: 0x67F73, size: 0x8, addend: 0x0, symName: __ZN8firebase9firestore4util10AsyncQueue7DisposeEv, symObjAddr: 0x178, symBinAddr: 0x7744, symSize: 0x44 }
  - { offsetInCU: 0xE9A4, offset: 0x68037, size: 0x8, addend: 0x0, symName: __ZN8firebase9firestore4util10AsyncQueueD1Ev, symObjAddr: 0x1C8, symBinAddr: 0x7788, symSize: 0x4 }
  - { offsetInCU: 0xE9C7, offset: 0x6805A, size: 0x8, addend: 0x0, symName: __ZN8firebase9firestore4util10AsyncQueueD1Ev, symObjAddr: 0x1C8, symBinAddr: 0x7788, symSize: 0x4 }
  - { offsetInCU: 0xE9DA, offset: 0x6806D, size: 0x8, addend: 0x0, symName: __ZN8firebase9firestore4util10AsyncQueue19EnterRestrictedModeEv, symObjAddr: 0x1CC, symBinAddr: 0x778C, symSize: 0x40 }
  - { offsetInCU: 0xEB33, offset: 0x681C6, size: 0x8, addend: 0x0, symName: __ZNK8firebase9firestore4util10AsyncQueue23VerifyIsCurrentExecutorEv, symObjAddr: 0x20C, symBinAddr: 0x77CC, symSize: 0x108 }
  - { offsetInCU: 0xF22C, offset: 0x688BF, size: 0x8, addend: 0x0, symName: __ZNK8firebase9firestore4util10AsyncQueue20VerifyIsCurrentQueueEv, symObjAddr: 0x39C, symBinAddr: 0x795C, symSize: 0x104 }
  - { offsetInCU: 0xF81F, offset: 0x68EB2, size: 0x8, addend: 0x0, symName: __ZN8firebase9firestore4util10AsyncQueue15ExecuteBlockingERKNSt3__18functionIFvvEEE, symObjAddr: 0x4A0, symBinAddr: 0x7A60, symSize: 0xBC }
  - { offsetInCU: 0xFB78, offset: 0x6920B, size: 0x8, addend: 0x0, symName: __ZN8firebase9firestore4util10AsyncQueue7EnqueueERKNSt3__18functionIFvvEEE, symObjAddr: 0x55C, symBinAddr: 0x7B1C, symSize: 0x2C }
  - { offsetInCU: 0xFBDE, offset: 0x69271, size: 0x8, addend: 0x0, symName: __ZNK8firebase9firestore4util10AsyncQueue21VerifySequentialOrderEv, symObjAddr: 0x588, symBinAddr: 0x7B48, symSize: 0x114 }
  - { offsetInCU: 0x101A8, offset: 0x6983B, size: 0x8, addend: 0x0, symName: __ZN8firebase9firestore4util10AsyncQueue14EnqueueRelaxedERKNSt3__18functionIFvvEEE, symObjAddr: 0x69C, symBinAddr: 0x7C5C, symSize: 0x12C }
  - { offsetInCU: 0x1044E, offset: 0x69AE1, size: 0x8, addend: 0x0, symName: __ZN8firebase9firestore4util10AsyncQueue26EnqueueEvenWhileRestrictedERKNSt3__18functionIFvvEEE, symObjAddr: 0x7C8, symBinAddr: 0x7D88, symSize: 0x130 }
  - { offsetInCU: 0x10C43, offset: 0x6A2D6, size: 0x8, addend: 0x0, symName: __ZNSt3__110__function12__value_funcIFvvEEC2B7v160006ERKS3_, symObjAddr: 0x1198, symBinAddr: 0x86C4, symSize: 0x64 }
  - { offsetInCU: 0x10C8D, offset: 0x6A320, size: 0x8, addend: 0x0, symName: __ZNK8firebase9firestore4util10AsyncQueue10is_runningEv, symObjAddr: 0xA4C, symBinAddr: 0x800C, symSize: 0x40 }
  - { offsetInCU: 0x10D59, offset: 0x6A3EC, size: 0x8, addend: 0x0, symName: __ZN8firebase9firestore4util10AsyncQueue17EnqueueAfterDelayENSt3__16chrono8durationIxNS3_5ratioILl1ELl1000EEEEENS1_7TimerIdERKNS3_8functionIFvvEEE, symObjAddr: 0xA8C, symBinAddr: 0x804C, symSize: 0x188 }
  - { offsetInCU: 0x110B2, offset: 0x6A745, size: 0x8, addend: 0x0, symName: __ZN8firebase9firestore4util10AsyncQueue15EnqueueBlockingERKNSt3__18functionIFvvEEE, symObjAddr: 0xC14, symBinAddr: 0x81D4, symSize: 0xF0 }
  - { offsetInCU: 0x11262, offset: 0x6A8F5, size: 0x8, addend: 0x0, symName: __ZNK8firebase9firestore4util10AsyncQueue11IsScheduledENS1_7TimerIdE, symObjAddr: 0xD04, symBinAddr: 0x82C4, symSize: 0x10 }
  - { offsetInCU: 0x1128D, offset: 0x6A920, size: 0x8, addend: 0x0, symName: __ZNK8firebase9firestore4util10AsyncQueue11IsScheduledENS1_7TimerIdE, symObjAddr: 0xD04, symBinAddr: 0x82C4, symSize: 0x10 }
  - { offsetInCU: 0x118E4, offset: 0x6AF77, size: 0x8, addend: 0x0, symName: __ZN8firebase9firestore4util10AsyncQueue20SkipDelaysForTimerIdENS1_7TimerIdE, symObjAddr: 0xE64, symBinAddr: 0x8424, symSize: 0x100 }
  - { offsetInCU: 0x11D20, offset: 0x6B3B3, size: 0x8, addend: 0x0, symName: __ZNKSt3__16vectorIN8firebase9firestore4util7TimerIdENS_9allocatorIS4_EEE20__throw_length_errorB7v160006Ev, symObjAddr: 0x1664, symBinAddr: 0x8B68, symSize: 0x14 }
  - { offsetInCU: 0x12226, offset: 0x6B8B9, size: 0x8, addend: 0x0, symName: __ZNSt3__120__shared_ptr_pointerIPN8firebase9firestore4util10AsyncQueueENS_10shared_ptrIS4_E27__shared_ptr_default_deleteIS4_S4_EENS_9allocatorIS4_EEED1Ev, symObjAddr: 0x1088, symBinAddr: 0x8648, symSize: 0x4 }
  - { offsetInCU: 0x12248, offset: 0x6B8DB, size: 0x8, addend: 0x0, symName: __ZNSt3__120__shared_ptr_pointerIPN8firebase9firestore4util10AsyncQueueENS_10shared_ptrIS4_E27__shared_ptr_default_deleteIS4_S4_EENS_9allocatorIS4_EEED1Ev, symObjAddr: 0x1088, symBinAddr: 0x8648, symSize: 0x4 }
  - { offsetInCU: 0x1227D, offset: 0x6B910, size: 0x8, addend: 0x0, symName: __ZNSt3__120__shared_ptr_pointerIPN8firebase9firestore4util10AsyncQueueENS_10shared_ptrIS4_E27__shared_ptr_default_deleteIS4_S4_EENS_9allocatorIS4_EEED0Ev, symObjAddr: 0x108C, symBinAddr: 0x864C, symSize: 0x14 }
  - { offsetInCU: 0x122DF, offset: 0x6B972, size: 0x8, addend: 0x0, symName: __ZNSt3__120__shared_ptr_pointerIPN8firebase9firestore4util10AsyncQueueENS_10shared_ptrIS4_E27__shared_ptr_default_deleteIS4_S4_EENS_9allocatorIS4_EEE16__on_zero_sharedEv, symObjAddr: 0x10A0, symBinAddr: 0x8660, symSize: 0x24 }
  - { offsetInCU: 0x1234C, offset: 0x6B9DF, size: 0x8, addend: 0x0, symName: __ZNKSt3__120__shared_ptr_pointerIPN8firebase9firestore4util10AsyncQueueENS_10shared_ptrIS4_E27__shared_ptr_default_deleteIS4_S4_EENS_9allocatorIS4_EEE13__get_deleterERKSt9type_info, symObjAddr: 0x10C4, symBinAddr: 0x8684, symSize: 0x3C }
  - { offsetInCU: 0x12432, offset: 0x6BAC5, size: 0x8, addend: 0x0, symName: __ZNSt3__120__shared_ptr_pointerIPN8firebase9firestore4util10AsyncQueueENS_10shared_ptrIS4_E27__shared_ptr_default_deleteIS4_S4_EENS_9allocatorIS4_EEE21__on_zero_shared_weakEv, symObjAddr: 0x1100, symBinAddr: 0x86C0, symSize: 0x4 }
  - { offsetInCU: 0x12465, offset: 0x6BAF8, size: 0x8, addend: 0x0, symName: __ZNSt3__120__shared_ptr_pointerIPN8firebase9firestore4util10AsyncQueueENS_10shared_ptrIS4_E27__shared_ptr_default_deleteIS4_S4_EENS_9allocatorIS4_EEE21__on_zero_shared_weakEv, symObjAddr: 0x1100, symBinAddr: 0x86C0, symSize: 0x4 }
  - { offsetInCU: 0x12487, offset: 0x6BB1A, size: 0x8, addend: 0x0, symName: __ZNSt3__120__shared_ptr_pointerIPN8firebase9firestore4util10AsyncQueueENS_10shared_ptrIS4_E27__shared_ptr_default_deleteIS4_S4_EENS_9allocatorIS4_EEE21__on_zero_shared_weakEv, symObjAddr: 0x1100, symBinAddr: 0x86C0, symSize: 0x4 }
  - { offsetInCU: 0x124B4, offset: 0x6BB47, size: 0x8, addend: 0x0, symName: __ZNSt3__120__shared_ptr_pointerIPN8firebase9firestore4util10AsyncQueueENS_10shared_ptrIS4_E27__shared_ptr_default_deleteIS4_S4_EENS_9allocatorIS4_EEE21__on_zero_shared_weakEv, symObjAddr: 0x1100, symBinAddr: 0x86C0, symSize: 0x4 }
  - { offsetInCU: 0x124DA, offset: 0x6BB6D, size: 0x8, addend: 0x0, symName: __ZNSt3__120__shared_ptr_pointerIPN8firebase9firestore4util10AsyncQueueENS_10shared_ptrIS4_E27__shared_ptr_default_deleteIS4_S4_EENS_9allocatorIS4_EEE21__on_zero_shared_weakEv, symObjAddr: 0x1100, symBinAddr: 0x86C0, symSize: 0x4 }
  - { offsetInCU: 0x12616, offset: 0x6BCA9, size: 0x8, addend: 0x0, symName: '__ZNSt3__110__function6__funcIZN8firebase9firestore4util10AsyncQueue4WrapERKNS_8functionIFvvEEEE3$_0NS_9allocatorISB_EES7_ED1Ev', symObjAddr: 0x1224, symBinAddr: 0x8728, symSize: 0x5C }
  - { offsetInCU: 0x127CB, offset: 0x6BE5E, size: 0x8, addend: 0x0, symName: '__ZNSt3__110__function6__funcIZN8firebase9firestore4util10AsyncQueue4WrapERKNS_8functionIFvvEEEE3$_0NS_9allocatorISB_EES7_ED0Ev', symObjAddr: 0x1280, symBinAddr: 0x8784, symSize: 0x5C }
  - { offsetInCU: 0x12C00, offset: 0x6C293, size: 0x8, addend: 0x0, symName: '__ZNKSt3__110__function6__funcIZN8firebase9firestore4util10AsyncQueue4WrapERKNS_8functionIFvvEEEE3$_0NS_9allocatorISB_EES7_E7__cloneEv', symObjAddr: 0x12DC, symBinAddr: 0x87E0, symSize: 0x58 }
  - { offsetInCU: 0x130B7, offset: 0x6C74A, size: 0x8, addend: 0x0, symName: '__ZNKSt3__110__function6__funcIZN8firebase9firestore4util10AsyncQueue4WrapERKNS_8functionIFvvEEEE3$_0NS_9allocatorISB_EES7_E7__cloneEPNS0_6__baseIS7_EE', symObjAddr: 0x1334, symBinAddr: 0x8838, symSize: 0x20 }
  - { offsetInCU: 0x130F2, offset: 0x6C785, size: 0x8, addend: 0x0, symName: '__ZNKSt3__110__function6__funcIZN8firebase9firestore4util10AsyncQueue4WrapERKNS_8functionIFvvEEEE3$_0NS_9allocatorISB_EES7_E7__cloneEPNS0_6__baseIS7_EE', symObjAddr: 0x1334, symBinAddr: 0x8838, symSize: 0x20 }
  - { offsetInCU: 0x13122, offset: 0x6C7B5, size: 0x8, addend: 0x0, symName: '__ZNKSt3__110__function6__funcIZN8firebase9firestore4util10AsyncQueue4WrapERKNS_8functionIFvvEEEE3$_0NS_9allocatorISB_EES7_E7__cloneEPNS0_6__baseIS7_EE', symObjAddr: 0x1334, symBinAddr: 0x8838, symSize: 0x20 }
  - { offsetInCU: 0x132DB, offset: 0x6C96E, size: 0x8, addend: 0x0, symName: '__ZNSt3__110__function6__funcIZN8firebase9firestore4util10AsyncQueue4WrapERKNS_8functionIFvvEEEE3$_0NS_9allocatorISB_EES7_E7destroyEv', symObjAddr: 0x1354, symBinAddr: 0x8858, symSize: 0x34 }
  - { offsetInCU: 0x13306, offset: 0x6C999, size: 0x8, addend: 0x0, symName: '__ZNSt3__110__function6__funcIZN8firebase9firestore4util10AsyncQueue4WrapERKNS_8functionIFvvEEEE3$_0NS_9allocatorISB_EES7_E7destroyEv', symObjAddr: 0x1354, symBinAddr: 0x8858, symSize: 0x34 }
  - { offsetInCU: 0x13323, offset: 0x6C9B6, size: 0x8, addend: 0x0, symName: '__ZNSt3__110__function6__funcIZN8firebase9firestore4util10AsyncQueue4WrapERKNS_8functionIFvvEEEE3$_0NS_9allocatorISB_EES7_E7destroyEv', symObjAddr: 0x1354, symBinAddr: 0x8858, symSize: 0x34 }
  - { offsetInCU: 0x13340, offset: 0x6C9D3, size: 0x8, addend: 0x0, symName: '__ZNSt3__110__function6__funcIZN8firebase9firestore4util10AsyncQueue4WrapERKNS_8functionIFvvEEEE3$_0NS_9allocatorISB_EES7_E7destroyEv', symObjAddr: 0x1354, symBinAddr: 0x8858, symSize: 0x34 }
  - { offsetInCU: 0x1335D, offset: 0x6C9F0, size: 0x8, addend: 0x0, symName: '__ZNSt3__110__function6__funcIZN8firebase9firestore4util10AsyncQueue4WrapERKNS_8functionIFvvEEEE3$_0NS_9allocatorISB_EES7_E7destroyEv', symObjAddr: 0x1354, symBinAddr: 0x8858, symSize: 0x34 }
  - { offsetInCU: 0x1337A, offset: 0x6CA0D, size: 0x8, addend: 0x0, symName: '__ZNSt3__110__function6__funcIZN8firebase9firestore4util10AsyncQueue4WrapERKNS_8functionIFvvEEEE3$_0NS_9allocatorISB_EES7_E7destroyEv', symObjAddr: 0x1354, symBinAddr: 0x8858, symSize: 0x34 }
  - { offsetInCU: 0x13397, offset: 0x6CA2A, size: 0x8, addend: 0x0, symName: '__ZNSt3__110__function6__funcIZN8firebase9firestore4util10AsyncQueue4WrapERKNS_8functionIFvvEEEE3$_0NS_9allocatorISB_EES7_E7destroyEv', symObjAddr: 0x1354, symBinAddr: 0x8858, symSize: 0x34 }
  - { offsetInCU: 0x1343F, offset: 0x6CAD2, size: 0x8, addend: 0x0, symName: '__ZNSt3__110__function6__funcIZN8firebase9firestore4util10AsyncQueue4WrapERKNS_8functionIFvvEEEE3$_0NS_9allocatorISB_EES7_E18destroy_deallocateEv', symObjAddr: 0x1388, symBinAddr: 0x888C, symSize: 0x50 }
  - { offsetInCU: 0x136AA, offset: 0x6CD3D, size: 0x8, addend: 0x0, symName: '__ZNSt3__110__function6__funcIZN8firebase9firestore4util10AsyncQueue4WrapERKNS_8functionIFvvEEEE3$_0NS_9allocatorISB_EES7_EclEv', symObjAddr: 0x13D8, symBinAddr: 0x88DC, symSize: 0x10 }
  - { offsetInCU: 0x1375A, offset: 0x6CDED, size: 0x8, addend: 0x0, symName: '__ZNKSt3__110__function6__funcIZN8firebase9firestore4util10AsyncQueue4WrapERKNS_8functionIFvvEEEE3$_0NS_9allocatorISB_EES7_E6targetERKSt9type_info', symObjAddr: 0x13E8, symBinAddr: 0x88EC, symSize: 0x3C }
  - { offsetInCU: 0x137A7, offset: 0x6CE3A, size: 0x8, addend: 0x0, symName: '__ZNKSt3__110__function6__funcIZN8firebase9firestore4util10AsyncQueue4WrapERKNS_8functionIFvvEEEE3$_0NS_9allocatorISB_EES7_E11target_typeEv', symObjAddr: 0x1424, symBinAddr: 0x8928, symSize: 0xC }
  - { offsetInCU: 0x137CB, offset: 0x6CE5E, size: 0x8, addend: 0x0, symName: '__ZNSt3__110__function6__funcIZN8firebase9firestore4util10AsyncQueue27RunScheduledOperationsUntilENS4_7TimerIdEE3$_1NS_9allocatorIS7_EEFvvEED1Ev', symObjAddr: 0x1430, symBinAddr: 0x8934, symSize: 0x4 }
  - { offsetInCU: 0x137F6, offset: 0x6CE89, size: 0x8, addend: 0x0, symName: '__ZNSt3__110__function6__funcIZN8firebase9firestore4util10AsyncQueue27RunScheduledOperationsUntilENS4_7TimerIdEE3$_1NS_9allocatorIS7_EEFvvEED0Ev', symObjAddr: 0x1434, symBinAddr: 0x8938, symSize: 0x4 }
  - { offsetInCU: 0x139EE, offset: 0x6D081, size: 0x8, addend: 0x0, symName: '__ZNKSt3__110__function6__funcIZN8firebase9firestore4util10AsyncQueue27RunScheduledOperationsUntilENS4_7TimerIdEE3$_1NS_9allocatorIS7_EEFvvEE7__cloneEv', symObjAddr: 0x1438, symBinAddr: 0x893C, symSize: 0x38 }
  - { offsetInCU: 0x13D0C, offset: 0x6D39F, size: 0x8, addend: 0x0, symName: '__ZNKSt3__110__function6__funcIZN8firebase9firestore4util10AsyncQueue27RunScheduledOperationsUntilENS4_7TimerIdEE3$_1NS_9allocatorIS7_EEFvvEE7__cloneEPNS0_6__baseISA_EE', symObjAddr: 0x1470, symBinAddr: 0x8974, symSize: 0x18 }
  - { offsetInCU: 0x13D44, offset: 0x6D3D7, size: 0x8, addend: 0x0, symName: '__ZNKSt3__110__function6__funcIZN8firebase9firestore4util10AsyncQueue27RunScheduledOperationsUntilENS4_7TimerIdEE3$_1NS_9allocatorIS7_EEFvvEE7__cloneEPNS0_6__baseISA_EE', symObjAddr: 0x1470, symBinAddr: 0x8974, symSize: 0x18 }
  - { offsetInCU: 0x13D72, offset: 0x6D405, size: 0x8, addend: 0x0, symName: '__ZNKSt3__110__function6__funcIZN8firebase9firestore4util10AsyncQueue27RunScheduledOperationsUntilENS4_7TimerIdEE3$_1NS_9allocatorIS7_EEFvvEE7__cloneEPNS0_6__baseISA_EE', symObjAddr: 0x1470, symBinAddr: 0x8974, symSize: 0x18 }
  - { offsetInCU: 0x13E87, offset: 0x6D51A, size: 0x8, addend: 0x0, symName: '__ZNSt3__110__function6__funcIZN8firebase9firestore4util10AsyncQueue27RunScheduledOperationsUntilENS4_7TimerIdEE3$_1NS_9allocatorIS7_EEFvvEE7destroyEv', symObjAddr: 0x1488, symBinAddr: 0x898C, symSize: 0x4 }
  - { offsetInCU: 0x13ED5, offset: 0x6D568, size: 0x8, addend: 0x0, symName: '__ZNSt3__110__function6__funcIZN8firebase9firestore4util10AsyncQueue27RunScheduledOperationsUntilENS4_7TimerIdEE3$_1NS_9allocatorIS7_EEFvvEE18destroy_deallocateEv', symObjAddr: 0x148C, symBinAddr: 0x8990, symSize: 0x4 }
  - { offsetInCU: 0x13F0A, offset: 0x6D59D, size: 0x8, addend: 0x0, symName: '__ZNSt3__110__function6__funcIZN8firebase9firestore4util10AsyncQueue27RunScheduledOperationsUntilENS4_7TimerIdEE3$_1NS_9allocatorIS7_EEFvvEE18destroy_deallocateEv', symObjAddr: 0x148C, symBinAddr: 0x8990, symSize: 0x4 }
  - { offsetInCU: 0x13F2C, offset: 0x6D5BF, size: 0x8, addend: 0x0, symName: '__ZNSt3__110__function6__funcIZN8firebase9firestore4util10AsyncQueue27RunScheduledOperationsUntilENS4_7TimerIdEE3$_1NS_9allocatorIS7_EEFvvEE18destroy_deallocateEv', symObjAddr: 0x148C, symBinAddr: 0x8990, symSize: 0x4 }
  - { offsetInCU: 0x13F59, offset: 0x6D5EC, size: 0x8, addend: 0x0, symName: '__ZNSt3__110__function6__funcIZN8firebase9firestore4util10AsyncQueue27RunScheduledOperationsUntilENS4_7TimerIdEE3$_1NS_9allocatorIS7_EEFvvEE18destroy_deallocateEv', symObjAddr: 0x148C, symBinAddr: 0x8990, symSize: 0x4 }
  - { offsetInCU: 0x13F7F, offset: 0x6D612, size: 0x8, addend: 0x0, symName: '__ZNSt3__110__function6__funcIZN8firebase9firestore4util10AsyncQueue27RunScheduledOperationsUntilENS4_7TimerIdEE3$_1NS_9allocatorIS7_EEFvvEE18destroy_deallocateEv', symObjAddr: 0x148C, symBinAddr: 0x8990, symSize: 0x4 }
  - { offsetInCU: 0x1405D, offset: 0x6D6F0, size: 0x8, addend: 0x0, symName: '__ZNSt3__110__function6__funcIZN8firebase9firestore4util10AsyncQueue27RunScheduledOperationsUntilENS4_7TimerIdEE3$_1NS_9allocatorIS7_EEFvvEEclEv', symObjAddr: 0x1490, symBinAddr: 0x8994, symSize: 0xCC }
  - { offsetInCU: 0x142DC, offset: 0x6D96F, size: 0x8, addend: 0x0, symName: '__ZNKSt3__110__function6__funcIZN8firebase9firestore4util10AsyncQueue27RunScheduledOperationsUntilENS4_7TimerIdEE3$_1NS_9allocatorIS7_EEFvvEE6targetERKSt9type_info', symObjAddr: 0x155C, symBinAddr: 0x8A60, symSize: 0x3C }
  - { offsetInCU: 0x14329, offset: 0x6D9BC, size: 0x8, addend: 0x0, symName: '__ZNKSt3__110__function6__funcIZN8firebase9firestore4util10AsyncQueue27RunScheduledOperationsUntilENS4_7TimerIdEE3$_1NS_9allocatorIS7_EEFvvEE11target_typeEv', symObjAddr: 0x1598, symBinAddr: 0x8A9C, symSize: 0xC }
  - { offsetInCU: 0x1442B, offset: 0x6DABE, size: 0x8, addend: 0x0, symName: __ZN4absl12lts_202206238AlphaNumC2Ei, symObjAddr: 0x1620, symBinAddr: 0x8B24, symSize: 0x44 }
  - { offsetInCU: 0x144E2, offset: 0x6DB75, size: 0x8, addend: 0x0, symName: __ZNKSt3__16vectorIN8firebase9firestore4util7TimerIdENS_9allocatorIS4_EEE20__throw_length_errorB7v160006Ev, symObjAddr: 0x1664, symBinAddr: 0x8B68, symSize: 0x14 }
  - { offsetInCU: 0x145A0, offset: 0x6DC33, size: 0x8, addend: 0x0, symName: __ZN4absl12lts_202206238AlphaNumC2Ei.cold.1, symObjAddr: 0x1720, symBinAddr: 0x1763F8, symSize: 0x28 }
  - { offsetInCU: 0x26, offset: 0x6DDDF, size: 0x8, addend: 0x0, symName: __ZN8firebase9firestore11credentials9AuthTokenC2Ev, symObjAddr: 0x0, symBinAddr: 0x8BB0, symSize: 0x60 }
  - { offsetInCU: 0x254B, offset: 0x70304, size: 0x8, addend: 0x0, symName: __ZN8firebase9firestore11credentials9AuthToken15UnauthenticatedEv, symObjAddr: 0x144, symBinAddr: 0x8CF4, symSize: 0x74 }
  - { offsetInCU: 0x256D, offset: 0x70326, size: 0x8, addend: 0x0, symName: __ZZN8firebase9firestore11credentials9AuthToken15UnauthenticatedEvE21kUnauthenticatedToken, symObjAddr: 0x11178, symBinAddr: 0x242BF0, symSize: 0x0 }
  - { offsetInCU: 0x44F4, offset: 0x722AD, size: 0x8, addend: 0x0, symName: __ZN8firebase9firestore11credentials9AuthTokenC2Ev, symObjAddr: 0x0, symBinAddr: 0x8BB0, symSize: 0x60 }
  - { offsetInCU: 0x46C6, offset: 0x7247F, size: 0x8, addend: 0x0, symName: __ZN8firebase9firestore11credentials9AuthTokenC1Ev, symObjAddr: 0x60, symBinAddr: 0x8C10, symSize: 0x4 }
  - { offsetInCU: 0x46E9, offset: 0x724A2, size: 0x8, addend: 0x0, symName: __ZN8firebase9firestore11credentials9AuthTokenC1Ev, symObjAddr: 0x60, symBinAddr: 0x8C10, symSize: 0x4 }
  - { offsetInCU: 0x4746, offset: 0x724FF, size: 0x8, addend: 0x0, symName: __ZN8firebase9firestore11credentials9AuthTokenC2ENSt3__112basic_stringIcNS3_11char_traitsIcEENS3_9allocatorIcEEEENS1_4UserE, symObjAddr: 0x64, symBinAddr: 0x8C14, symSize: 0x68 }
  - { offsetInCU: 0x4944, offset: 0x726FD, size: 0x8, addend: 0x0, symName: __ZN8firebase9firestore11credentials9AuthTokenC1ENSt3__112basic_stringIcNS3_11char_traitsIcEENS3_9allocatorIcEEEENS1_4UserE, symObjAddr: 0xCC, symBinAddr: 0x8C7C, symSize: 0x4 }
  - { offsetInCU: 0x498D, offset: 0x72746, size: 0x8, addend: 0x0, symName: __ZN8firebase9firestore11credentials9AuthTokenC1ENSt3__112basic_stringIcNS3_11char_traitsIcEENS3_9allocatorIcEEEENS1_4UserE, symObjAddr: 0xCC, symBinAddr: 0x8C7C, symSize: 0x4 }
  - { offsetInCU: 0x49C7, offset: 0x72780, size: 0x8, addend: 0x0, symName: __ZNK8firebase9firestore11credentials9AuthToken5tokenEv, symObjAddr: 0xD0, symBinAddr: 0x8C80, symSize: 0x74 }
  - { offsetInCU: 0x26, offset: 0x72A13, size: 0x8, addend: 0x0, symName: __ZN8firebase9firestore4util12CreateAutoIdEv, symObjAddr: 0x0, symBinAddr: 0x8D68, symSize: 0xA8 }
  - { offsetInCU: 0xD7, offset: 0x72AC4, size: 0x8, addend: 0x0, symName: __ZN8firebase9firestore4util12CreateAutoIdEv, symObjAddr: 0x0, symBinAddr: 0x8D68, symSize: 0xA8 }
  - { offsetInCU: 0x2860, offset: 0x7524D, size: 0x8, addend: 0x0, symName: __ZNSt3__124uniform_int_distributionIiEclIN8firebase9firestore4util12SecureRandomEEEiRT_RKNS1_10param_typeE, symObjAddr: 0xA8, symBinAddr: 0x8E10, symSize: 0xA8 }
  - { offsetInCU: 0x2965, offset: 0x79DE9, size: 0x8, addend: 0x0, symName: __ZN8firebase9firestore4util15BackgroundQueue7ExecuteEONSt3__18functionIFvvEEE, symObjAddr: 0x80, symBinAddr: 0x8F38, symSize: 0x1A8 }
  - { offsetInCU: 0x5044, offset: 0x7C4C8, size: 0x8, addend: 0x0, symName: __ZN8firebase9firestore4util15BackgroundQueueC2EPNS1_8ExecutorE, symObjAddr: 0x0, symBinAddr: 0x8EB8, symSize: 0x40 }
  - { offsetInCU: 0x510C, offset: 0x7C590, size: 0x8, addend: 0x0, symName: __ZN8firebase9firestore4util15BackgroundQueueC1EPNS1_8ExecutorE, symObjAddr: 0x40, symBinAddr: 0x8EF8, symSize: 0x40 }
  - { offsetInCU: 0x5145, offset: 0x7C5C9, size: 0x8, addend: 0x0, symName: __ZN8firebase9firestore4util15BackgroundQueueC1EPNS1_8ExecutorE, symObjAddr: 0x40, symBinAddr: 0x8EF8, symSize: 0x40 }
  - { offsetInCU: 0x584C, offset: 0x7CCD0, size: 0x8, addend: 0x0, symName: __ZNSt3__110__function12__value_funcIFvvEEC2B7v160006EOS3_, symObjAddr: 0x55C, symBinAddr: 0x93A4, symSize: 0x64 }
  - { offsetInCU: 0x58E6, offset: 0x7CD6A, size: 0x8, addend: 0x0, symName: __ZN8firebase9firestore4util15BackgroundQueue8AwaitAllEv, symObjAddr: 0x228, symBinAddr: 0x90E0, symSize: 0x68 }
  - { offsetInCU: 0x5B30, offset: 0x7CFB4, size: 0x8, addend: 0x0, symName: '__ZNSt3__110__function6__funcIZN8firebase9firestore4util15BackgroundQueue7ExecuteEONS_8functionIFvvEEEE3$_0NS_9allocatorISA_EES7_ED1Ev', symObjAddr: 0x300, symBinAddr: 0x9148, symSize: 0x5C }
  - { offsetInCU: 0x5CE5, offset: 0x7D169, size: 0x8, addend: 0x0, symName: '__ZNSt3__110__function6__funcIZN8firebase9firestore4util15BackgroundQueue7ExecuteEONS_8functionIFvvEEEE3$_0NS_9allocatorISA_EES7_ED0Ev', symObjAddr: 0x35C, symBinAddr: 0x91A4, symSize: 0x5C }
  - { offsetInCU: 0x6193, offset: 0x7D617, size: 0x8, addend: 0x0, symName: '__ZNKSt3__110__function6__funcIZN8firebase9firestore4util15BackgroundQueue7ExecuteEONS_8functionIFvvEEEE3$_0NS_9allocatorISA_EES7_E7__cloneEv', symObjAddr: 0x3B8, symBinAddr: 0x9200, symSize: 0x58 }
  - { offsetInCU: 0x664A, offset: 0x7DACE, size: 0x8, addend: 0x0, symName: '__ZNKSt3__110__function6__funcIZN8firebase9firestore4util15BackgroundQueue7ExecuteEONS_8functionIFvvEEEE3$_0NS_9allocatorISA_EES7_E7__cloneEPNS0_6__baseIS7_EE', symObjAddr: 0x410, symBinAddr: 0x9258, symSize: 0x20 }
  - { offsetInCU: 0x6685, offset: 0x7DB09, size: 0x8, addend: 0x0, symName: '__ZNKSt3__110__function6__funcIZN8firebase9firestore4util15BackgroundQueue7ExecuteEONS_8functionIFvvEEEE3$_0NS_9allocatorISA_EES7_E7__cloneEPNS0_6__baseIS7_EE', symObjAddr: 0x410, symBinAddr: 0x9258, symSize: 0x20 }
  - { offsetInCU: 0x66B5, offset: 0x7DB39, size: 0x8, addend: 0x0, symName: '__ZNKSt3__110__function6__funcIZN8firebase9firestore4util15BackgroundQueue7ExecuteEONS_8functionIFvvEEEE3$_0NS_9allocatorISA_EES7_E7__cloneEPNS0_6__baseIS7_EE', symObjAddr: 0x410, symBinAddr: 0x9258, symSize: 0x20 }
  - { offsetInCU: 0x686E, offset: 0x7DCF2, size: 0x8, addend: 0x0, symName: '__ZNSt3__110__function6__funcIZN8firebase9firestore4util15BackgroundQueue7ExecuteEONS_8functionIFvvEEEE3$_0NS_9allocatorISA_EES7_E7destroyEv', symObjAddr: 0x430, symBinAddr: 0x9278, symSize: 0x34 }
  - { offsetInCU: 0x6899, offset: 0x7DD1D, size: 0x8, addend: 0x0, symName: '__ZNSt3__110__function6__funcIZN8firebase9firestore4util15BackgroundQueue7ExecuteEONS_8functionIFvvEEEE3$_0NS_9allocatorISA_EES7_E7destroyEv', symObjAddr: 0x430, symBinAddr: 0x9278, symSize: 0x34 }
  - { offsetInCU: 0x68B6, offset: 0x7DD3A, size: 0x8, addend: 0x0, symName: '__ZNSt3__110__function6__funcIZN8firebase9firestore4util15BackgroundQueue7ExecuteEONS_8functionIFvvEEEE3$_0NS_9allocatorISA_EES7_E7destroyEv', symObjAddr: 0x430, symBinAddr: 0x9278, symSize: 0x34 }
  - { offsetInCU: 0x68D3, offset: 0x7DD57, size: 0x8, addend: 0x0, symName: '__ZNSt3__110__function6__funcIZN8firebase9firestore4util15BackgroundQueue7ExecuteEONS_8functionIFvvEEEE3$_0NS_9allocatorISA_EES7_E7destroyEv', symObjAddr: 0x430, symBinAddr: 0x9278, symSize: 0x34 }
  - { offsetInCU: 0x68F0, offset: 0x7DD74, size: 0x8, addend: 0x0, symName: '__ZNSt3__110__function6__funcIZN8firebase9firestore4util15BackgroundQueue7ExecuteEONS_8functionIFvvEEEE3$_0NS_9allocatorISA_EES7_E7destroyEv', symObjAddr: 0x430, symBinAddr: 0x9278, symSize: 0x34 }
  - { offsetInCU: 0x690D, offset: 0x7DD91, size: 0x8, addend: 0x0, symName: '__ZNSt3__110__function6__funcIZN8firebase9firestore4util15BackgroundQueue7ExecuteEONS_8functionIFvvEEEE3$_0NS_9allocatorISA_EES7_E7destroyEv', symObjAddr: 0x430, symBinAddr: 0x9278, symSize: 0x34 }
  - { offsetInCU: 0x692A, offset: 0x7DDAE, size: 0x8, addend: 0x0, symName: '__ZNSt3__110__function6__funcIZN8firebase9firestore4util15BackgroundQueue7ExecuteEONS_8functionIFvvEEEE3$_0NS_9allocatorISA_EES7_E7destroyEv', symObjAddr: 0x430, symBinAddr: 0x9278, symSize: 0x34 }
  - { offsetInCU: 0x69D2, offset: 0x7DE56, size: 0x8, addend: 0x0, symName: '__ZNSt3__110__function6__funcIZN8firebase9firestore4util15BackgroundQueue7ExecuteEONS_8functionIFvvEEEE3$_0NS_9allocatorISA_EES7_E18destroy_deallocateEv', symObjAddr: 0x464, symBinAddr: 0x92AC, symSize: 0x50 }
  - { offsetInCU: 0x6C7D, offset: 0x7E101, size: 0x8, addend: 0x0, symName: '__ZNSt3__110__function6__funcIZN8firebase9firestore4util15BackgroundQueue7ExecuteEONS_8functionIFvvEEEE3$_0NS_9allocatorISA_EES7_EclEv', symObjAddr: 0x4B4, symBinAddr: 0x92FC, symSize: 0x60 }
  - { offsetInCU: 0x6DC6, offset: 0x7E24A, size: 0x8, addend: 0x0, symName: '__ZNKSt3__110__function6__funcIZN8firebase9firestore4util15BackgroundQueue7ExecuteEONS_8functionIFvvEEEE3$_0NS_9allocatorISA_EES7_E6targetERKSt9type_info', symObjAddr: 0x514, symBinAddr: 0x935C, symSize: 0x3C }
  - { offsetInCU: 0x6DD1, offset: 0x7E255, size: 0x8, addend: 0x0, symName: '__ZNKSt3__110__function6__funcIZN8firebase9firestore4util15BackgroundQueue7ExecuteEONS_8functionIFvvEEEE3$_0NS_9allocatorISA_EES7_E6targetERKSt9type_info', symObjAddr: 0x514, symBinAddr: 0x935C, symSize: 0x3C }
  - { offsetInCU: 0x6E67, offset: 0x7E2EB, size: 0x8, addend: 0x0, symName: '__ZNKSt3__110__function6__funcIZN8firebase9firestore4util15BackgroundQueue7ExecuteEONS_8functionIFvvEEEE3$_0NS_9allocatorISA_EES7_E11target_typeEv', symObjAddr: 0x550, symBinAddr: 0x9398, symSize: 0xC }
  - { offsetInCU: 0x26, offset: 0x7E3AA, size: 0x8, addend: 0x0, symName: __ZN8firebase9firestore4util4Bits18Log2Floor_PortableEj, symObjAddr: 0x0, symBinAddr: 0x9408, symSize: 0xB0 }
  - { offsetInCU: 0x422E, offset: 0x825B2, size: 0x8, addend: 0x0, symName: __ZN8firebase9firestore4util4Bits18Log2Floor_PortableEj, symObjAddr: 0x0, symBinAddr: 0x9408, symSize: 0xB0 }
  - { offsetInCU: 0x9AA, offset: 0x831BE, size: 0x8, addend: 0x0, symName: __ZN8firebase9firestore6remoteeqERKNS1_11BloomFilterES4_, symObjAddr: 0x710, symBinAddr: 0x9BC8, symSize: 0xE0 }
  - { offsetInCU: 0x535B, offset: 0x87B6F, size: 0x8, addend: 0x0, symName: __ZNK8firebase9firestore6remote11BloomFilter13Md5HashDigestEN4absl12lts_2022062311string_viewE, symObjAddr: 0x0, symBinAddr: 0x94B8, symSize: 0xC }
  - { offsetInCU: 0x543A, offset: 0x87C4E, size: 0x8, addend: 0x0, symName: __ZNK8firebase9firestore6remote11BloomFilter11GetBitIndexERKNS2_4HashEi, symObjAddr: 0xC, symBinAddr: 0x94C4, symSize: 0xC4 }
  - { offsetInCU: 0x560C, offset: 0x87E20, size: 0x8, addend: 0x0, symName: __ZNK8firebase9firestore6remote11BloomFilter8IsBitSetEi, symObjAddr: 0xD0, symBinAddr: 0x9588, symSize: 0x44 }
  - { offsetInCU: 0x565F, offset: 0x87E73, size: 0x8, addend: 0x0, symName: __ZN8firebase9firestore6remote11BloomFilterC2ENS0_6nanopb10ByteStringEii, symObjAddr: 0x114, symBinAddr: 0x95CC, symSize: 0x1C8 }
  - { offsetInCU: 0x5A37, offset: 0x8824B, size: 0x8, addend: 0x0, symName: __ZN8firebase9firestore6remote11BloomFilterC1ENS0_6nanopb10ByteStringEii, symObjAddr: 0x2DC, symBinAddr: 0x9794, symSize: 0x4 }
  - { offsetInCU: 0x5A70, offset: 0x88284, size: 0x8, addend: 0x0, symName: __ZN8firebase9firestore6remote11BloomFilterC1ENS0_6nanopb10ByteStringEii, symObjAddr: 0x2DC, symBinAddr: 0x9794, symSize: 0x4 }
  - { offsetInCU: 0x5E72, offset: 0x88686, size: 0x8, addend: 0x0, symName: __ZN8firebase9firestore6remote11BloomFilter6CreateENS0_6nanopb10ByteStringEii, symObjAddr: 0x2E0, symBinAddr: 0x9798, symSize: 0x370 }
  - { offsetInCU: 0x6DDB, offset: 0x895EF, size: 0x8, addend: 0x0, symName: __ZN8firebase9firestore4util17internal_statusor12StatusOrDataINS0_6remote11BloomFilterEEC2EONS1_6StatusE, symObjAddr: 0x824, symBinAddr: 0x9CA8, symSize: 0x60 }
  - { offsetInCU: 0x70DD, offset: 0x898F1, size: 0x8, addend: 0x0, symName: __ZNK8firebase9firestore6remote11BloomFilter12MightContainEN4absl12lts_2022062311string_viewE, symObjAddr: 0x650, symBinAddr: 0x9B08, symSize: 0xC0 }
  - { offsetInCU: 0x26, offset: 0x89C0F, size: 0x8, addend: 0x0, symName: __ZNK8firebase9firestore32_google_firestore_v1_BitSequence8ToStringEi, symObjAddr: 0x0, symBinAddr: 0x9D08, symSize: 0x244 }
  - { offsetInCU: 0x4A, offset: 0x89C33, size: 0x8, addend: 0x0, symName: __ZN8firebase9firestore38google_firestore_v1_BitSequence_fieldsE, symObjAddr: 0xD30, symBinAddr: 0x17DE88, symSize: 0x0 }
  - { offsetInCU: 0x64, offset: 0x89C4D, size: 0x8, addend: 0x0, symName: __ZN8firebase9firestore38google_firestore_v1_BloomFilter_fieldsE, symObjAddr: 0xD90, symBinAddr: 0x22D090, symSize: 0x0 }
  - { offsetInCU: 0x599, offset: 0x8A182, size: 0x8, addend: 0x0, symName: __ZN8firebase9firestore6nanopb19PrintPrimitiveFieldIiEENSt3__112basic_stringIcNS3_11char_traitsIcEENS3_9allocatorIcEEEEN4absl12lts_2022062311string_viewET_ib, symObjAddr: 0x3D0, symBinAddr: 0x9F4C, symSize: 0x18C }
  - { offsetInCU: 0xEB3, offset: 0x8AA9C, size: 0x8, addend: 0x0, symName: __ZN8firebase9firestore6nanopb17PrintMessageFieldINS0_32_google_firestore_v1_BitSequenceEEENSt3__112basic_stringIcNS4_11char_traitsIcEENS4_9allocatorIcEEEEN4absl12lts_2022062311string_viewERKT_ib, symObjAddr: 0x830, symBinAddr: 0xA2F8, symSize: 0x274 }
  - { offsetInCU: 0x663F, offset: 0x90228, size: 0x8, addend: 0x0, symName: __ZNK8firebase9firestore32_google_firestore_v1_BitSequence8ToStringEi, symObjAddr: 0x0, symBinAddr: 0x9D08, symSize: 0x244 }
  - { offsetInCU: 0x7AA0, offset: 0x91689, size: 0x8, addend: 0x0, symName: __ZNK8firebase9firestore32_google_firestore_v1_BloomFilter8ToStringEi, symObjAddr: 0x610, symBinAddr: 0xA0D8, symSize: 0x220 }
  - { offsetInCU: 0x1A3, offset: 0x92812, size: 0x8, addend: 0x0, symName: __ZN8firebase9firestore4util16CompareContainerINSt3__16vectorINS3_12basic_stringIcNS3_11char_traitsIcEENS3_9allocatorIcEEEENS8_ISA_EEEEEENS1_16ComparisonResultERKT_SG_, symObjAddr: 0xCE0, symBinAddr: 0xB0D8, symSize: 0x7C }
  - { offsetInCU: 0x375, offset: 0x929E4, size: 0x8, addend: 0x0, symName: __ZN8firebase9firestore4util12StringFormatIJNSt3__112basic_stringIcNS3_11char_traitsIcEENS3_9allocatorIcEEEEEEES9_PKcDpRKT_, symObjAddr: 0x36C, symBinAddr: 0xA8D8, symSize: 0x6C }
  - { offsetInCU: 0xF11, offset: 0x93580, size: 0x8, addend: 0x0, symName: __ZN8firebase9firestore4corelsERNSt3__113basic_ostreamIcNS2_11char_traitsIcEEEERKNS1_5BoundE, symObjAddr: 0x634, symBinAddr: 0xAB18, symSize: 0x88 }
  - { offsetInCU: 0x1246, offset: 0x938B5, size: 0x8, addend: 0x0, symName: __ZN8firebase9firestore4coreeqERKNS1_5BoundES4_, symObjAddr: 0x6BC, symBinAddr: 0xABA0, symSize: 0x13C }
  - { offsetInCU: 0x4802, offset: 0x96E71, size: 0x8, addend: 0x0, symName: __ZNSt3__124__put_character_sequenceB7v160006IcNS_11char_traitsIcEEEERNS_13basic_ostreamIT_T0_EES7_PKS4_m, symObjAddr: 0x920, symBinAddr: 0xADA0, symSize: 0x164 }
  - { offsetInCU: 0x72FB, offset: 0x9996A, size: 0x8, addend: 0x0, symName: __ZNSt3__116__pad_and_outputB7v160006IcNS_11char_traitsIcEEEENS_19ostreambuf_iteratorIT_T0_EES6_PKS4_S8_S8_RNS_8ios_baseES4_, symObjAddr: 0xA84, symBinAddr: 0xAF04, symSize: 0x13C }
  - { offsetInCU: 0x9DAE, offset: 0x9C41D, size: 0x8, addend: 0x0, symName: __ZN8firebase9firestore4core5Bound9FromValueENS0_6nanopb13SharedMessageINS0_31_google_firestore_v1_ArrayValueEEEb, symObjAddr: 0x0, symBinAddr: 0xA56C, symSize: 0x50 }
  - { offsetInCU: 0x9F82, offset: 0x9C5F1, size: 0x8, addend: 0x0, symName: __ZNK8firebase9firestore4core5Bound19SortsBeforeDocumentERKNSt3__16vectorINS1_7OrderByENS3_9allocatorIS5_EEEERKNS0_5model8DocumentE, symObjAddr: 0x50, symBinAddr: 0xA5BC, symSize: 0x3C }
  - { offsetInCU: 0x9FF9, offset: 0x9C668, size: 0x8, addend: 0x0, symName: __ZNK8firebase9firestore4core5Bound17CompareToDocumentERKNSt3__16vectorINS1_7OrderByENS3_9allocatorIS5_EEEERKNS0_5model8DocumentE, symObjAddr: 0x8C, symBinAddr: 0xA5F8, symSize: 0x2A4 }
  - { offsetInCU: 0xA9DB, offset: 0x9D04A, size: 0x8, addend: 0x0, symName: __ZNSt3__110shared_ptrIKN8firebase9firestore5model12ResourcePathEED2B7v160006Ev, symObjAddr: 0x8BC, symBinAddr: 0xAD48, symSize: 0x58 }
  - { offsetInCU: 0xAA65, offset: 0x9D0D4, size: 0x8, addend: 0x0, symName: __ZNK8firebase9firestore4core5Bound18SortsAfterDocumentERKNSt3__16vectorINS1_7OrderByENS3_9allocatorIS5_EEEERKNS0_5model8DocumentE, symObjAddr: 0x330, symBinAddr: 0xA89C, symSize: 0x3C }
  - { offsetInCU: 0xAC6E, offset: 0x9D2DD, size: 0x8, addend: 0x0, symName: __ZNK8firebase9firestore4core5Bound14PositionStringEv, symObjAddr: 0x3D8, symBinAddr: 0xA944, symSize: 0xF8 }
  - { offsetInCU: 0xB30C, offset: 0x9D97B, size: 0x8, addend: 0x0, symName: __ZNK8firebase9firestore4core5Bound8ToStringEv, symObjAddr: 0x4D0, symBinAddr: 0xAA3C, symSize: 0xDC }
  - { offsetInCU: 0xB999, offset: 0x9E008, size: 0x8, addend: 0x0, symName: __ZNSt3__112basic_stringIcNS_11char_traitsIcEENS_9allocatorIcEEEC2B7v160006IPKcvEET_S9_, symObjAddr: 0xD5C, symBinAddr: 0xB154, symSize: 0x98 }
  - { offsetInCU: 0xBD80, offset: 0x9E3EF, size: 0x8, addend: 0x0, symName: __ZNK8firebase9firestore4core5Bound4HashEv, symObjAddr: 0x7F8, symBinAddr: 0xACDC, symSize: 0x6C }
  - { offsetInCU: 0xC31E, offset: 0x9E98D, size: 0x8, addend: 0x0, symName: __ZNSt3__112basic_stringIcNS_11char_traitsIcEENS_9allocatorIcEEEC2B7v160006Emc, symObjAddr: 0xBC0, symBinAddr: 0xB040, symSize: 0x98 }
  - { offsetInCU: 0x26, offset: 0x9F5EB, size: 0x8, addend: 0x0, symName: __ZN8firebase9firestore12EnumToStringENS0_33_firestore_BundledQuery_LimitTypeE, symObjAddr: 0x0, symBinAddr: 0xB1EC, symSize: 0x2C }
  - { offsetInCU: 0x4A, offset: 0x9F60F, size: 0x8, addend: 0x0, symName: __ZN8firebase9firestore29firestore_BundledQuery_fieldsE, symObjAddr: 0x2D00, symBinAddr: 0x22D0F0, symSize: 0x0 }
  - { offsetInCU: 0x64, offset: 0x9F629, size: 0x8, addend: 0x0, symName: __ZN8firebase9firestore27firestore_NamedQuery_fieldsE, symObjAddr: 0x2D80, symBinAddr: 0x22D170, symSize: 0x0 }
  - { offsetInCU: 0x7E, offset: 0x9F643, size: 0x8, addend: 0x0, symName: __ZN8firebase9firestore40firestore_BundledDocumentMetadata_fieldsE, symObjAddr: 0x2E00, symBinAddr: 0x22D1F0, symSize: 0x0 }
  - { offsetInCU: 0x98, offset: 0x9F65D, size: 0x8, addend: 0x0, symName: __ZN8firebase9firestore31firestore_BundleMetadata_fieldsE, symObjAddr: 0x2EA0, symBinAddr: 0x22D290, symSize: 0x0 }
  - { offsetInCU: 0xB2, offset: 0x9F677, size: 0x8, addend: 0x0, symName: __ZN8firebase9firestore30firestore_BundleElement_fieldsE, symObjAddr: 0x2F60, symBinAddr: 0x22D350, symSize: 0x0 }
  - { offsetInCU: 0x6D5, offset: 0x9FC9A, size: 0x8, addend: 0x0, symName: __ZN8firebase9firestore6nanopb17PrintMessageFieldINS0_36_google_firestore_v1_StructuredQueryEEENSt3__112basic_stringIcNS4_11char_traitsIcEENS4_9allocatorIcEEEEN4absl12lts_2022062311string_viewERKT_ib, symObjAddr: 0x464, symBinAddr: 0xB4C4, symSize: 0x274 }
  - { offsetInCU: 0x1352, offset: 0xA0917, size: 0x8, addend: 0x0, symName: __ZN8firebase9firestore6nanopb14PrintEnumFieldINS0_33_firestore_BundledQuery_LimitTypeEEENSt3__112basic_stringIcNS4_11char_traitsIcEENS4_9allocatorIcEEEEN4absl12lts_2022062311string_viewET_ib, symObjAddr: 0x6D8, symBinAddr: 0xB738, symSize: 0x16C }
  - { offsetInCU: 0x19A2, offset: 0xA0F67, size: 0x8, addend: 0x0, symName: __ZN8firebase9firestore6nanopb17PrintMessageFieldINS0_23_firestore_BundledQueryEEENSt3__112basic_stringIcNS4_11char_traitsIcEENS4_9allocatorIcEEEEN4absl12lts_2022062311string_viewERKT_ib, symObjAddr: 0xB64, symBinAddr: 0xBB10, symSize: 0x274 }
  - { offsetInCU: 0x2641, offset: 0xA1C06, size: 0x8, addend: 0x0, symName: __ZN8firebase9firestore6nanopb17PrintMessageFieldINS0_26_google_protobuf_TimestampEEENSt3__112basic_stringIcNS4_11char_traitsIcEENS4_9allocatorIcEEEEN4absl12lts_2022062311string_viewERKT_ib, symObjAddr: 0xDD8, symBinAddr: 0xBD84, symSize: 0x274 }
  - { offsetInCU: 0x32BE, offset: 0xA2883, size: 0x8, addend: 0x0, symName: __ZN8firebase9firestore6nanopb19PrintPrimitiveFieldIbEENSt3__112basic_stringIcNS3_11char_traitsIcEENS3_9allocatorIcEEEEN4absl12lts_2022062311string_viewET_ib, symObjAddr: 0x1340, symBinAddr: 0xC2EC, symSize: 0x18C }
  - { offsetInCU: 0x3B55, offset: 0xA311A, size: 0x8, addend: 0x0, symName: __ZN8firebase9firestore6nanopb19PrintPrimitiveFieldIjEENSt3__112basic_stringIcNS3_11char_traitsIcEENS3_9allocatorIcEEEEN4absl12lts_2022062311string_viewET_ib, symObjAddr: 0x17F0, symBinAddr: 0xC79C, symSize: 0x18C }
  - { offsetInCU: 0x4400, offset: 0xA39C5, size: 0x8, addend: 0x0, symName: __ZN8firebase9firestore6nanopb19PrintPrimitiveFieldIyEENSt3__112basic_stringIcNS3_11char_traitsIcEENS3_9allocatorIcEEEEN4absl12lts_2022062311string_viewET_ib, symObjAddr: 0x197C, symBinAddr: 0xC928, symSize: 0x18C }
  - { offsetInCU: 0x4CAB, offset: 0xA4270, size: 0x8, addend: 0x0, symName: __ZN8firebase9firestore6nanopb17PrintMessageFieldINS0_25_firestore_BundleMetadataEEENSt3__112basic_stringIcNS4_11char_traitsIcEENS4_9allocatorIcEEEEN4absl12lts_2022062311string_viewERKT_ib, symObjAddr: 0x1DFC, symBinAddr: 0xCDA8, symSize: 0x274 }
  - { offsetInCU: 0x5BCD, offset: 0xA5192, size: 0x8, addend: 0x0, symName: __ZN8firebase9firestore6nanopb17PrintMessageFieldINS0_21_firestore_NamedQueryEEENSt3__112basic_stringIcNS4_11char_traitsIcEENS4_9allocatorIcEEEEN4absl12lts_2022062311string_viewERKT_ib, symObjAddr: 0x2070, symBinAddr: 0xD01C, symSize: 0x274 }
  - { offsetInCU: 0x6AEF, offset: 0xA60B4, size: 0x8, addend: 0x0, symName: __ZN8firebase9firestore6nanopb17PrintMessageFieldINS0_34_firestore_BundledDocumentMetadataEEENSt3__112basic_stringIcNS4_11char_traitsIcEENS4_9allocatorIcEEEEN4absl12lts_2022062311string_viewERKT_ib, symObjAddr: 0x22E4, symBinAddr: 0xD290, symSize: 0x274 }
  - { offsetInCU: 0x7A11, offset: 0xA6FD6, size: 0x8, addend: 0x0, symName: __ZN8firebase9firestore6nanopb17PrintMessageFieldINS0_29_google_firestore_v1_DocumentEEENSt3__112basic_stringIcNS4_11char_traitsIcEENS4_9allocatorIcEEEEN4absl12lts_2022062311string_viewERKT_ib, symObjAddr: 0x2558, symBinAddr: 0xD504, symSize: 0x274 }
  - { offsetInCU: 0x869D, offset: 0xA7C62, size: 0x8, addend: 0x0, symName: __ZN8firebase9firestore12EnumToStringENS0_33_firestore_BundledQuery_LimitTypeE, symObjAddr: 0x0, symBinAddr: 0xB1EC, symSize: 0x2C }
  - { offsetInCU: 0xD862, offset: 0xACE27, size: 0x8, addend: 0x0, symName: __ZNK8firebase9firestore23_firestore_BundledQuery8ToStringEi, symObjAddr: 0x2C, symBinAddr: 0xB218, symSize: 0x2AC }
  - { offsetInCU: 0xEF13, offset: 0xAE4D8, size: 0x8, addend: 0x0, symName: __ZNK8firebase9firestore21_firestore_NamedQuery8ToStringEi, symObjAddr: 0x8F8, symBinAddr: 0xB8A4, symSize: 0x26C }
  - { offsetInCU: 0xFF33, offset: 0xAF4F8, size: 0x8, addend: 0x0, symName: __ZNK8firebase9firestore34_firestore_BundledDocumentMetadata8ToStringEi, symObjAddr: 0x104C, symBinAddr: 0xBFF8, symSize: 0x2F4 }
  - { offsetInCU: 0x1115E, offset: 0xB0723, size: 0x8, addend: 0x0, symName: __ZNK8firebase9firestore25_firestore_BundleMetadata8ToStringEi, symObjAddr: 0x14CC, symBinAddr: 0xC478, symSize: 0x324 }
  - { offsetInCU: 0x1257D, offset: 0xB1B42, size: 0x8, addend: 0x0, symName: __ZNK8firebase9firestore24_firestore_BundleElement8ToStringEi, symObjAddr: 0x1B08, symBinAddr: 0xCAB4, symSize: 0x2F4 }
  - { offsetInCU: 0x9918, offset: 0xBC465, size: 0x8, addend: 0x0, symName: __ZNSt3__1L19piecewise_constructE, symObjAddr: 0x8C24, symBinAddr: 0x17E23F, symSize: 0x0 }
  - { offsetInCU: 0x18F7A, offset: 0xCBAC7, size: 0x8, addend: 0x0, symName: __ZNSt3__119__allocate_at_leastB7v160006INS_9allocatorIN8firebase9firestore6bundle10NamedQueryEEEEENS_19__allocation_resultINS_16allocator_traitsIT_E7pointerEEERS9_m, symObjAddr: 0x1F34, symBinAddr: 0xEFB0, symSize: 0x44 }
  - { offsetInCU: 0x19018, offset: 0xCBB65, size: 0x8, addend: 0x0, symName: __ZNSt3__19allocatorIN8firebase9firestore6bundle10NamedQueryEE9constructB7v160006IS4_JS4_EEEvPT_DpOT0_, symObjAddr: 0x1F78, symBinAddr: 0xEFF4, symSize: 0x11C }
  - { offsetInCU: 0x193AB, offset: 0xCBEF8, size: 0x8, addend: 0x0, symName: __ZNSt3__119__allocate_at_leastB7v160006INS_9allocatorIN8firebase9firestore4core6FilterEEEEENS_19__allocation_resultINS_16allocator_traitsIT_E7pointerEEERS9_m, symObjAddr: 0x18F8, symBinAddr: 0xEC04, symSize: 0x34 }
  - { offsetInCU: 0x19482, offset: 0xCBFCF, size: 0x8, addend: 0x0, symName: __ZNSt3__130__uninitialized_allocator_copyB7v160006INS_9allocatorIN8firebase9firestore4core7OrderByEEEPS5_S7_S7_EET2_RT_T0_T1_S8_, symObjAddr: 0x1B58, symBinAddr: 0xED9C, symSize: 0x94 }
  - { offsetInCU: 0x19831, offset: 0xCC37E, size: 0x8, addend: 0x0, symName: __ZNSt3__119__allocate_at_leastB7v160006INS_9allocatorIN8firebase9firestore4core7OrderByEEEEENS_19__allocation_resultINS_16allocator_traitsIT_E7pointerEEERS9_m, symObjAddr: 0x1B24, symBinAddr: 0xED68, symSize: 0x34 }
  - { offsetInCU: 0x198CF, offset: 0xCC41C, size: 0x8, addend: 0x0, symName: __ZNSt3__130__uninitialized_allocator_copyB7v160006INS_9allocatorIN8firebase9firestore4core7OrderByEEEPS5_S7_S7_EET2_RT_T0_T1_S8_, symObjAddr: 0x1B58, symBinAddr: 0xED9C, symSize: 0x94 }
  - { offsetInCU: 0x19E24, offset: 0xCC971, size: 0x8, addend: 0x0, symName: __ZNSt3__118__lower_bound_implB7v160006INS_17_ClassicAlgPolicyEPKNS_4pairIN8firebase9firestore5model11DocumentKeyENS5_15MutableDocumentEEESA_S6_NS_10__identityEZNKS4_9immutable4impl14ArraySortedMapIS6_S7_NS4_4util10ComparatorIS6_EEE11lower_boundERKS6_EUlRS9_SK_E_EET0_SN_T1_RKT2_RT4_RT3_, symObjAddr: 0x45D0, symBinAddr: 0x11604, symSize: 0x90 }
  - { offsetInCU: 0x1A06E, offset: 0xCCBBB, size: 0x8, addend: 0x0, symName: __ZNSt3__115allocate_sharedB7v160006IN8firebase9firestore9immutable4impl10FixedArrayINS_4pairINS2_5model11DocumentKeyENS7_15MutableDocumentEEEEENS_9allocatorISB_EEJPKSA_RSF_EvEENS_10shared_ptrIT_EERKT0_DpOT1_, symObjAddr: 0x4660, symBinAddr: 0x11694, symSize: 0x60 }
  - { offsetInCU: 0x1A32A, offset: 0xCCE77, size: 0x8, addend: 0x0, symName: __ZNSt3__115allocate_sharedB7v160006IN8firebase9firestore5model11ObjectValueENS_9allocatorIS4_EEJEvEENS_10shared_ptrIT_EERKT0_DpOT1_, symObjAddr: 0x2FD4, symBinAddr: 0x10050, symSize: 0x48 }
  - { offsetInCU: 0x1B102, offset: 0xCDC4F, size: 0x8, addend: 0x0, symName: __ZNSt3__115allocate_sharedB7v160006IN8firebase9firestore9immutable4impl8LlrbNodeINS2_5model11DocumentKeyENS6_15MutableDocumentEE3RepENS_9allocatorISA_EEJSA_EvEENS_10shared_ptrIT_EERKT0_DpOT1_, symObjAddr: 0x3AC0, symBinAddr: 0x10AF4, symSize: 0x58 }
  - { offsetInCU: 0x1B851, offset: 0xCE39E, size: 0x8, addend: 0x0, symName: __ZNSt3__121__unwrap_and_dispatchB7v160006INS_10__overloadINS_11__copy_loopINS_17_ClassicAlgPolicyEEENS_14__copy_trivialEEEPKNS_4pairIN8firebase9firestore5model11DocumentKeyENSA_15MutableDocumentEEESF_PSD_Li0EEENS7_IT0_T2_EESH_T1_SI_, symObjAddr: 0x49B4, symBinAddr: 0x119E8, symSize: 0x5C }
  - { offsetInCU: 0x1CD9A, offset: 0xCF8E7, size: 0x8, addend: 0x0, symName: __ZNSt3__118__lower_bound_implB7v160006INS_17_ClassicAlgPolicyEPKNS_4pairIN8firebase9firestore5model11DocumentKeyENS4_4util5EmptyEEESB_S6_NS_10__identityEZNKS4_9immutable4impl14ArraySortedMapIS6_S8_NS7_10ComparatorIS6_EEE11lower_boundERKS6_EUlRSA_SK_E_EET0_SN_T1_RKT2_RT4_RT3_, symObjAddr: 0x7214, symBinAddr: 0x13CA0, symSize: 0x90 }
  - { offsetInCU: 0x1CFE4, offset: 0xCFB31, size: 0x8, addend: 0x0, symName: __ZNSt3__115allocate_sharedB7v160006IN8firebase9firestore9immutable4impl10FixedArrayINS_4pairINS2_5model11DocumentKeyENS2_4util5EmptyEEEEENS_9allocatorISC_EEJPKSB_RSG_EvEENS_10shared_ptrIT_EERKT0_DpOT1_, symObjAddr: 0x72A4, symBinAddr: 0x13D30, symSize: 0x60 }
  - { offsetInCU: 0x1E00B, offset: 0xD0B58, size: 0x8, addend: 0x0, symName: __ZNSt3__121__unwrap_and_dispatchB7v160006INS_10__overloadINS_11__copy_loopINS_17_ClassicAlgPolicyEEENS_14__copy_trivialEEEPKNS_4pairIN8firebase9firestore5model11DocumentKeyENS9_4util5EmptyEEESG_PSE_Li0EEENS7_IT0_T2_EESI_T1_SJ_, symObjAddr: 0x7464, symBinAddr: 0x13EF0, symSize: 0x5C }
  - { offsetInCU: 0x1EDE1, offset: 0xD192E, size: 0x8, addend: 0x0, symName: __ZN8firebase9firestore9immutable4impl8LlrbNodeINS0_5model11DocumentKeyENS4_15MutableDocumentEE8EmptyRepEv, symObjAddr: 0x2D14, symBinAddr: 0xFD90, symSize: 0x7C }
  - { offsetInCU: 0x1EE01, offset: 0xD194E, size: 0x8, addend: 0x0, symName: __ZZN8firebase9firestore9immutable4impl8LlrbNodeINS0_5model11DocumentKeyENS4_15MutableDocumentEE8EmptyRepEvE9empty_rep, symObjAddr: 0x9120, symBinAddr: 0x242690, symSize: 0x0 }
  - { offsetInCU: 0x1EF24, offset: 0xD1A71, size: 0x8, addend: 0x0, symName: __ZN8firebase9firestore9immutable4impl14ArraySortedMapINS0_5model11DocumentKeyENS0_4util5EmptyENS6_10ComparatorIS5_EEE10EmptyArrayEv, symObjAddr: 0x59C8, symBinAddr: 0x12454, symSize: 0xA0 }
  - { offsetInCU: 0x1EF45, offset: 0xD1A92, size: 0x8, addend: 0x0, symName: __ZZN8firebase9firestore9immutable4impl14ArraySortedMapINS0_5model11DocumentKeyENS0_4util5EmptyENS6_10ComparatorIS5_EEE10EmptyArrayEvE11kEmptyArray, symObjAddr: 0x9130, symBinAddr: 0x2426A0, symSize: 0x0 }
  - { offsetInCU: 0x1F07F, offset: 0xD1BCC, size: 0x8, addend: 0x0, symName: __ZN8firebase9firestore9immutable4impl8LlrbNodeINS0_5model11DocumentKeyENS0_4util5EmptyEE8EmptyRepEv, symObjAddr: 0x64E0, symBinAddr: 0x12F6C, symSize: 0x7C }
  - { offsetInCU: 0x1F09F, offset: 0xD1BEC, size: 0x8, addend: 0x0, symName: __ZZN8firebase9firestore9immutable4impl8LlrbNodeINS0_5model11DocumentKeyENS0_4util5EmptyEE8EmptyRepEvE9empty_rep, symObjAddr: 0x9140, symBinAddr: 0x2426B0, symSize: 0x0 }
  - { offsetInCU: 0x1F91C, offset: 0xD2469, size: 0x8, addend: 0x0, symName: __ZNSt3__16vectorIN8firebase9firestore6bundle10NamedQueryENS_9allocatorIS4_EEE26__swap_out_circular_bufferERNS_14__split_bufferIS4_RS6_EE, symObjAddr: 0x1E84, symBinAddr: 0xEF00, symSize: 0x9C }
  - { offsetInCU: 0x22F8D, offset: 0xD5ADA, size: 0x8, addend: 0x0, symName: __ZN8firebase9firestore6bundle12BundleLoader18AddElementInternalERKNS1_13BundleElementE, symObjAddr: 0x0, symBinAddr: 0xD778, symSize: 0x368 }
  - { offsetInCU: 0x23CF5, offset: 0xD6842, size: 0x8, addend: 0x0, symName: __ZNSt3__19allocatorIN8firebase9firestore6bundle10NamedQueryEE9constructB7v160006IS4_JRKS4_EEEvPT_DpOT0_, symObjAddr: 0x11DC, symBinAddr: 0xE8C8, symSize: 0x84 }
  - { offsetInCU: 0x23F20, offset: 0xD6A6D, size: 0x8, addend: 0x0, symName: __ZN4absl12lts_2022062317optional_internal18optional_data_baseIN8firebase9firestore5model11DocumentKeyEE6assignIRKS6_EEvOT_, symObjAddr: 0x20E4, symBinAddr: 0xF160, symSize: 0x40 }
  - { offsetInCU: 0x24079, offset: 0xD6BC6, size: 0x8, addend: 0x0, symName: __ZNSt3__112__hash_tableINS_17__hash_value_typeIN8firebase9firestore5model11DocumentKeyENS3_6bundle23BundledDocumentMetadataEEENS_22__unordered_map_hasherIS5_S8_NS4_15DocumentKeyHashENS_8equal_toIS5_EELb1EEENS_21__unordered_map_equalIS5_S8_SC_SA_Lb1EEENS_9allocatorIS8_EEE25__emplace_unique_key_argsIS5_JRKS5_RKS7_EEENS_4pairINS_15__hash_iteratorIPNS_11__hash_nodeIS8_PvEEEEbEERKT_DpOT0_, symObjAddr: 0x219C, symBinAddr: 0xF218, symSize: 0x270 }
  - { offsetInCU: 0x245E1, offset: 0xD712E, size: 0x8, addend: 0x0, symName: __ZNK8firebase9firestore9immutable9SortedMapINS0_5model11DocumentKeyENS3_15MutableDocumentENS0_4util10ComparatorIS4_EEE6insertERKS4_RKS5_, symObjAddr: 0x368, symBinAddr: 0xDAE0, symSize: 0x158 }
  - { offsetInCU: 0x24C19, offset: 0xD7766, size: 0x8, addend: 0x0, symName: __ZN8firebase9firestore9immutable9SortedMapINS0_5model11DocumentKeyENS3_15MutableDocumentENS0_4util10ComparatorIS4_EEEaSEOS9_, symObjAddr: 0x4C0, symBinAddr: 0xDC38, symSize: 0xA8 }
  - { offsetInCU: 0x24EEC, offset: 0xD7A39, size: 0x8, addend: 0x0, symName: __ZN8firebase9firestore9immutable9SortedMapINS0_5model11DocumentKeyENS3_15MutableDocumentENS0_4util10ComparatorIS4_EEED2Ev, symObjAddr: 0xFE8, symBinAddr: 0xE6D4, symSize: 0x44 }
  - { offsetInCU: 0x25269, offset: 0xD7DB6, size: 0x8, addend: 0x0, symName: __ZNSt3__16vectorIN8firebase9firestore6bundle10NamedQueryENS_9allocatorIS4_EEE21__push_back_slow_pathIRKS4_EEvOT_, symObjAddr: 0x10DC, symBinAddr: 0xE7C8, symSize: 0x100 }
  - { offsetInCU: 0x2551A, offset: 0xD8067, size: 0x8, addend: 0x0, symName: __ZNSt3__110shared_ptrIN8firebase9firestore5model11ObjectValueEED2B7v160006Ev, symObjAddr: 0xC50, symBinAddr: 0xE3C8, symSize: 0x58 }
  - { offsetInCU: 0x258C5, offset: 0xD8412, size: 0x8, addend: 0x0, symName: __ZN8firebase9firestore9immutable4impl13TreeSortedMapINS0_5model11DocumentKeyENS4_15MutableDocumentENS0_4util10ComparatorIS5_EEE6CreateINS2_14ArraySortedMapIS5_S6_S9_EEEESA_RKT_RKS9_, symObjAddr: 0x2888, symBinAddr: 0xF904, symSize: 0x148 }
  - { offsetInCU: 0x25F49, offset: 0xD8A96, size: 0x8, addend: 0x0, symName: __ZNK8firebase9firestore9immutable4impl13TreeSortedMapINS0_5model11DocumentKeyENS4_15MutableDocumentENS0_4util10ComparatorIS5_EEE6insertERKS5_RKS6_, symObjAddr: 0x29D0, symBinAddr: 0xFA4C, symSize: 0x50 }
  - { offsetInCU: 0x26136, offset: 0xD8C83, size: 0x8, addend: 0x0, symName: __ZNK8firebase9firestore9immutable4impl14ArraySortedMapINS0_5model11DocumentKeyENS4_15MutableDocumentENS0_4util10ComparatorIS5_EEE6insertERKS5_RKS6_, symObjAddr: 0x2A20, symBinAddr: 0xFA9C, symSize: 0x2F4 }
  - { offsetInCU: 0x26D3C, offset: 0xD9889, size: 0x8, addend: 0x0, symName: __ZNSt3__110shared_ptrIN8firebase9firestore9immutable4impl8LlrbNodeINS2_5model11DocumentKeyENS6_15MutableDocumentEE3RepEED2B7v160006Ev, symObjAddr: 0x1084, symBinAddr: 0xE770, symSize: 0x58 }
  - { offsetInCU: 0x26E71, offset: 0xD99BE, size: 0x8, addend: 0x0, symName: __ZNSt3__110shared_ptrIKN8firebase9firestore9immutable4impl10FixedArrayINS_4pairINS2_5model11DocumentKeyENS7_15MutableDocumentEEEEEEaSB7v160006EOSD_, symObjAddr: 0x4A68, symBinAddr: 0x11A9C, symSize: 0x64 }
  - { offsetInCU: 0x26FCB, offset: 0xD9B18, size: 0x8, addend: 0x0, symName: __ZNSt3__110shared_ptrIN8firebase9firestore9immutable4impl8LlrbNodeINS2_5model11DocumentKeyENS6_15MutableDocumentEE3RepEEaSB7v160006EOSB_, symObjAddr: 0x4430, symBinAddr: 0x11464, symSize: 0x64 }
  - { offsetInCU: 0x275BB, offset: 0xDA108, size: 0x8, addend: 0x0, symName: __ZN8firebase9firestore6bundle12BundleLoader10AddElementENSt3__110unique_ptrINS1_13BundleElementENS3_14default_deleteIS5_EEEEy, symObjAddr: 0x568, symBinAddr: 0xDCE0, symSize: 0x1CC }
  - { offsetInCU: 0x281DE, offset: 0xDAD2B, size: 0x8, addend: 0x0, symName: __ZNK8firebase9firestore9immutable9SortedMapINS0_5model11DocumentKeyENS3_15MutableDocumentENS0_4util10ComparatorIS4_EEE4sizeEv, symObjAddr: 0x734, symBinAddr: 0xDEAC, symSize: 0x3C }
  - { offsetInCU: 0x282B5, offset: 0xDAE02, size: 0x8, addend: 0x0, symName: __ZN8firebase9firestore4util17internal_statusor12StatusOrDataIN4absl12lts_202206238optionalINS0_3api22LoadBundleTaskProgressEEEEC2EONS1_6StatusE, symObjAddr: 0x4B7C, symBinAddr: 0x11B00, symSize: 0x60 }
  - { offsetInCU: 0x28517, offset: 0xDB064, size: 0x8, addend: 0x0, symName: __ZN4absl12lts_2022062317optional_internal23optional_data_dtor_baseIN8firebase9firestore3api22LoadBundleTaskProgressELb0EEC2IJS6_EEENS0_10in_place_tEDpOT_, symObjAddr: 0xD0C, symBinAddr: 0xE420, symSize: 0x50 }
  - { offsetInCU: 0x286BB, offset: 0xDB208, size: 0x8, addend: 0x0, symName: __ZN4absl12lts_2022062317optional_internal18optional_data_baseIN8firebase9firestore3api22LoadBundleTaskProgressEE9constructIJS6_EEEvDpOT_, symObjAddr: 0x4BDC, symBinAddr: 0x11B60, symSize: 0x4C }
  - { offsetInCU: 0x28C3B, offset: 0xDB788, size: 0x8, addend: 0x0, symName: __ZN8firebase9firestore6bundle12BundleLoader12ApplyChangesEv, symObjAddr: 0x770, symBinAddr: 0xDEE8, symSize: 0x28C }
  - { offsetInCU: 0x297D7, offset: 0xDC324, size: 0x8, addend: 0x0, symName: __ZN8firebase9firestore4util17internal_statusor12StatusOrDataINS0_9immutable9SortedMapINS0_5model11DocumentKeyENS6_8DocumentENS1_10ComparatorIS7_EEEEEC2EONS1_6StatusE, symObjAddr: 0x4C28, symBinAddr: 0x11BAC, symSize: 0x60 }
  - { offsetInCU: 0x29A39, offset: 0xDC586, size: 0x8, addend: 0x0, symName: __ZN8firebase9firestore6bundle12BundleLoader23GetQueryDocumentMappingEv, symObjAddr: 0x9FC, symBinAddr: 0xE174, symSize: 0x198 }
  - { offsetInCU: 0x2A255, offset: 0xDCDA2, size: 0x8, addend: 0x0, symName: __ZNSt3__112__hash_tableINS_17__hash_value_typeINS_12basic_stringIcNS_11char_traitsIcEENS_9allocatorIcEEEEN8firebase9firestore9immutable9SortedSetINS9_5model11DocumentKeyENS9_4util10ComparatorISD_EEEEEENS_22__unordered_map_hasherIS7_SI_NS_4hashIS7_EENS_8equal_toIS7_EELb1EEENS_21__unordered_map_equalIS7_SI_SN_SL_Lb1EEENS5_ISI_EEE25__emplace_unique_key_argsIS7_JRKNS_21piecewise_construct_tENS_5tupleIJRKS7_EEENSX_IJEEEEEENS_4pairINS_15__hash_iteratorIPNS_11__hash_nodeISI_PvEEEEbEERKT_DpOT0_, symObjAddr: 0x4E3C, symBinAddr: 0x11DC0, symSize: 0x288 }
  - { offsetInCU: 0x2A7CA, offset: 0xDD317, size: 0x8, addend: 0x0, symName: __ZNSt3__112__hash_tableINS_17__hash_value_typeINS_12basic_stringIcNS_11char_traitsIcEENS_9allocatorIcEEEEN8firebase9firestore9immutable9SortedSetINS9_5model11DocumentKeyENS9_4util10ComparatorISD_EEEEEENS_22__unordered_map_hasherIS7_SI_NS_4hashIS7_EENS_8equal_toIS7_EELb1EEENS_21__unordered_map_equalIS7_SI_SN_SL_Lb1EEENS5_ISI_EEED2Ev, symObjAddr: 0x4D7C, symBinAddr: 0x11D00, symSize: 0x38 }
  - { offsetInCU: 0x2A941, offset: 0xDD48E, size: 0x8, addend: 0x0, symName: __ZN8firebase9firestore9immutable9SortedMapINS0_5model11DocumentKeyENS3_8DocumentENS0_4util10ComparatorIS4_EEED2Ev, symObjAddr: 0x4C88, symBinAddr: 0x11C0C, symSize: 0x44 }
  - { offsetInCU: 0x2AEFB, offset: 0xDDA48, size: 0x8, addend: 0x0, symName: __ZNSt3__112__hash_tableINS_17__hash_value_typeINS_12basic_stringIcNS_11char_traitsIcEENS_9allocatorIcEEEEN8firebase9firestore9immutable9SortedSetINS9_5model11DocumentKeyENS9_4util10ComparatorISD_EEEEEENS_22__unordered_map_hasherIS7_SI_NS_4hashIS7_EENS_8equal_toIS7_EELb1EEENS_21__unordered_map_equalIS7_SI_SN_SL_Lb1EEENS5_ISI_EEE25__emplace_unique_key_argsIS7_JRKS7_SH_EEENS_4pairINS_15__hash_iteratorIPNS_11__hash_nodeISI_PvEEEEbEERKT_DpOT0_, symObjAddr: 0x5C94, symBinAddr: 0x12720, symSize: 0x278 }
  - { offsetInCU: 0x2B455, offset: 0xDDFA2, size: 0x8, addend: 0x0, symName: __ZN8firebase9firestore9immutable9SortedMapINS0_5model11DocumentKeyENS0_4util5EmptyENS5_10ComparatorIS4_EEED2Ev, symObjAddr: 0xD84, symBinAddr: 0xE470, symSize: 0x44 }
  - { offsetInCU: 0x2B58B, offset: 0xDE0D8, size: 0x8, addend: 0x0, symName: __ZNK8firebase9firestore9immutable9SortedSetINS0_5model11DocumentKeyENS0_4util10ComparatorIS4_EEE6insertERKS4_, symObjAddr: 0xB94, symBinAddr: 0xE30C, symSize: 0xBC }
  - { offsetInCU: 0x2B814, offset: 0xDE361, size: 0x8, addend: 0x0, symName: __ZN8firebase9firestore9immutable9SortedMapINS0_5model11DocumentKeyENS0_4util5EmptyENS5_10ComparatorIS4_EEEaSEOS9_, symObjAddr: 0xE78, symBinAddr: 0xE564, symSize: 0xA8 }
  - { offsetInCU: 0x2BC55, offset: 0xDE7A2, size: 0x8, addend: 0x0, symName: __ZNK8firebase9firestore9immutable9SortedMapINS0_5model11DocumentKeyENS0_4util5EmptyENS5_10ComparatorIS4_EEE6insertERKS4_RKS6_, symObjAddr: 0x6004, symBinAddr: 0x12A90, symSize: 0x158 }
  - { offsetInCU: 0x2C50E, offset: 0xDF05B, size: 0x8, addend: 0x0, symName: __ZNSt3__110shared_ptrIKN8firebase9firestore9immutable4impl10FixedArrayINS_4pairINS2_5model11DocumentKeyENS2_4util5EmptyEEEEEED2B7v160006Ev, symObjAddr: 0xDC8, symBinAddr: 0xE4B4, symSize: 0x58 }
  - { offsetInCU: 0x2C598, offset: 0xDF0E5, size: 0x8, addend: 0x0, symName: __ZNSt3__110shared_ptrIN8firebase9firestore9immutable4impl8LlrbNodeINS2_5model11DocumentKeyENS2_4util5EmptyEE3RepEED2B7v160006Ev, symObjAddr: 0xE20, symBinAddr: 0xE50C, symSize: 0x58 }
  - { offsetInCU: 0x2C685, offset: 0xDF1D2, size: 0x8, addend: 0x0, symName: __ZNSt3__110shared_ptrIKN8firebase9firestore9immutable4impl10FixedArrayINS_4pairINS2_5model11DocumentKeyENS2_4util5EmptyEEEEEEaSB7v160006EOSE_, symObjAddr: 0xF20, symBinAddr: 0xE60C, symSize: 0x64 }
  - { offsetInCU: 0x2C7DF, offset: 0xDF32C, size: 0x8, addend: 0x0, symName: __ZNSt3__110shared_ptrIN8firebase9firestore9immutable4impl8LlrbNodeINS2_5model11DocumentKeyENS2_4util5EmptyEE3RepEEaSB7v160006EOSC_, symObjAddr: 0xF84, symBinAddr: 0xE670, symSize: 0x64 }
  - { offsetInCU: 0x2C9FF, offset: 0xDF54C, size: 0x8, addend: 0x0, symName: __ZNSt3__110shared_ptrIKN8firebase9firestore9immutable4impl10FixedArrayINS_4pairINS2_5model11DocumentKeyENS7_15MutableDocumentEEEEEED2B7v160006Ev, symObjAddr: 0x102C, symBinAddr: 0xE718, symSize: 0x58 }
  - { offsetInCU: 0x2CC53, offset: 0xDF7A0, size: 0x8, addend: 0x0, symName: __ZNSt3__114__split_bufferIN8firebase9firestore6bundle10NamedQueryERNS_9allocatorIS4_EEED2Ev, symObjAddr: 0x2094, symBinAddr: 0xF110, symSize: 0x50 }
  - { offsetInCU: 0x2CDC7, offset: 0xDF914, size: 0x8, addend: 0x0, symName: __ZNKSt3__16vectorIN8firebase9firestore6bundle10NamedQueryENS_9allocatorIS4_EEE20__throw_length_errorB7v160006Ev, symObjAddr: 0x1F20, symBinAddr: 0xEF9C, symSize: 0x14 }
  - { offsetInCU: 0x2CDEF, offset: 0xDF93C, size: 0x8, addend: 0x0, symName: __ZNSt3__119__allocate_at_leastB7v160006INS_9allocatorIN8firebase9firestore6bundle10NamedQueryEEEEENS_19__allocation_resultINS_16allocator_traitsIT_E7pointerEEERS9_m, symObjAddr: 0x1F34, symBinAddr: 0xEFB0, symSize: 0x44 }
  - { offsetInCU: 0x2CEA4, offset: 0xDF9F1, size: 0x8, addend: 0x0, symName: __ZN8firebase9firestore4core6TargetC2ERKS2_, symObjAddr: 0x1280, symBinAddr: 0xE96C, symSize: 0x184 }
  - { offsetInCU: 0x2D865, offset: 0xE03B2, size: 0x8, addend: 0x0, symName: __ZN8firebase9firestore6bundle10NamedQueryD1Ev, symObjAddr: 0x1260, symBinAddr: 0xE94C, symSize: 0x4 }
  - { offsetInCU: 0x2D888, offset: 0xE03D5, size: 0x8, addend: 0x0, symName: __ZN8firebase9firestore6bundle10NamedQueryD1Ev, symObjAddr: 0x1260, symBinAddr: 0xE94C, symSize: 0x4 }
  - { offsetInCU: 0x2D89B, offset: 0xE03E8, size: 0x8, addend: 0x0, symName: __ZN8firebase9firestore6bundle10NamedQueryD2Ev, symObjAddr: 0x1DE8, symBinAddr: 0xEE64, symSize: 0x9C }
  - { offsetInCU: 0x2DF2C, offset: 0xE0A79, size: 0x8, addend: 0x0, symName: __ZN8firebase9firestore6bundle10NamedQueryD0Ev, symObjAddr: 0x1264, symBinAddr: 0xE950, symSize: 0x14 }
  - { offsetInCU: 0x2DF87, offset: 0xE0AD4, size: 0x8, addend: 0x0, symName: __ZNK8firebase9firestore6bundle10NamedQuery12element_typeEv, symObjAddr: 0x1278, symBinAddr: 0xE964, symSize: 0x8 }
  - { offsetInCU: 0x2E5F5, offset: 0xE1142, size: 0x8, addend: 0x0, symName: __ZNSt3__16vectorIN8firebase9firestore4core6FilterENS_9allocatorIS4_EEEC2ERKS7_, symObjAddr: 0x17E4, symBinAddr: 0xEAF0, symSize: 0xC0 }
  - { offsetInCU: 0x2E994, offset: 0xE14E1, size: 0x8, addend: 0x0, symName: __ZNSt3__16vectorIN8firebase9firestore4core7OrderByENS_9allocatorIS4_EEEC2ERKS7_, symObjAddr: 0x1A28, symBinAddr: 0xEC6C, symSize: 0xA8 }
  - { offsetInCU: 0x2F804, offset: 0xE2351, size: 0x8, addend: 0x0, symName: __ZNSt3__16vectorIN8firebase9firestore4core6FilterENS_9allocatorIS4_EEE11__vallocateB7v160006Em, symObjAddr: 0x18A4, symBinAddr: 0xEBB0, symSize: 0x40 }
  - { offsetInCU: 0x2F87E, offset: 0xE23CB, size: 0x8, addend: 0x0, symName: __ZNKSt3__16vectorIN8firebase9firestore4core6FilterENS_9allocatorIS4_EEE20__throw_length_errorB7v160006Ev, symObjAddr: 0x18E4, symBinAddr: 0xEBF0, symSize: 0x14 }
  - { offsetInCU: 0x2F88F, offset: 0xE23DC, size: 0x8, addend: 0x0, symName: __ZNSt3__128__exception_guard_exceptionsINS_6vectorIN8firebase9firestore4core6FilterENS_9allocatorIS5_EEE16__destroy_vectorEED2B7v160006Ev, symObjAddr: 0x1984, symBinAddr: 0xEC38, symSize: 0x34 }
  - { offsetInCU: 0x2F8E1, offset: 0xE242E, size: 0x8, addend: 0x0, symName: __ZNKSt3__16vectorIN8firebase9firestore4core6FilterENS_9allocatorIS4_EEE20__throw_length_errorB7v160006Ev, symObjAddr: 0x18E4, symBinAddr: 0xEBF0, symSize: 0x14 }
  - { offsetInCU: 0x2F909, offset: 0xE2456, size: 0x8, addend: 0x0, symName: __ZNSt3__119__allocate_at_leastB7v160006INS_9allocatorIN8firebase9firestore4core6FilterEEEEENS_19__allocation_resultINS_16allocator_traitsIT_E7pointerEEERS9_m, symObjAddr: 0x18F8, symBinAddr: 0xEC04, symSize: 0x34 }
  - { offsetInCU: 0x2FD62, offset: 0xE28AF, size: 0x8, addend: 0x0, symName: __ZNSt3__16vectorIN8firebase9firestore4core7OrderByENS_9allocatorIS4_EEE11__vallocateB7v160006Em, symObjAddr: 0x1AD0, symBinAddr: 0xED14, symSize: 0x40 }
  - { offsetInCU: 0x2FDDC, offset: 0xE2929, size: 0x8, addend: 0x0, symName: __ZNKSt3__16vectorIN8firebase9firestore4core7OrderByENS_9allocatorIS4_EEE20__throw_length_errorB7v160006Ev, symObjAddr: 0x1B10, symBinAddr: 0xED54, symSize: 0x14 }
  - { offsetInCU: 0x2FDED, offset: 0xE293A, size: 0x8, addend: 0x0, symName: __ZNSt3__128__exception_guard_exceptionsINS_6vectorIN8firebase9firestore4core7OrderByENS_9allocatorIS5_EEE16__destroy_vectorEED2B7v160006Ev, symObjAddr: 0x1C24, symBinAddr: 0xEE30, symSize: 0x34 }
  - { offsetInCU: 0x2FE3F, offset: 0xE298C, size: 0x8, addend: 0x0, symName: __ZNKSt3__16vectorIN8firebase9firestore4core7OrderByENS_9allocatorIS4_EEE20__throw_length_errorB7v160006Ev, symObjAddr: 0x1B10, symBinAddr: 0xED54, symSize: 0x14 }
  - { offsetInCU: 0x2FE67, offset: 0xE29B4, size: 0x8, addend: 0x0, symName: __ZNSt3__119__allocate_at_leastB7v160006INS_9allocatorIN8firebase9firestore4core7OrderByEEEEENS_19__allocation_resultINS_16allocator_traitsIT_E7pointerEEERS9_m, symObjAddr: 0x1B24, symBinAddr: 0xED68, symSize: 0x34 }
  - { offsetInCU: 0x304A2, offset: 0xE2FEF, size: 0x8, addend: 0x0, symName: __ZNSt3__19allocatorIN8firebase9firestore6bundle10NamedQueryEE9constructB7v160006IS4_JS4_EEEvPT_DpOT0_, symObjAddr: 0x1F78, symBinAddr: 0xEFF4, symSize: 0x11C }
  - { offsetInCU: 0x304E3, offset: 0xE3030, size: 0x8, addend: 0x0, symName: __ZNSt3__19allocatorIN8firebase9firestore6bundle10NamedQueryEE9constructB7v160006IS4_JS4_EEEvPT_DpOT0_, symObjAddr: 0x1F78, symBinAddr: 0xEFF4, symSize: 0x11C }
  - { offsetInCU: 0x30505, offset: 0xE3052, size: 0x8, addend: 0x0, symName: __ZNSt3__19allocatorIN8firebase9firestore6bundle10NamedQueryEE9constructB7v160006IS4_JS4_EEEvPT_DpOT0_, symObjAddr: 0x1F78, symBinAddr: 0xEFF4, symSize: 0x11C }
  - { offsetInCU: 0x3119F, offset: 0xE3CEC, size: 0x8, addend: 0x0, symName: __ZNSt3__110shared_ptrIKN8firebase9firestore5model12ResourcePathEEaSB7v160006ERKS6_, symObjAddr: 0x2124, symBinAddr: 0xF1A0, symSize: 0x78 }
  - { offsetInCU: 0x31567, offset: 0xE40B4, size: 0x8, addend: 0x0, symName: __ZNSt3__112__hash_tableINS_17__hash_value_typeIN8firebase9firestore5model11DocumentKeyENS3_6bundle23BundledDocumentMetadataEEENS_22__unordered_map_hasherIS5_S8_NS4_15DocumentKeyHashENS_8equal_toIS5_EELb1EEENS_21__unordered_map_equalIS5_S8_SC_SA_Lb1EEENS_9allocatorIS8_EEE21__construct_node_hashIRKS5_JRKS7_EEENS_10unique_ptrINS_11__hash_nodeIS8_PvEENS_22__hash_node_destructorINSG_ISR_EEEEEEmOT_DpOT0_, symObjAddr: 0x240C, symBinAddr: 0xF488, symSize: 0x98 }
  - { offsetInCU: 0x3186D, offset: 0xE43BA, size: 0x8, addend: 0x0, symName: __ZNSt3__112__hash_tableINS_17__hash_value_typeIN8firebase9firestore5model11DocumentKeyENS3_6bundle23BundledDocumentMetadataEEENS_22__unordered_map_hasherIS5_S8_NS4_15DocumentKeyHashENS_8equal_toIS5_EELb1EEENS_21__unordered_map_equalIS5_S8_SC_SA_Lb1EEENS_9allocatorIS8_EEE8__rehashILb1EEEvm, symObjAddr: 0x25EC, symBinAddr: 0xF668, symSize: 0xDC }
  - { offsetInCU: 0x31953, offset: 0xE44A0, size: 0x8, addend: 0x0, symName: __ZNSt3__122__hash_node_destructorINS_9allocatorINS_11__hash_nodeINS_17__hash_value_typeIN8firebase9firestore5model11DocumentKeyENS5_6bundle23BundledDocumentMetadataEEEPvEEEEEclB7v160006EPSC_, symObjAddr: 0x2820, symBinAddr: 0xF89C, symSize: 0x68 }
  - { offsetInCU: 0x31E71, offset: 0xE49BE, size: 0x8, addend: 0x0, symName: __ZNSt3__14pairIKN8firebase9firestore5model11DocumentKeyENS2_6bundle23BundledDocumentMetadataEEC2B7v160006ILb1ELPv0EEERS5_RKS7_, symObjAddr: 0x24A4, symBinAddr: 0xF520, symSize: 0xB8 }
  - { offsetInCU: 0x32219, offset: 0xE4D66, size: 0x8, addend: 0x0, symName: __ZN8firebase9firestore6bundle23BundledDocumentMetadataD1Ev, symObjAddr: 0x255C, symBinAddr: 0xF5D8, symSize: 0x44 }
  - { offsetInCU: 0x32304, offset: 0xE4E51, size: 0x8, addend: 0x0, symName: __ZN8firebase9firestore6bundle23BundledDocumentMetadataD0Ev, symObjAddr: 0x25A0, symBinAddr: 0xF61C, symSize: 0x44 }
  - { offsetInCU: 0x323FA, offset: 0xE4F47, size: 0x8, addend: 0x0, symName: __ZNK8firebase9firestore6bundle23BundledDocumentMetadata12element_typeEv, symObjAddr: 0x25E4, symBinAddr: 0xF660, symSize: 0x8 }
  - { offsetInCU: 0x32420, offset: 0xE4F6D, size: 0x8, addend: 0x0, symName: __ZNSt3__112__hash_tableINS_17__hash_value_typeIN8firebase9firestore5model11DocumentKeyENS3_6bundle23BundledDocumentMetadataEEENS_22__unordered_map_hasherIS5_S8_NS4_15DocumentKeyHashENS_8equal_toIS5_EELb1EEENS_21__unordered_map_equalIS5_S8_SC_SA_Lb1EEENS_9allocatorIS8_EEE11__do_rehashILb1EEEvm, symObjAddr: 0x26C8, symBinAddr: 0xF744, symSize: 0x158 }
  - { offsetInCU: 0x328A8, offset: 0xE53F5, size: 0x8, addend: 0x0, symName: __ZNSt3__122__hash_node_destructorINS_9allocatorINS_11__hash_nodeINS_17__hash_value_typeIN8firebase9firestore5model11DocumentKeyENS5_6bundle23BundledDocumentMetadataEEEPvEEEEEclB7v160006EPSC_, symObjAddr: 0x2820, symBinAddr: 0xF89C, symSize: 0x68 }
  - { offsetInCU: 0x32C68, offset: 0xE57B5, size: 0x8, addend: 0x0, symName: __ZNK8firebase9firestore9immutable4impl8LlrbNodeINS0_5model11DocumentKeyENS4_15MutableDocumentEE11InnerInsertINS0_4util10ComparatorIS5_EEEES7_RKS5_RKS6_RKT_, symObjAddr: 0x3294, symBinAddr: 0x102C8, symSize: 0x554 }
  - { offsetInCU: 0x34906, offset: 0xE7453, size: 0x8, addend: 0x0, symName: __ZN8firebase9firestore9immutable4impl10FixedArrayINSt3__14pairINS0_5model11DocumentKeyENS6_15MutableDocumentEEEE6appendEOS9_, symObjAddr: 0x4494, symBinAddr: 0x114C8, symSize: 0x90 }
  - { offsetInCU: 0x34B3F, offset: 0xE768C, size: 0x8, addend: 0x0, symName: __ZN8firebase9firestore9immutable4impl10FixedArrayINSt3__14pairINS0_5model11DocumentKeyENS6_15MutableDocumentEEEE6appendIPKS9_EEvT_SE_, symObjAddr: 0x4524, symBinAddr: 0x11558, symSize: 0xAC }
  - { offsetInCU: 0x34E25, offset: 0xE7972, size: 0x8, addend: 0x0, symName: __ZNSt3__14pairIN8firebase9firestore5model11DocumentKeyENS3_15MutableDocumentEED1Ev, symObjAddr: 0x2E74, symBinAddr: 0xFEF0, symSize: 0x34 }
  - { offsetInCU: 0x34F9E, offset: 0xE7AEB, size: 0x8, addend: 0x0, symName: __ZNSt3__110shared_ptrIN8firebase9firestore9immutable4impl10FixedArrayINS_4pairINS2_5model11DocumentKeyENS7_15MutableDocumentEEEEEED2B7v160006Ev, symObjAddr: 0x4A10, symBinAddr: 0x11A44, symSize: 0x58 }
  - { offsetInCU: 0x35032, offset: 0xE7B7F, size: 0x8, addend: 0x0, symName: __ZZN8firebase9firestore9immutable4impl8LlrbNodeINS0_5model11DocumentKeyENS4_15MutableDocumentEE8EmptyRepEvENKUlvE_clEv, symObjAddr: 0x2D90, symBinAddr: 0xFE0C, symSize: 0xE4 }
  - { offsetInCU: 0x355FD, offset: 0xE814A, size: 0x8, addend: 0x0, symName: __ZNSt3__14pairIN8firebase9firestore5model11DocumentKeyENS3_15MutableDocumentEEC2B7v160006ILb1ELPv0EEEv, symObjAddr: 0x2F20, symBinAddr: 0xFF9C, symSize: 0x4C }
  - { offsetInCU: 0x356C9, offset: 0xE8216, size: 0x8, addend: 0x0, symName: __ZNSt3__110shared_ptrIN8firebase9firestore9immutable4impl8LlrbNodeINS2_5model11DocumentKeyENS6_15MutableDocumentEE3RepEEC2ISA_vEEPT_, symObjAddr: 0x30E8, symBinAddr: 0x10164, symSize: 0x70 }
  - { offsetInCU: 0x3581B, offset: 0xE8368, size: 0x8, addend: 0x0, symName: __ZNSt3__110shared_ptrIN8firebase9firestore9immutable4impl8LlrbNodeINS2_5model11DocumentKeyENS6_15MutableDocumentEE3RepEEaSB7v160006ERKSB_, symObjAddr: 0x2EA8, symBinAddr: 0xFF24, symSize: 0x78 }
  - { offsetInCU: 0x359E3, offset: 0xE8530, size: 0x8, addend: 0x0, symName: __ZN8firebase9firestore5model15MutableDocumentC2Ev, symObjAddr: 0x2F6C, symBinAddr: 0xFFE8, symSize: 0x68 }
  - { offsetInCU: 0x35DD1, offset: 0xE891E, size: 0x8, addend: 0x0, symName: __ZNSt3__120__shared_ptr_emplaceIN8firebase9firestore5model11ObjectValueENS_9allocatorIS4_EEEC2B7v160006IJEEES6_DpOT_, symObjAddr: 0x301C, symBinAddr: 0x10098, symSize: 0x4C }
  - { offsetInCU: 0x35EA5, offset: 0xE89F2, size: 0x8, addend: 0x0, symName: __ZNSt3__120__shared_ptr_emplaceIN8firebase9firestore5model11ObjectValueENS_9allocatorIS4_EEED1Ev, symObjAddr: 0x3068, symBinAddr: 0x100E4, symSize: 0x14 }
  - { offsetInCU: 0x35EC8, offset: 0xE8A15, size: 0x8, addend: 0x0, symName: __ZNSt3__120__shared_ptr_emplaceIN8firebase9firestore5model11ObjectValueENS_9allocatorIS4_EEED1Ev, symObjAddr: 0x3068, symBinAddr: 0x100E4, symSize: 0x14 }
  - { offsetInCU: 0x35EFE, offset: 0xE8A4B, size: 0x8, addend: 0x0, symName: __ZNSt3__120__shared_ptr_emplaceIN8firebase9firestore5model11ObjectValueENS_9allocatorIS4_EEED0Ev, symObjAddr: 0x307C, symBinAddr: 0x100F8, symSize: 0x24 }
  - { offsetInCU: 0x35FB7, offset: 0xE8B04, size: 0x8, addend: 0x0, symName: __ZNSt3__120__shared_ptr_emplaceIN8firebase9firestore5model11ObjectValueENS_9allocatorIS4_EEE16__on_zero_sharedEv, symObjAddr: 0x30A0, symBinAddr: 0x1011C, symSize: 0x8 }
  - { offsetInCU: 0x35FE0, offset: 0xE8B2D, size: 0x8, addend: 0x0, symName: __ZNSt3__120__shared_ptr_emplaceIN8firebase9firestore5model11ObjectValueENS_9allocatorIS4_EEE16__on_zero_sharedEv, symObjAddr: 0x30A0, symBinAddr: 0x1011C, symSize: 0x8 }
  - { offsetInCU: 0x3605C, offset: 0xE8BA9, size: 0x8, addend: 0x0, symName: __ZN8firebase9firestore6nanopb7MessageINS0_26_google_firestore_v1_ValueEED2Ev, symObjAddr: 0x30AC, symBinAddr: 0x10128, symSize: 0x3C }
  - { offsetInCU: 0x360B6, offset: 0xE8C03, size: 0x8, addend: 0x0, symName: __ZNSt3__120__shared_ptr_emplaceIN8firebase9firestore5model11ObjectValueENS_9allocatorIS4_EEE21__on_zero_shared_weakEv, symObjAddr: 0x30A8, symBinAddr: 0x10124, symSize: 0x4 }
  - { offsetInCU: 0x360E9, offset: 0xE8C36, size: 0x8, addend: 0x0, symName: __ZNSt3__120__shared_ptr_emplaceIN8firebase9firestore5model11ObjectValueENS_9allocatorIS4_EEE21__on_zero_shared_weakEv, symObjAddr: 0x30A8, symBinAddr: 0x10124, symSize: 0x4 }
  - { offsetInCU: 0x3610C, offset: 0xE8C59, size: 0x8, addend: 0x0, symName: __ZNSt3__120__shared_ptr_emplaceIN8firebase9firestore5model11ObjectValueENS_9allocatorIS4_EEE21__on_zero_shared_weakEv, symObjAddr: 0x30A8, symBinAddr: 0x10124, symSize: 0x4 }
  - { offsetInCU: 0x3612F, offset: 0xE8C7C, size: 0x8, addend: 0x0, symName: __ZNSt3__120__shared_ptr_emplaceIN8firebase9firestore5model11ObjectValueENS_9allocatorIS4_EEE21__on_zero_shared_weakEv, symObjAddr: 0x30A8, symBinAddr: 0x10124, symSize: 0x4 }
  - { offsetInCU: 0x3615C, offset: 0xE8CA9, size: 0x8, addend: 0x0, symName: __ZNSt3__120__shared_ptr_emplaceIN8firebase9firestore5model11ObjectValueENS_9allocatorIS4_EEE21__on_zero_shared_weakEv, symObjAddr: 0x30A8, symBinAddr: 0x10124, symSize: 0x4 }
  - { offsetInCU: 0x36183, offset: 0xE8CD0, size: 0x8, addend: 0x0, symName: __ZNSt3__120__shared_ptr_emplaceIN8firebase9firestore5model11ObjectValueENS_9allocatorIS4_EEE21__on_zero_shared_weakEv, symObjAddr: 0x30A8, symBinAddr: 0x10124, symSize: 0x4 }
  - { offsetInCU: 0x363BA, offset: 0xE8F07, size: 0x8, addend: 0x0, symName: __ZNKSt3__114default_deleteIN8firebase9firestore9immutable4impl8LlrbNodeINS2_5model11DocumentKeyENS6_15MutableDocumentEE3RepEEclB7v160006EPSA_, symObjAddr: 0x31B8, symBinAddr: 0x10234, symSize: 0x50 }
  - { offsetInCU: 0x3667D, offset: 0xE91CA, size: 0x8, addend: 0x0, symName: __ZNSt3__120__shared_ptr_pointerIPN8firebase9firestore9immutable4impl8LlrbNodeINS2_5model11DocumentKeyENS6_15MutableDocumentEE3RepENS_10shared_ptrISA_E27__shared_ptr_default_deleteISA_SA_EENS_9allocatorISA_EEED1Ev, symObjAddr: 0x3158, symBinAddr: 0x101D4, symSize: 0x4 }
  - { offsetInCU: 0x366A0, offset: 0xE91ED, size: 0x8, addend: 0x0, symName: __ZNSt3__120__shared_ptr_pointerIPN8firebase9firestore9immutable4impl8LlrbNodeINS2_5model11DocumentKeyENS6_15MutableDocumentEE3RepENS_10shared_ptrISA_E27__shared_ptr_default_deleteISA_SA_EENS_9allocatorISA_EEED1Ev, symObjAddr: 0x3158, symBinAddr: 0x101D4, symSize: 0x4 }
  - { offsetInCU: 0x366D4, offset: 0xE9221, size: 0x8, addend: 0x0, symName: __ZNSt3__120__shared_ptr_pointerIPN8firebase9firestore9immutable4impl8LlrbNodeINS2_5model11DocumentKeyENS6_15MutableDocumentEE3RepENS_10shared_ptrISA_E27__shared_ptr_default_deleteISA_SA_EENS_9allocatorISA_EEED0Ev, symObjAddr: 0x315C, symBinAddr: 0x101D8, symSize: 0x14 }
  - { offsetInCU: 0x36736, offset: 0xE9283, size: 0x8, addend: 0x0, symName: __ZNSt3__120__shared_ptr_pointerIPN8firebase9firestore9immutable4impl8LlrbNodeINS2_5model11DocumentKeyENS6_15MutableDocumentEE3RepENS_10shared_ptrISA_E27__shared_ptr_default_deleteISA_SA_EENS_9allocatorISA_EEE16__on_zero_sharedEv, symObjAddr: 0x3170, symBinAddr: 0x101EC, symSize: 0x8 }
  - { offsetInCU: 0x36769, offset: 0xE92B6, size: 0x8, addend: 0x0, symName: __ZNKSt3__120__shared_ptr_pointerIPN8firebase9firestore9immutable4impl8LlrbNodeINS2_5model11DocumentKeyENS6_15MutableDocumentEE3RepENS_10shared_ptrISA_E27__shared_ptr_default_deleteISA_SA_EENS_9allocatorISA_EEE13__get_deleterERKSt9type_info, symObjAddr: 0x3178, symBinAddr: 0x101F4, symSize: 0x3C }
  - { offsetInCU: 0x3684F, offset: 0xE939C, size: 0x8, addend: 0x0, symName: __ZNSt3__120__shared_ptr_pointerIPN8firebase9firestore9immutable4impl8LlrbNodeINS2_5model11DocumentKeyENS6_15MutableDocumentEE3RepENS_10shared_ptrISA_E27__shared_ptr_default_deleteISA_SA_EENS_9allocatorISA_EEE21__on_zero_shared_weakEv, symObjAddr: 0x31B4, symBinAddr: 0x10230, symSize: 0x4 }
  - { offsetInCU: 0x36882, offset: 0xE93CF, size: 0x8, addend: 0x0, symName: __ZNSt3__120__shared_ptr_pointerIPN8firebase9firestore9immutable4impl8LlrbNodeINS2_5model11DocumentKeyENS6_15MutableDocumentEE3RepENS_10shared_ptrISA_E27__shared_ptr_default_deleteISA_SA_EENS_9allocatorISA_EEE21__on_zero_shared_weakEv, symObjAddr: 0x31B4, symBinAddr: 0x10230, symSize: 0x4 }
  - { offsetInCU: 0x368A5, offset: 0xE93F2, size: 0x8, addend: 0x0, symName: __ZNSt3__120__shared_ptr_pointerIPN8firebase9firestore9immutable4impl8LlrbNodeINS2_5model11DocumentKeyENS6_15MutableDocumentEE3RepENS_10shared_ptrISA_E27__shared_ptr_default_deleteISA_SA_EENS_9allocatorISA_EEE21__on_zero_shared_weakEv, symObjAddr: 0x31B4, symBinAddr: 0x10230, symSize: 0x4 }
  - { offsetInCU: 0x368D1, offset: 0xE941E, size: 0x8, addend: 0x0, symName: __ZNSt3__120__shared_ptr_pointerIPN8firebase9firestore9immutable4impl8LlrbNodeINS2_5model11DocumentKeyENS6_15MutableDocumentEE3RepENS_10shared_ptrISA_E27__shared_ptr_default_deleteISA_SA_EENS_9allocatorISA_EEE21__on_zero_shared_weakEv, symObjAddr: 0x31B4, symBinAddr: 0x10230, symSize: 0x4 }
  - { offsetInCU: 0x368F7, offset: 0xE9444, size: 0x8, addend: 0x0, symName: __ZNSt3__120__shared_ptr_pointerIPN8firebase9firestore9immutable4impl8LlrbNodeINS2_5model11DocumentKeyENS6_15MutableDocumentEE3RepENS_10shared_ptrISA_E27__shared_ptr_default_deleteISA_SA_EENS_9allocatorISA_EEE21__on_zero_shared_weakEv, symObjAddr: 0x31B4, symBinAddr: 0x10230, symSize: 0x4 }
  - { offsetInCU: 0x36955, offset: 0xE94A2, size: 0x8, addend: 0x0, symName: __ZN8firebase9firestore9immutable4impl8LlrbNodeINS0_5model11DocumentKeyENS4_15MutableDocumentEE3RepD1Ev, symObjAddr: 0x3208, symBinAddr: 0x10284, symSize: 0x44 }
  - { offsetInCU: 0x36DC1, offset: 0xE990E, size: 0x8, addend: 0x0, symName: __ZNK8firebase9firestore9immutable4impl8LlrbNodeINS0_5model11DocumentKeyENS4_15MutableDocumentEE5CloneEv, symObjAddr: 0x37E8, symBinAddr: 0x1081C, symSize: 0x21C }
  - { offsetInCU: 0x37805, offset: 0xEA352, size: 0x8, addend: 0x0, symName: __ZN8firebase9firestore9immutable4impl8LlrbNodeINS0_5model11DocumentKeyENS4_15MutableDocumentEE5FixUpEv, symObjAddr: 0x3A04, symBinAddr: 0x10A38, symSize: 0xBC }
  - { offsetInCU: 0x37B2F, offset: 0xEA67C, size: 0x8, addend: 0x0, symName: __ZNSt3__110shared_ptrIN8firebase9firestore5model11ObjectValueEEaSB7v160006ERKS5_, symObjAddr: 0x43B8, symBinAddr: 0x113EC, symSize: 0x78 }
  - { offsetInCU: 0x37DD1, offset: 0xEA91E, size: 0x8, addend: 0x0, symName: __ZN8firebase9firestore9immutable4impl8LlrbNodeINS0_5model11DocumentKeyENS4_15MutableDocumentEE10RotateLeftEv, symObjAddr: 0x3C20, symBinAddr: 0x10C54, symSize: 0x304 }
  - { offsetInCU: 0x38E89, offset: 0xEB9D6, size: 0x8, addend: 0x0, symName: __ZN8firebase9firestore9immutable4impl8LlrbNodeINS0_5model11DocumentKeyENS4_15MutableDocumentEE11RotateRightEv, symObjAddr: 0x3F24, symBinAddr: 0x10F58, symSize: 0x304 }
  - { offsetInCU: 0x39F44, offset: 0xECA91, size: 0x8, addend: 0x0, symName: __ZN8firebase9firestore9immutable4impl8LlrbNodeINS0_5model11DocumentKeyENS4_15MutableDocumentEE9FlipColorEv, symObjAddr: 0x4228, symBinAddr: 0x1125C, symSize: 0x138 }
  - { offsetInCU: 0x3A70E, offset: 0xED25B, size: 0x8, addend: 0x0, symName: __ZNSt3__120__shared_ptr_emplaceIN8firebase9firestore9immutable4impl8LlrbNodeINS2_5model11DocumentKeyENS6_15MutableDocumentEE3RepENS_9allocatorISA_EEEC2B7v160006IJSA_EEESC_DpOT_, symObjAddr: 0x3B18, symBinAddr: 0x10B4C, symSize: 0x7C }
  - { offsetInCU: 0x3A754, offset: 0xED2A1, size: 0x8, addend: 0x0, symName: __ZNSt3__120__shared_ptr_emplaceIN8firebase9firestore9immutable4impl8LlrbNodeINS2_5model11DocumentKeyENS6_15MutableDocumentEE3RepENS_9allocatorISA_EEEC2B7v160006IJSA_EEESC_DpOT_, symObjAddr: 0x3B18, symBinAddr: 0x10B4C, symSize: 0x7C }
  - { offsetInCU: 0x3A776, offset: 0xED2C3, size: 0x8, addend: 0x0, symName: __ZNSt3__120__shared_ptr_emplaceIN8firebase9firestore9immutable4impl8LlrbNodeINS2_5model11DocumentKeyENS6_15MutableDocumentEE3RepENS_9allocatorISA_EEEC2B7v160006IJSA_EEESC_DpOT_, symObjAddr: 0x3B18, symBinAddr: 0x10B4C, symSize: 0x7C }
  - { offsetInCU: 0x3ABAF, offset: 0xED6FC, size: 0x8, addend: 0x0, symName: __ZNSt3__120__shared_ptr_emplaceIN8firebase9firestore9immutable4impl8LlrbNodeINS2_5model11DocumentKeyENS6_15MutableDocumentEE3RepENS_9allocatorISA_EEED1Ev, symObjAddr: 0x3B94, symBinAddr: 0x10BC8, symSize: 0x14 }
  - { offsetInCU: 0x3ABD2, offset: 0xED71F, size: 0x8, addend: 0x0, symName: __ZNSt3__120__shared_ptr_emplaceIN8firebase9firestore9immutable4impl8LlrbNodeINS2_5model11DocumentKeyENS6_15MutableDocumentEE3RepENS_9allocatorISA_EEED1Ev, symObjAddr: 0x3B94, symBinAddr: 0x10BC8, symSize: 0x14 }
  - { offsetInCU: 0x3AC08, offset: 0xED755, size: 0x8, addend: 0x0, symName: __ZNSt3__120__shared_ptr_emplaceIN8firebase9firestore9immutable4impl8LlrbNodeINS2_5model11DocumentKeyENS6_15MutableDocumentEE3RepENS_9allocatorISA_EEED0Ev, symObjAddr: 0x3BA8, symBinAddr: 0x10BDC, symSize: 0x24 }
  - { offsetInCU: 0x3AC6D, offset: 0xED7BA, size: 0x8, addend: 0x0, symName: __ZNSt3__120__shared_ptr_emplaceIN8firebase9firestore9immutable4impl8LlrbNodeINS2_5model11DocumentKeyENS6_15MutableDocumentEE3RepENS_9allocatorISA_EEE16__on_zero_sharedEv, symObjAddr: 0x3BCC, symBinAddr: 0x10C00, symSize: 0x50 }
  - { offsetInCU: 0x3AF33, offset: 0xEDA80, size: 0x8, addend: 0x0, symName: __ZNSt3__120__shared_ptr_emplaceIN8firebase9firestore9immutable4impl8LlrbNodeINS2_5model11DocumentKeyENS6_15MutableDocumentEE3RepENS_9allocatorISA_EEE21__on_zero_shared_weakEv, symObjAddr: 0x3C1C, symBinAddr: 0x10C50, symSize: 0x4 }
  - { offsetInCU: 0x3AF66, offset: 0xEDAB3, size: 0x8, addend: 0x0, symName: __ZNSt3__120__shared_ptr_emplaceIN8firebase9firestore9immutable4impl8LlrbNodeINS2_5model11DocumentKeyENS6_15MutableDocumentEE3RepENS_9allocatorISA_EEE21__on_zero_shared_weakEv, symObjAddr: 0x3C1C, symBinAddr: 0x10C50, symSize: 0x4 }
  - { offsetInCU: 0x3AF89, offset: 0xEDAD6, size: 0x8, addend: 0x0, symName: __ZNSt3__120__shared_ptr_emplaceIN8firebase9firestore9immutable4impl8LlrbNodeINS2_5model11DocumentKeyENS6_15MutableDocumentEE3RepENS_9allocatorISA_EEE21__on_zero_shared_weakEv, symObjAddr: 0x3C1C, symBinAddr: 0x10C50, symSize: 0x4 }
  - { offsetInCU: 0x3AFAC, offset: 0xEDAF9, size: 0x8, addend: 0x0, symName: __ZNSt3__120__shared_ptr_emplaceIN8firebase9firestore9immutable4impl8LlrbNodeINS2_5model11DocumentKeyENS6_15MutableDocumentEE3RepENS_9allocatorISA_EEE21__on_zero_shared_weakEv, symObjAddr: 0x3C1C, symBinAddr: 0x10C50, symSize: 0x4 }
  - { offsetInCU: 0x3AFDA, offset: 0xEDB27, size: 0x8, addend: 0x0, symName: __ZNSt3__120__shared_ptr_emplaceIN8firebase9firestore9immutable4impl8LlrbNodeINS2_5model11DocumentKeyENS6_15MutableDocumentEE3RepENS_9allocatorISA_EEE21__on_zero_shared_weakEv, symObjAddr: 0x3C1C, symBinAddr: 0x10C50, symSize: 0x4 }
  - { offsetInCU: 0x3B002, offset: 0xEDB4F, size: 0x8, addend: 0x0, symName: __ZNSt3__120__shared_ptr_emplaceIN8firebase9firestore9immutable4impl8LlrbNodeINS2_5model11DocumentKeyENS6_15MutableDocumentEE3RepENS_9allocatorISA_EEE21__on_zero_shared_weakEv, symObjAddr: 0x3C1C, symBinAddr: 0x10C50, symSize: 0x4 }
  - { offsetInCU: 0x3B086, offset: 0xEDBD3, size: 0x8, addend: 0x0, symName: __ZNSt3__14pairIN8firebase9firestore5model11DocumentKeyENS3_15MutableDocumentEEaSB7v160006ERKS6_, symObjAddr: 0x4360, symBinAddr: 0x11394, symSize: 0x58 }
  - { offsetInCU: 0x3B239, offset: 0xEDD86, size: 0x8, addend: 0x0, symName: __ZNSt3__14pairIN8firebase9firestore5model11DocumentKeyENS3_15MutableDocumentEEaSB7v160006EOS6_, symObjAddr: 0x4894, symBinAddr: 0x118C8, symSize: 0x58 }
  - { offsetInCU: 0x3B5FB, offset: 0xEE148, size: 0x8, addend: 0x0, symName: __ZNSt3__120__shared_ptr_emplaceIN8firebase9firestore9immutable4impl10FixedArrayINS_4pairINS2_5model11DocumentKeyENS7_15MutableDocumentEEEEENS_9allocatorISB_EEEC2B7v160006IJPKSA_RSH_EEESD_DpOT_, symObjAddr: 0x46C0, symBinAddr: 0x116F4, symSize: 0x54 }
  - { offsetInCU: 0x3B707, offset: 0xEE254, size: 0x8, addend: 0x0, symName: __ZN8firebase9firestore9immutable4impl10FixedArrayINSt3__14pairINS0_5model11DocumentKeyENS6_15MutableDocumentEEEEC2IPKS9_EET_SE_, symObjAddr: 0x47A8, symBinAddr: 0x117DC, symSize: 0x94 }
  - { offsetInCU: 0x3B82B, offset: 0xEE378, size: 0x8, addend: 0x0, symName: __ZNSt3__120__shared_ptr_emplaceIN8firebase9firestore9immutable4impl10FixedArrayINS_4pairINS2_5model11DocumentKeyENS7_15MutableDocumentEEEEENS_9allocatorISB_EEED1Ev, symObjAddr: 0x4714, symBinAddr: 0x11748, symSize: 0x14 }
  - { offsetInCU: 0x3B84E, offset: 0xEE39B, size: 0x8, addend: 0x0, symName: __ZNSt3__120__shared_ptr_emplaceIN8firebase9firestore9immutable4impl10FixedArrayINS_4pairINS2_5model11DocumentKeyENS7_15MutableDocumentEEEEENS_9allocatorISB_EEED1Ev, symObjAddr: 0x4714, symBinAddr: 0x11748, symSize: 0x14 }
  - { offsetInCU: 0x3B884, offset: 0xEE3D1, size: 0x8, addend: 0x0, symName: __ZNSt3__120__shared_ptr_emplaceIN8firebase9firestore9immutable4impl10FixedArrayINS_4pairINS2_5model11DocumentKeyENS7_15MutableDocumentEEEEENS_9allocatorISB_EEED0Ev, symObjAddr: 0x4728, symBinAddr: 0x1175C, symSize: 0x24 }
  - { offsetInCU: 0x3B95A, offset: 0xEE4A7, size: 0x8, addend: 0x0, symName: __ZNSt3__120__shared_ptr_emplaceIN8firebase9firestore9immutable4impl10FixedArrayINS_4pairINS2_5model11DocumentKeyENS7_15MutableDocumentEEEEENS_9allocatorISB_EEE16__on_zero_sharedEv, symObjAddr: 0x474C, symBinAddr: 0x11780, symSize: 0x58 }
  - { offsetInCU: 0x3BC1D, offset: 0xEE76A, size: 0x8, addend: 0x0, symName: __ZNSt3__120__shared_ptr_emplaceIN8firebase9firestore9immutable4impl10FixedArrayINS_4pairINS2_5model11DocumentKeyENS7_15MutableDocumentEEEEENS_9allocatorISB_EEE21__on_zero_shared_weakEv, symObjAddr: 0x47A4, symBinAddr: 0x117D8, symSize: 0x4 }
  - { offsetInCU: 0x3BC50, offset: 0xEE79D, size: 0x8, addend: 0x0, symName: __ZNSt3__120__shared_ptr_emplaceIN8firebase9firestore9immutable4impl10FixedArrayINS_4pairINS2_5model11DocumentKeyENS7_15MutableDocumentEEEEENS_9allocatorISB_EEE21__on_zero_shared_weakEv, symObjAddr: 0x47A4, symBinAddr: 0x117D8, symSize: 0x4 }
  - { offsetInCU: 0x3BC73, offset: 0xEE7C0, size: 0x8, addend: 0x0, symName: __ZNSt3__120__shared_ptr_emplaceIN8firebase9firestore9immutable4impl10FixedArrayINS_4pairINS2_5model11DocumentKeyENS7_15MutableDocumentEEEEENS_9allocatorISB_EEE21__on_zero_shared_weakEv, symObjAddr: 0x47A4, symBinAddr: 0x117D8, symSize: 0x4 }
  - { offsetInCU: 0x3BC96, offset: 0xEE7E3, size: 0x8, addend: 0x0, symName: __ZNSt3__120__shared_ptr_emplaceIN8firebase9firestore9immutable4impl10FixedArrayINS_4pairINS2_5model11DocumentKeyENS7_15MutableDocumentEEEEENS_9allocatorISB_EEE21__on_zero_shared_weakEv, symObjAddr: 0x47A4, symBinAddr: 0x117D8, symSize: 0x4 }
  - { offsetInCU: 0x3BCC4, offset: 0xEE811, size: 0x8, addend: 0x0, symName: __ZNSt3__120__shared_ptr_emplaceIN8firebase9firestore9immutable4impl10FixedArrayINS_4pairINS2_5model11DocumentKeyENS7_15MutableDocumentEEEEENS_9allocatorISB_EEE21__on_zero_shared_weakEv, symObjAddr: 0x47A4, symBinAddr: 0x117D8, symSize: 0x4 }
  - { offsetInCU: 0x3BCEC, offset: 0xEE839, size: 0x8, addend: 0x0, symName: __ZNSt3__120__shared_ptr_emplaceIN8firebase9firestore9immutable4impl10FixedArrayINS_4pairINS2_5model11DocumentKeyENS7_15MutableDocumentEEEEENS_9allocatorISB_EEE21__on_zero_shared_weakEv, symObjAddr: 0x47A4, symBinAddr: 0x117D8, symSize: 0x4 }
  - { offsetInCU: 0x3BD4C, offset: 0xEE899, size: 0x8, addend: 0x0, symName: __ZNSt3__15arrayINS_4pairIN8firebase9firestore5model11DocumentKeyENS4_15MutableDocumentEEELm25EED1Ev, symObjAddr: 0x483C, symBinAddr: 0x11870, symSize: 0x58 }
  - { offsetInCU: 0x3BFDB, offset: 0xEEB28, size: 0x8, addend: 0x0, symName: __ZN8firebase9firestore9immutable4impl10FixedArrayINSt3__14pairINS0_5model11DocumentKeyENS6_15MutableDocumentEEEEC2IPKS9_EET_SE_.cold.1, symObjAddr: 0x7518, symBinAddr: 0x176420, symSize: 0x4C }
  - { offsetInCU: 0x3C184, offset: 0xEECD1, size: 0x8, addend: 0x0, symName: __ZNSt3__110shared_ptrIKN8firebase9firestore5model12ResourcePathEEaSB7v160006EOS6_, symObjAddr: 0x48EC, symBinAddr: 0x11920, symSize: 0x64 }
  - { offsetInCU: 0x3C2DE, offset: 0xEEE2B, size: 0x8, addend: 0x0, symName: __ZNSt3__110shared_ptrIN8firebase9firestore5model11ObjectValueEEaSB7v160006EOS5_, symObjAddr: 0x4950, symBinAddr: 0x11984, symSize: 0x64 }
  - { offsetInCU: 0x3C66A, offset: 0xEF1B7, size: 0x8, addend: 0x0, symName: __ZN8firebase9firestore4util17internal_statusor12StatusOrDataIN4absl12lts_202206238optionalINS0_3api22LoadBundleTaskProgressEEEEC2EONS1_6StatusE, symObjAddr: 0x4B7C, symBinAddr: 0x11B00, symSize: 0x60 }
  - { offsetInCU: 0x3C7A3, offset: 0xEF2F0, size: 0x8, addend: 0x0, symName: __ZNSt3__110shared_ptrIKN8firebase9firestore9immutable4impl10FixedArrayINS_4pairINS2_5model11DocumentKeyENS7_8DocumentEEEEEED2B7v160006Ev, symObjAddr: 0x4CCC, symBinAddr: 0x11C50, symSize: 0x58 }
  - { offsetInCU: 0x3C835, offset: 0xEF382, size: 0x8, addend: 0x0, symName: __ZNSt3__110shared_ptrIN8firebase9firestore9immutable4impl8LlrbNodeINS2_5model11DocumentKeyENS6_8DocumentEE3RepEED2B7v160006Ev, symObjAddr: 0x4D24, symBinAddr: 0x11CA8, symSize: 0x58 }
  - { offsetInCU: 0x3C9A6, offset: 0xEF4F3, size: 0x8, addend: 0x0, symName: __ZNSt3__112__hash_tableINS_17__hash_value_typeINS_12basic_stringIcNS_11char_traitsIcEENS_9allocatorIcEEEEN8firebase9firestore9immutable9SortedSetINS9_5model11DocumentKeyENS9_4util10ComparatorISD_EEEEEENS_22__unordered_map_hasherIS7_SI_NS_4hashIS7_EENS_8equal_toIS7_EELb1EEENS_21__unordered_map_equalIS7_SI_SN_SL_Lb1EEENS5_ISI_EEE17__deallocate_nodeEPNS_16__hash_node_baseIPNS_11__hash_nodeISI_PvEEEE, symObjAddr: 0x4DB4, symBinAddr: 0x11D38, symSize: 0x4C }
  - { offsetInCU: 0x3CB56, offset: 0xEF6A3, size: 0x8, addend: 0x0, symName: __ZNSt3__116allocator_traitsINS_9allocatorINS_11__hash_nodeINS_17__hash_value_typeINS_12basic_stringIcNS_11char_traitsIcEENS1_IcEEEEN8firebase9firestore9immutable9SortedSetINSA_5model11DocumentKeyENSA_4util10ComparatorISE_EEEEEEPvEEEEE7destroyB7v160006INS_4pairIKS8_SI_EEvvEEvRSM_PT_, symObjAddr: 0x4E00, symBinAddr: 0x11D84, symSize: 0x3C }
  - { offsetInCU: 0x3CF8D, offset: 0xEFADA, size: 0x8, addend: 0x0, symName: __ZNKSt3__18equal_toINS_12basic_stringIcNS_11char_traitsIcEENS_9allocatorIcEEEEEclB7v160006ERKS6_S9_, symObjAddr: 0x5644, symBinAddr: 0x120D0, symSize: 0xB0 }
  - { offsetInCU: 0x3D152, offset: 0xEFC9F, size: 0x8, addend: 0x0, symName: __ZNSt3__112__hash_tableINS_17__hash_value_typeINS_12basic_stringIcNS_11char_traitsIcEENS_9allocatorIcEEEEN8firebase9firestore9immutable9SortedSetINS9_5model11DocumentKeyENS9_4util10ComparatorISD_EEEEEENS_22__unordered_map_hasherIS7_SI_NS_4hashIS7_EENS_8equal_toIS7_EELb1EEENS_21__unordered_map_equalIS7_SI_SN_SL_Lb1EEENS5_ISI_EEE21__construct_node_hashIRKNS_21piecewise_construct_tEJNS_5tupleIJRKS7_EEENSX_IJEEEEEENS_10unique_ptrINS_11__hash_nodeISI_PvEENS_22__hash_node_destructorINS5_IS15_EEEEEEmOT_DpOT0_, symObjAddr: 0x50C4, symBinAddr: 0x12048, symSize: 0x88 }
  - { offsetInCU: 0x3D429, offset: 0xEFF76, size: 0x8, addend: 0x0, symName: __ZNSt3__112__hash_tableINS_17__hash_value_typeINS_12basic_stringIcNS_11char_traitsIcEENS_9allocatorIcEEEEN8firebase9firestore9immutable9SortedSetINS9_5model11DocumentKeyENS9_4util10ComparatorISD_EEEEEENS_22__unordered_map_hasherIS7_SI_NS_4hashIS7_EENS_8equal_toIS7_EELb1EEENS_21__unordered_map_equalIS7_SI_SN_SL_Lb1EEENS5_ISI_EEE8__rehashILb1EEEvm, symObjAddr: 0x5750, symBinAddr: 0x121DC, symSize: 0xDC }
  - { offsetInCU: 0x3D50F, offset: 0xF005C, size: 0x8, addend: 0x0, symName: __ZNSt3__122__hash_node_destructorINS_9allocatorINS_11__hash_nodeINS_17__hash_value_typeINS_12basic_stringIcNS_11char_traitsIcEENS1_IcEEEEN8firebase9firestore9immutable9SortedSetINSA_5model11DocumentKeyENSA_4util10ComparatorISE_EEEEEEPvEEEEEclB7v160006EPSL_, symObjAddr: 0x5984, symBinAddr: 0x12410, symSize: 0x44 }
  - { offsetInCU: 0x3D88B, offset: 0xF03D8, size: 0x8, addend: 0x0, symName: __ZNSt3__14pairIKNS_12basic_stringIcNS_11char_traitsIcEENS_9allocatorIcEEEEN8firebase9firestore9immutable9SortedSetINS9_5model11DocumentKeyENS9_4util10ComparatorISD_EEEEEC1B7v160006IJRS7_EJEEENS_21piecewise_construct_tENS_5tupleIJDpT_EEENSM_IJDpT0_EEE, symObjAddr: 0x56F4, symBinAddr: 0x12180, symSize: 0x5C }
  - { offsetInCU: 0x3E49C, offset: 0xF0FE9, size: 0x8, addend: 0x0, symName: __ZNSt3__112__hash_tableINS_17__hash_value_typeINS_12basic_stringIcNS_11char_traitsIcEENS_9allocatorIcEEEEN8firebase9firestore9immutable9SortedSetINS9_5model11DocumentKeyENS9_4util10ComparatorISD_EEEEEENS_22__unordered_map_hasherIS7_SI_NS_4hashIS7_EENS_8equal_toIS7_EELb1EEENS_21__unordered_map_equalIS7_SI_SN_SL_Lb1EEENS5_ISI_EEE11__do_rehashILb1EEEvm, symObjAddr: 0x582C, symBinAddr: 0x122B8, symSize: 0x158 }
  - { offsetInCU: 0x3E924, offset: 0xF1471, size: 0x8, addend: 0x0, symName: __ZNSt3__122__hash_node_destructorINS_9allocatorINS_11__hash_nodeINS_17__hash_value_typeINS_12basic_stringIcNS_11char_traitsIcEENS1_IcEEEEN8firebase9firestore9immutable9SortedSetINSA_5model11DocumentKeyENSA_4util10ComparatorISE_EEEEEEPvEEEEEclB7v160006EPSL_, symObjAddr: 0x5984, symBinAddr: 0x12410, symSize: 0x44 }
  - { offsetInCU: 0x3EA00, offset: 0xF154D, size: 0x8, addend: 0x0, symName: __ZZN8firebase9firestore9immutable4impl14ArraySortedMapINS0_5model11DocumentKeyENS0_4util5EmptyENS6_10ComparatorIS5_EEE10EmptyArrayEvENKUlvE_clEv, symObjAddr: 0x5A68, symBinAddr: 0x124F4, symSize: 0x5C }
  - { offsetInCU: 0x3EAE7, offset: 0xF1634, size: 0x8, addend: 0x0, symName: __ZN8firebase9firestore9immutable4impl10FixedArrayINSt3__14pairINS0_5model11DocumentKeyENS0_4util5EmptyEEEEC2Ev, symObjAddr: 0x5AC4, symBinAddr: 0x12550, symSize: 0x68 }
  - { offsetInCU: 0x3EC01, offset: 0xF174E, size: 0x8, addend: 0x0, symName: __ZNSt3__110shared_ptrIKN8firebase9firestore9immutable4impl10FixedArrayINS_4pairINS2_5model11DocumentKeyENS2_4util5EmptyEEEEEEC2ISC_vEEPT_, symObjAddr: 0x5B2C, symBinAddr: 0x125B8, symSize: 0x7C }
  - { offsetInCU: 0x3F20A, offset: 0xF1D57, size: 0x8, addend: 0x0, symName: __ZNSt3__110unique_ptrIN8firebase9firestore9immutable4impl10FixedArrayINS_4pairINS2_5model11DocumentKeyENS2_4util5EmptyEEEEENS_14default_deleteISC_EEE5resetB7v160006EPSC_, symObjAddr: 0x5C48, symBinAddr: 0x126D4, symSize: 0x4C }
  - { offsetInCU: 0x3F3F3, offset: 0xF1F40, size: 0x8, addend: 0x0, symName: __ZNSt3__120__shared_ptr_pointerIPN8firebase9firestore9immutable4impl10FixedArrayINS_4pairINS2_5model11DocumentKeyENS2_4util5EmptyEEEEENS_10shared_ptrIKSC_E27__shared_ptr_default_deleteISF_SC_EENS_9allocatorISC_EEED1Ev, symObjAddr: 0x5BA8, symBinAddr: 0x12634, symSize: 0x4 }
  - { offsetInCU: 0x3F416, offset: 0xF1F63, size: 0x8, addend: 0x0, symName: __ZNSt3__120__shared_ptr_pointerIPN8firebase9firestore9immutable4impl10FixedArrayINS_4pairINS2_5model11DocumentKeyENS2_4util5EmptyEEEEENS_10shared_ptrIKSC_E27__shared_ptr_default_deleteISF_SC_EENS_9allocatorISC_EEED1Ev, symObjAddr: 0x5BA8, symBinAddr: 0x12634, symSize: 0x4 }
  - { offsetInCU: 0x3F44A, offset: 0xF1F97, size: 0x8, addend: 0x0, symName: __ZNSt3__120__shared_ptr_pointerIPN8firebase9firestore9immutable4impl10FixedArrayINS_4pairINS2_5model11DocumentKeyENS2_4util5EmptyEEEEENS_10shared_ptrIKSC_E27__shared_ptr_default_deleteISF_SC_EENS_9allocatorISC_EEED0Ev, symObjAddr: 0x5BAC, symBinAddr: 0x12638, symSize: 0x14 }
  - { offsetInCU: 0x3F4AC, offset: 0xF1FF9, size: 0x8, addend: 0x0, symName: __ZNSt3__120__shared_ptr_pointerIPN8firebase9firestore9immutable4impl10FixedArrayINS_4pairINS2_5model11DocumentKeyENS2_4util5EmptyEEEEENS_10shared_ptrIKSC_E27__shared_ptr_default_deleteISF_SC_EENS_9allocatorISC_EEE16__on_zero_sharedEv, symObjAddr: 0x5BC0, symBinAddr: 0x1264C, symSize: 0x8 }
  - { offsetInCU: 0x3F4DF, offset: 0xF202C, size: 0x8, addend: 0x0, symName: __ZNKSt3__114default_deleteIN8firebase9firestore9immutable4impl10FixedArrayINS_4pairINS2_5model11DocumentKeyENS2_4util5EmptyEEEEEEclB7v160006EPSC_, symObjAddr: 0x5C08, symBinAddr: 0x12694, symSize: 0x40 }
  - { offsetInCU: 0x3F673, offset: 0xF21C0, size: 0x8, addend: 0x0, symName: __ZNKSt3__120__shared_ptr_pointerIPN8firebase9firestore9immutable4impl10FixedArrayINS_4pairINS2_5model11DocumentKeyENS2_4util5EmptyEEEEENS_10shared_ptrIKSC_E27__shared_ptr_default_deleteISF_SC_EENS_9allocatorISC_EEE13__get_deleterERKSt9type_info, symObjAddr: 0x5BC8, symBinAddr: 0x12654, symSize: 0x3C }
  - { offsetInCU: 0x3F710, offset: 0xF225D, size: 0x8, addend: 0x0, symName: __ZNSt3__120__shared_ptr_pointerIPN8firebase9firestore9immutable4impl10FixedArrayINS_4pairINS2_5model11DocumentKeyENS2_4util5EmptyEEEEENS_10shared_ptrIKSC_E27__shared_ptr_default_deleteISF_SC_EENS_9allocatorISC_EEE21__on_zero_shared_weakEv, symObjAddr: 0x5C04, symBinAddr: 0x12690, symSize: 0x4 }
  - { offsetInCU: 0x3F743, offset: 0xF2290, size: 0x8, addend: 0x0, symName: __ZNSt3__120__shared_ptr_pointerIPN8firebase9firestore9immutable4impl10FixedArrayINS_4pairINS2_5model11DocumentKeyENS2_4util5EmptyEEEEENS_10shared_ptrIKSC_E27__shared_ptr_default_deleteISF_SC_EENS_9allocatorISC_EEE21__on_zero_shared_weakEv, symObjAddr: 0x5C04, symBinAddr: 0x12690, symSize: 0x4 }
  - { offsetInCU: 0x3F766, offset: 0xF22B3, size: 0x8, addend: 0x0, symName: __ZNSt3__120__shared_ptr_pointerIPN8firebase9firestore9immutable4impl10FixedArrayINS_4pairINS2_5model11DocumentKeyENS2_4util5EmptyEEEEENS_10shared_ptrIKSC_E27__shared_ptr_default_deleteISF_SC_EENS_9allocatorISC_EEE21__on_zero_shared_weakEv, symObjAddr: 0x5C04, symBinAddr: 0x12690, symSize: 0x4 }
  - { offsetInCU: 0x3F792, offset: 0xF22DF, size: 0x8, addend: 0x0, symName: __ZNSt3__120__shared_ptr_pointerIPN8firebase9firestore9immutable4impl10FixedArrayINS_4pairINS2_5model11DocumentKeyENS2_4util5EmptyEEEEENS_10shared_ptrIKSC_E27__shared_ptr_default_deleteISF_SC_EENS_9allocatorISC_EEE21__on_zero_shared_weakEv, symObjAddr: 0x5C04, symBinAddr: 0x12690, symSize: 0x4 }
  - { offsetInCU: 0x3F7B8, offset: 0xF2305, size: 0x8, addend: 0x0, symName: __ZNSt3__120__shared_ptr_pointerIPN8firebase9firestore9immutable4impl10FixedArrayINS_4pairINS2_5model11DocumentKeyENS2_4util5EmptyEEEEENS_10shared_ptrIKSC_E27__shared_ptr_default_deleteISF_SC_EENS_9allocatorISC_EEE21__on_zero_shared_weakEv, symObjAddr: 0x5C04, symBinAddr: 0x12690, symSize: 0x4 }
  - { offsetInCU: 0x3F870, offset: 0xF23BD, size: 0x8, addend: 0x0, symName: __ZNSt3__112__hash_tableINS_17__hash_value_typeINS_12basic_stringIcNS_11char_traitsIcEENS_9allocatorIcEEEEN8firebase9firestore9immutable9SortedSetINS9_5model11DocumentKeyENS9_4util10ComparatorISD_EEEEEENS_22__unordered_map_hasherIS7_SI_NS_4hashIS7_EENS_8equal_toIS7_EELb1EEENS_21__unordered_map_equalIS7_SI_SN_SL_Lb1EEENS5_ISI_EEE21__construct_node_hashIRKS7_JSH_EEENS_10unique_ptrINS_11__hash_nodeISI_PvEENS_22__hash_node_destructorINS5_ISZ_EEEEEEmOT_DpOT0_, symObjAddr: 0x5F0C, symBinAddr: 0x12998, symSize: 0x98 }
  - { offsetInCU: 0x3FC5D, offset: 0xF27AA, size: 0x8, addend: 0x0, symName: __ZNSt3__14pairIKNS_12basic_stringIcNS_11char_traitsIcEENS_9allocatorIcEEEEN8firebase9firestore9immutable9SortedSetINS9_5model11DocumentKeyENS9_4util10ComparatorISD_EEEEEC2B7v160006IRS7_SH_LPv0EEEOT_OT0_, symObjAddr: 0x5FA4, symBinAddr: 0x12A30, symSize: 0x60 }
  - { offsetInCU: 0x3FFBD, offset: 0xF2B0A, size: 0x8, addend: 0x0, symName: __ZN8firebase9firestore9immutable4impl13TreeSortedMapINS0_5model11DocumentKeyENS0_4util5EmptyENS6_10ComparatorIS5_EEE6CreateINS2_14ArraySortedMapIS5_S7_S9_EEEESA_RKT_RKS9_, symObjAddr: 0x615C, symBinAddr: 0x12BE8, symSize: 0x148 }
  - { offsetInCU: 0x40641, offset: 0xF318E, size: 0x8, addend: 0x0, symName: __ZNK8firebase9firestore9immutable4impl13TreeSortedMapINS0_5model11DocumentKeyENS0_4util5EmptyENS6_10ComparatorIS5_EEE6insertERKS5_RKS7_, symObjAddr: 0x62A4, symBinAddr: 0x12D30, symSize: 0x50 }
  - { offsetInCU: 0x4082E, offset: 0xF337B, size: 0x8, addend: 0x0, symName: __ZNK8firebase9firestore9immutable4impl14ArraySortedMapINS0_5model11DocumentKeyENS0_4util5EmptyENS6_10ComparatorIS5_EEE6insertERKS5_RKS7_, symObjAddr: 0x62F4, symBinAddr: 0x12D80, symSize: 0x1EC }
  - { offsetInCU: 0x41355, offset: 0xF3EA2, size: 0x8, addend: 0x0, symName: __ZNK8firebase9firestore9immutable4impl8LlrbNodeINS0_5model11DocumentKeyENS0_4util5EmptyEE11InnerInsertINS6_10ComparatorIS5_EEEES8_RKS5_RKS7_RKT_, symObjAddr: 0x67B8, symBinAddr: 0x13244, symSize: 0x278 }
  - { offsetInCU: 0x426DF, offset: 0xF522C, size: 0x8, addend: 0x0, symName: __ZN8firebase9firestore9immutable4impl10FixedArrayINSt3__14pairINS0_5model11DocumentKeyENS0_4util5EmptyEEEE6appendEOSA_, symObjAddr: 0x70D8, symBinAddr: 0x13B64, symSize: 0x90 }
  - { offsetInCU: 0x4295F, offset: 0xF54AC, size: 0x8, addend: 0x0, symName: __ZN8firebase9firestore9immutable4impl10FixedArrayINSt3__14pairINS0_5model11DocumentKeyENS0_4util5EmptyEEEE6appendIPKSA_EEvT_SF_, symObjAddr: 0x7168, symBinAddr: 0x13BF4, symSize: 0xAC }
  - { offsetInCU: 0x42C45, offset: 0xF5792, size: 0x8, addend: 0x0, symName: __ZNSt3__110shared_ptrIN8firebase9firestore9immutable4impl10FixedArrayINS_4pairINS2_5model11DocumentKeyENS2_4util5EmptyEEEEEED2B7v160006Ev, symObjAddr: 0x74C0, symBinAddr: 0x13F4C, symSize: 0x58 }
  - { offsetInCU: 0x42CD9, offset: 0xF5826, size: 0x8, addend: 0x0, symName: __ZZN8firebase9firestore9immutable4impl8LlrbNodeINS0_5model11DocumentKeyENS0_4util5EmptyEE8EmptyRepEvENKUlvE_clEv, symObjAddr: 0x655C, symBinAddr: 0x12FE8, symSize: 0xA8 }
  - { offsetInCU: 0x430C2, offset: 0xF5C0F, size: 0x8, addend: 0x0, symName: __ZNSt3__110shared_ptrIN8firebase9firestore9immutable4impl8LlrbNodeINS2_5model11DocumentKeyENS2_4util5EmptyEE3RepEEC2ISB_vEEPT_, symObjAddr: 0x667C, symBinAddr: 0x13108, symSize: 0x70 }
  - { offsetInCU: 0x43214, offset: 0xF5D61, size: 0x8, addend: 0x0, symName: __ZNSt3__110shared_ptrIN8firebase9firestore9immutable4impl8LlrbNodeINS2_5model11DocumentKeyENS2_4util5EmptyEE3RepEEaSB7v160006ERKSC_, symObjAddr: 0x6604, symBinAddr: 0x13090, symSize: 0x78 }
  - { offsetInCU: 0x435BC, offset: 0xF6109, size: 0x8, addend: 0x0, symName: __ZNKSt3__114default_deleteIN8firebase9firestore9immutable4impl8LlrbNodeINS2_5model11DocumentKeyENS2_4util5EmptyEE3RepEEclB7v160006EPSB_, symObjAddr: 0x674C, symBinAddr: 0x131D8, symSize: 0x3C }
  - { offsetInCU: 0x437AD, offset: 0xF62FA, size: 0x8, addend: 0x0, symName: __ZNSt3__120__shared_ptr_pointerIPN8firebase9firestore9immutable4impl8LlrbNodeINS2_5model11DocumentKeyENS2_4util5EmptyEE3RepENS_10shared_ptrISB_E27__shared_ptr_default_deleteISB_SB_EENS_9allocatorISB_EEED1Ev, symObjAddr: 0x66EC, symBinAddr: 0x13178, symSize: 0x4 }
  - { offsetInCU: 0x437D0, offset: 0xF631D, size: 0x8, addend: 0x0, symName: __ZNSt3__120__shared_ptr_pointerIPN8firebase9firestore9immutable4impl8LlrbNodeINS2_5model11DocumentKeyENS2_4util5EmptyEE3RepENS_10shared_ptrISB_E27__shared_ptr_default_deleteISB_SB_EENS_9allocatorISB_EEED1Ev, symObjAddr: 0x66EC, symBinAddr: 0x13178, symSize: 0x4 }
  - { offsetInCU: 0x43804, offset: 0xF6351, size: 0x8, addend: 0x0, symName: __ZNSt3__120__shared_ptr_pointerIPN8firebase9firestore9immutable4impl8LlrbNodeINS2_5model11DocumentKeyENS2_4util5EmptyEE3RepENS_10shared_ptrISB_E27__shared_ptr_default_deleteISB_SB_EENS_9allocatorISB_EEED0Ev, symObjAddr: 0x66F0, symBinAddr: 0x1317C, symSize: 0x14 }
  - { offsetInCU: 0x43866, offset: 0xF63B3, size: 0x8, addend: 0x0, symName: __ZNSt3__120__shared_ptr_pointerIPN8firebase9firestore9immutable4impl8LlrbNodeINS2_5model11DocumentKeyENS2_4util5EmptyEE3RepENS_10shared_ptrISB_E27__shared_ptr_default_deleteISB_SB_EENS_9allocatorISB_EEE16__on_zero_sharedEv, symObjAddr: 0x6704, symBinAddr: 0x13190, symSize: 0x8 }
  - { offsetInCU: 0x43899, offset: 0xF63E6, size: 0x8, addend: 0x0, symName: __ZNKSt3__120__shared_ptr_pointerIPN8firebase9firestore9immutable4impl8LlrbNodeINS2_5model11DocumentKeyENS2_4util5EmptyEE3RepENS_10shared_ptrISB_E27__shared_ptr_default_deleteISB_SB_EENS_9allocatorISB_EEE13__get_deleterERKSt9type_info, symObjAddr: 0x670C, symBinAddr: 0x13198, symSize: 0x3C }
  - { offsetInCU: 0x43936, offset: 0xF6483, size: 0x8, addend: 0x0, symName: __ZNSt3__120__shared_ptr_pointerIPN8firebase9firestore9immutable4impl8LlrbNodeINS2_5model11DocumentKeyENS2_4util5EmptyEE3RepENS_10shared_ptrISB_E27__shared_ptr_default_deleteISB_SB_EENS_9allocatorISB_EEE21__on_zero_shared_weakEv, symObjAddr: 0x6748, symBinAddr: 0x131D4, symSize: 0x4 }
  - { offsetInCU: 0x43969, offset: 0xF64B6, size: 0x8, addend: 0x0, symName: __ZNSt3__120__shared_ptr_pointerIPN8firebase9firestore9immutable4impl8LlrbNodeINS2_5model11DocumentKeyENS2_4util5EmptyEE3RepENS_10shared_ptrISB_E27__shared_ptr_default_deleteISB_SB_EENS_9allocatorISB_EEE21__on_zero_shared_weakEv, symObjAddr: 0x6748, symBinAddr: 0x131D4, symSize: 0x4 }
  - { offsetInCU: 0x4398C, offset: 0xF64D9, size: 0x8, addend: 0x0, symName: __ZNSt3__120__shared_ptr_pointerIPN8firebase9firestore9immutable4impl8LlrbNodeINS2_5model11DocumentKeyENS2_4util5EmptyEE3RepENS_10shared_ptrISB_E27__shared_ptr_default_deleteISB_SB_EENS_9allocatorISB_EEE21__on_zero_shared_weakEv, symObjAddr: 0x6748, symBinAddr: 0x131D4, symSize: 0x4 }
  - { offsetInCU: 0x439B8, offset: 0xF6505, size: 0x8, addend: 0x0, symName: __ZNSt3__120__shared_ptr_pointerIPN8firebase9firestore9immutable4impl8LlrbNodeINS2_5model11DocumentKeyENS2_4util5EmptyEE3RepENS_10shared_ptrISB_E27__shared_ptr_default_deleteISB_SB_EENS_9allocatorISB_EEE21__on_zero_shared_weakEv, symObjAddr: 0x6748, symBinAddr: 0x131D4, symSize: 0x4 }
  - { offsetInCU: 0x439DE, offset: 0xF652B, size: 0x8, addend: 0x0, symName: __ZNSt3__120__shared_ptr_pointerIPN8firebase9firestore9immutable4impl8LlrbNodeINS2_5model11DocumentKeyENS2_4util5EmptyEE3RepENS_10shared_ptrISB_E27__shared_ptr_default_deleteISB_SB_EENS_9allocatorISB_EEE21__on_zero_shared_weakEv, symObjAddr: 0x6748, symBinAddr: 0x131D4, symSize: 0x4 }
  - { offsetInCU: 0x43A3C, offset: 0xF6589, size: 0x8, addend: 0x0, symName: __ZN8firebase9firestore9immutable4impl8LlrbNodeINS0_5model11DocumentKeyENS0_4util5EmptyEE3RepD1Ev, symObjAddr: 0x6788, symBinAddr: 0x13214, symSize: 0x30 }
  - { offsetInCU: 0x43F67, offset: 0xF6AB4, size: 0x8, addend: 0x0, symName: __ZNK8firebase9firestore9immutable4impl8LlrbNodeINS0_5model11DocumentKeyENS0_4util5EmptyEE5CloneEv, symObjAddr: 0x6A30, symBinAddr: 0x134BC, symSize: 0xF4 }
  - { offsetInCU: 0x446A2, offset: 0xF71EF, size: 0x8, addend: 0x0, symName: __ZN8firebase9firestore9immutable4impl8LlrbNodeINS0_5model11DocumentKeyENS0_4util5EmptyEE5FixUpEv, symObjAddr: 0x6B24, symBinAddr: 0x135B0, symSize: 0xBC }
  - { offsetInCU: 0x44AB1, offset: 0xF75FE, size: 0x8, addend: 0x0, symName: __ZN8firebase9firestore9immutable4impl8LlrbNodeINS0_5model11DocumentKeyENS0_4util5EmptyEE10RotateLeftEv, symObjAddr: 0x6C50, symBinAddr: 0x136DC, symSize: 0x1A8 }
  - { offsetInCU: 0x457B6, offset: 0xF8303, size: 0x8, addend: 0x0, symName: __ZN8firebase9firestore9immutable4impl8LlrbNodeINS0_5model11DocumentKeyENS0_4util5EmptyEE11RotateRightEv, symObjAddr: 0x6DF8, symBinAddr: 0x13884, symSize: 0x1A8 }
  - { offsetInCU: 0x464C2, offset: 0xF900F, size: 0x8, addend: 0x0, symName: __ZN8firebase9firestore9immutable4impl8LlrbNodeINS0_5model11DocumentKeyENS0_4util5EmptyEE9FlipColorEv, symObjAddr: 0x6FA0, symBinAddr: 0x13A2C, symSize: 0x138 }
  - { offsetInCU: 0x46A9E, offset: 0xF95EB, size: 0x8, addend: 0x0, symName: __ZNSt3__120__shared_ptr_emplaceIN8firebase9firestore9immutable4impl8LlrbNodeINS2_5model11DocumentKeyENS2_4util5EmptyEE3RepENS_9allocatorISB_EEED1Ev, symObjAddr: 0x6BE0, symBinAddr: 0x1366C, symSize: 0x14 }
  - { offsetInCU: 0x46AC1, offset: 0xF960E, size: 0x8, addend: 0x0, symName: __ZNSt3__120__shared_ptr_emplaceIN8firebase9firestore9immutable4impl8LlrbNodeINS2_5model11DocumentKeyENS2_4util5EmptyEE3RepENS_9allocatorISB_EEED1Ev, symObjAddr: 0x6BE0, symBinAddr: 0x1366C, symSize: 0x14 }
  - { offsetInCU: 0x46AF7, offset: 0xF9644, size: 0x8, addend: 0x0, symName: __ZNSt3__120__shared_ptr_emplaceIN8firebase9firestore9immutable4impl8LlrbNodeINS2_5model11DocumentKeyENS2_4util5EmptyEE3RepENS_9allocatorISB_EEED0Ev, symObjAddr: 0x6BF4, symBinAddr: 0x13680, symSize: 0x24 }
  - { offsetInCU: 0x46B70, offset: 0xF96BD, size: 0x8, addend: 0x0, symName: __ZNSt3__120__shared_ptr_emplaceIN8firebase9firestore9immutable4impl8LlrbNodeINS2_5model11DocumentKeyENS2_4util5EmptyEE3RepENS_9allocatorISB_EEE16__on_zero_sharedEv, symObjAddr: 0x6C18, symBinAddr: 0x136A4, symSize: 0x34 }
  - { offsetInCU: 0x46DB9, offset: 0xF9906, size: 0x8, addend: 0x0, symName: __ZNSt3__120__shared_ptr_emplaceIN8firebase9firestore9immutable4impl8LlrbNodeINS2_5model11DocumentKeyENS2_4util5EmptyEE3RepENS_9allocatorISB_EEE21__on_zero_shared_weakEv, symObjAddr: 0x6C4C, symBinAddr: 0x136D8, symSize: 0x4 }
  - { offsetInCU: 0x46DEC, offset: 0xF9939, size: 0x8, addend: 0x0, symName: __ZNSt3__120__shared_ptr_emplaceIN8firebase9firestore9immutable4impl8LlrbNodeINS2_5model11DocumentKeyENS2_4util5EmptyEE3RepENS_9allocatorISB_EEE21__on_zero_shared_weakEv, symObjAddr: 0x6C4C, symBinAddr: 0x136D8, symSize: 0x4 }
  - { offsetInCU: 0x46E0F, offset: 0xF995C, size: 0x8, addend: 0x0, symName: __ZNSt3__120__shared_ptr_emplaceIN8firebase9firestore9immutable4impl8LlrbNodeINS2_5model11DocumentKeyENS2_4util5EmptyEE3RepENS_9allocatorISB_EEE21__on_zero_shared_weakEv, symObjAddr: 0x6C4C, symBinAddr: 0x136D8, symSize: 0x4 }
  - { offsetInCU: 0x46E32, offset: 0xF997F, size: 0x8, addend: 0x0, symName: __ZNSt3__120__shared_ptr_emplaceIN8firebase9firestore9immutable4impl8LlrbNodeINS2_5model11DocumentKeyENS2_4util5EmptyEE3RepENS_9allocatorISB_EEE21__on_zero_shared_weakEv, symObjAddr: 0x6C4C, symBinAddr: 0x136D8, symSize: 0x4 }
  - { offsetInCU: 0x46E5F, offset: 0xF99AC, size: 0x8, addend: 0x0, symName: __ZNSt3__120__shared_ptr_emplaceIN8firebase9firestore9immutable4impl8LlrbNodeINS2_5model11DocumentKeyENS2_4util5EmptyEE3RepENS_9allocatorISB_EEE21__on_zero_shared_weakEv, symObjAddr: 0x6C4C, symBinAddr: 0x136D8, symSize: 0x4 }
  - { offsetInCU: 0x46E86, offset: 0xF99D3, size: 0x8, addend: 0x0, symName: __ZNSt3__120__shared_ptr_emplaceIN8firebase9firestore9immutable4impl8LlrbNodeINS2_5model11DocumentKeyENS2_4util5EmptyEE3RepENS_9allocatorISB_EEE21__on_zero_shared_weakEv, symObjAddr: 0x6C4C, symBinAddr: 0x136D8, symSize: 0x4 }
  - { offsetInCU: 0x4727C, offset: 0xF9DC9, size: 0x8, addend: 0x0, symName: __ZNSt3__120__shared_ptr_emplaceIN8firebase9firestore9immutable4impl10FixedArrayINS_4pairINS2_5model11DocumentKeyENS2_4util5EmptyEEEEENS_9allocatorISC_EEEC2B7v160006IJPKSB_RSI_EEESE_DpOT_, symObjAddr: 0x7304, symBinAddr: 0x13D90, symSize: 0x54 }
  - { offsetInCU: 0x47388, offset: 0xF9ED5, size: 0x8, addend: 0x0, symName: __ZN8firebase9firestore9immutable4impl10FixedArrayINSt3__14pairINS0_5model11DocumentKeyENS0_4util5EmptyEEEEC2IPKSA_EET_SF_, symObjAddr: 0x73C4, symBinAddr: 0x13E50, symSize: 0xA0 }
  - { offsetInCU: 0x47611, offset: 0xFA15E, size: 0x8, addend: 0x0, symName: __ZNSt3__120__shared_ptr_emplaceIN8firebase9firestore9immutable4impl10FixedArrayINS_4pairINS2_5model11DocumentKeyENS2_4util5EmptyEEEEENS_9allocatorISC_EEED1Ev, symObjAddr: 0x7358, symBinAddr: 0x13DE4, symSize: 0x14 }
  - { offsetInCU: 0x47634, offset: 0xFA181, size: 0x8, addend: 0x0, symName: __ZNSt3__120__shared_ptr_emplaceIN8firebase9firestore9immutable4impl10FixedArrayINS_4pairINS2_5model11DocumentKeyENS2_4util5EmptyEEEEENS_9allocatorISC_EEED1Ev, symObjAddr: 0x7358, symBinAddr: 0x13DE4, symSize: 0x14 }
  - { offsetInCU: 0x4766A, offset: 0xFA1B7, size: 0x8, addend: 0x0, symName: __ZNSt3__120__shared_ptr_emplaceIN8firebase9firestore9immutable4impl10FixedArrayINS_4pairINS2_5model11DocumentKeyENS2_4util5EmptyEEEEENS_9allocatorISC_EEED0Ev, symObjAddr: 0x736C, symBinAddr: 0x13DF8, symSize: 0x24 }
  - { offsetInCU: 0x476CF, offset: 0xFA21C, size: 0x8, addend: 0x0, symName: __ZNSt3__120__shared_ptr_emplaceIN8firebase9firestore9immutable4impl10FixedArrayINS_4pairINS2_5model11DocumentKeyENS2_4util5EmptyEEEEENS_9allocatorISC_EEE16__on_zero_sharedEv, symObjAddr: 0x7390, symBinAddr: 0x13E1C, symSize: 0x30 }
  - { offsetInCU: 0x47866, offset: 0xFA3B3, size: 0x8, addend: 0x0, symName: __ZNSt3__120__shared_ptr_emplaceIN8firebase9firestore9immutable4impl10FixedArrayINS_4pairINS2_5model11DocumentKeyENS2_4util5EmptyEEEEENS_9allocatorISC_EEE21__on_zero_shared_weakEv, symObjAddr: 0x73C0, symBinAddr: 0x13E4C, symSize: 0x4 }
  - { offsetInCU: 0x47899, offset: 0xFA3E6, size: 0x8, addend: 0x0, symName: __ZNSt3__120__shared_ptr_emplaceIN8firebase9firestore9immutable4impl10FixedArrayINS_4pairINS2_5model11DocumentKeyENS2_4util5EmptyEEEEENS_9allocatorISC_EEE21__on_zero_shared_weakEv, symObjAddr: 0x73C0, symBinAddr: 0x13E4C, symSize: 0x4 }
  - { offsetInCU: 0x478BC, offset: 0xFA409, size: 0x8, addend: 0x0, symName: __ZNSt3__120__shared_ptr_emplaceIN8firebase9firestore9immutable4impl10FixedArrayINS_4pairINS2_5model11DocumentKeyENS2_4util5EmptyEEEEENS_9allocatorISC_EEE21__on_zero_shared_weakEv, symObjAddr: 0x73C0, symBinAddr: 0x13E4C, symSize: 0x4 }
  - { offsetInCU: 0x478DF, offset: 0xFA42C, size: 0x8, addend: 0x0, symName: __ZNSt3__120__shared_ptr_emplaceIN8firebase9firestore9immutable4impl10FixedArrayINS_4pairINS2_5model11DocumentKeyENS2_4util5EmptyEEEEENS_9allocatorISC_EEE21__on_zero_shared_weakEv, symObjAddr: 0x73C0, symBinAddr: 0x13E4C, symSize: 0x4 }
  - { offsetInCU: 0x4790D, offset: 0xFA45A, size: 0x8, addend: 0x0, symName: __ZNSt3__120__shared_ptr_emplaceIN8firebase9firestore9immutable4impl10FixedArrayINS_4pairINS2_5model11DocumentKeyENS2_4util5EmptyEEEEENS_9allocatorISC_EEE21__on_zero_shared_weakEv, symObjAddr: 0x73C0, symBinAddr: 0x13E4C, symSize: 0x4 }
  - { offsetInCU: 0x47935, offset: 0xFA482, size: 0x8, addend: 0x0, symName: __ZNSt3__120__shared_ptr_emplaceIN8firebase9firestore9immutable4impl10FixedArrayINS_4pairINS2_5model11DocumentKeyENS2_4util5EmptyEEEEENS_9allocatorISC_EEE21__on_zero_shared_weakEv, symObjAddr: 0x73C0, symBinAddr: 0x13E4C, symSize: 0x4 }
  - { offsetInCU: 0x4688, offset: 0xFEC2D, size: 0x8, addend: 0x0, symName: __ZNSt3__1L19piecewise_constructE, symObjAddr: 0xD1A1, symBinAddr: 0x17E721, symSize: 0x0 }
  - { offsetInCU: 0x12005, offset: 0x10C5AA, size: 0x8, addend: 0x0, symName: __ZNSt3__114__copy_alignedB7v160006INS_6vectorIbNS_9allocatorIbEEEELb0EEENS_14__bit_iteratorIT_Lb0EXLi0EEEENS5_IS6_XT0_EXLi0EEEES8_S7_, symObjAddr: 0x5084, symBinAddr: 0x18F10, symSize: 0x154 }
  - { offsetInCU: 0x1236B, offset: 0x10C910, size: 0x8, addend: 0x0, symName: __ZNSt3__116__copy_unalignedB7v160006INS_6vectorIbNS_9allocatorIbEEEELb0EEENS_14__bit_iteratorIT_Lb0EXLi0EEEENS5_IS6_XT0_EXLi0EEEES8_S7_, symObjAddr: 0x51D8, symBinAddr: 0x19064, symSize: 0x234 }
  - { offsetInCU: 0x123EA, offset: 0x10C98F, size: 0x8, addend: 0x0, symName: __ZNSt3__116__copy_unalignedB7v160006INS_6vectorIbNS_9allocatorIbEEEELb0EEENS_14__bit_iteratorIT_Lb0EXLi0EEEENS5_IS6_XT0_EXLi0EEEES8_S7_, symObjAddr: 0x51D8, symBinAddr: 0x19064, symSize: 0x234 }
  - { offsetInCU: 0x1A6B2, offset: 0x114C57, size: 0x8, addend: 0x0, symName: __ZNSt3__119__allocate_at_leastB7v160006INS_9allocatorImEEEENS_19__allocation_resultINS_16allocator_traitsIT_E7pointerEEERS5_m, symObjAddr: 0x5050, symBinAddr: 0x18EDC, symSize: 0x34 }
  - { offsetInCU: 0x1A750, offset: 0x114CF5, size: 0x8, addend: 0x0, symName: __ZNSt3__114__copy_alignedB7v160006INS_6vectorIbNS_9allocatorIbEEEELb0EEENS_14__bit_iteratorIT_Lb0EXLi0EEEENS5_IS6_XT0_EXLi0EEEES8_S7_, symObjAddr: 0x5084, symBinAddr: 0x18F10, symSize: 0x154 }
  - { offsetInCU: 0x1AEBD, offset: 0x115462, size: 0x8, addend: 0x0, symName: __ZNSt3__119__allocate_at_leastB7v160006INS_9allocatorIPN8nlohmann10basic_jsonINS_3mapENS_6vectorENS_12basic_stringIcNS_11char_traitsIcEENS1_IcEEEEbxydS1_NS2_14adl_serializerENS5_IhNS1_IhEEEEEEEEEENS_19__allocation_resultINS_16allocator_traitsIT_E7pointerEEERSJ_m, symObjAddr: 0x6618, symBinAddr: 0x1A458, symSize: 0x34 }
  - { offsetInCU: 0x1AF5B, offset: 0x115500, size: 0x8, addend: 0x0, symName: __ZNK8nlohmann6detail9iter_implINS_10basic_jsonINSt3__13mapENS3_6vectorENS3_12basic_stringIcNS3_11char_traitsIcEENS3_9allocatorIcEEEEbxydS9_NS_14adl_serializerENS5_IhNS9_IhEEEEEEEptEv, symObjAddr: 0x664C, symBinAddr: 0x1A48C, symSize: 0x114 }
  - { offsetInCU: 0x1B015, offset: 0x1155BA, size: 0x8, addend: 0x0, symName: __ZNSt3__119__allocate_at_leastB7v160006INS_9allocatorIN8nlohmann10basic_jsonINS_3mapENS_6vectorENS_12basic_stringIcNS_11char_traitsIcEENS1_IcEEEEbxydS1_NS2_14adl_serializerENS5_IhNS1_IhEEEEEEEEEENS_19__allocation_resultINS_16allocator_traitsIT_E7pointerEEERSI_m, symObjAddr: 0x6378, symBinAddr: 0x1A1B8, symSize: 0x34 }
  - { offsetInCU: 0x1B0B3, offset: 0x115658, size: 0x8, addend: 0x0, symName: __ZNSt3__142__uninitialized_allocator_move_if_noexceptB7v160006INS_9allocatorIN8nlohmann10basic_jsonINS_3mapENS_6vectorENS_12basic_stringIcNS_11char_traitsIcEENS1_IcEEEEbxydS1_NS2_14adl_serializerENS5_IhNS1_IhEEEEEEEENS_16reverse_iteratorIPSE_EESI_SI_EET2_RT_T0_T1_SJ_, symObjAddr: 0x63AC, symBinAddr: 0x1A1EC, symSize: 0xC0 }
  - { offsetInCU: 0x1B10D, offset: 0x1156B2, size: 0x8, addend: 0x0, symName: __ZNSt3__142__uninitialized_allocator_move_if_noexceptB7v160006INS_9allocatorIN8nlohmann10basic_jsonINS_3mapENS_6vectorENS_12basic_stringIcNS_11char_traitsIcEENS1_IcEEEEbxydS1_NS2_14adl_serializerENS5_IhNS1_IhEEEEEEEENS_16reverse_iteratorIPSE_EESI_SI_EET2_RT_T0_T1_SJ_, symObjAddr: 0x63AC, symBinAddr: 0x1A1EC, symSize: 0xC0 }
  - { offsetInCU: 0x1B365, offset: 0x11590A, size: 0x8, addend: 0x0, symName: __ZNSt3__119__allocator_destroyB7v160006INS_9allocatorIN8nlohmann10basic_jsonINS_3mapENS_6vectorENS_12basic_stringIcNS_11char_traitsIcEENS1_IcEEEEbxydS1_NS2_14adl_serializerENS5_IhNS1_IhEEEEEEEENS_16reverse_iteratorINSG_IPSE_EEEESJ_EEvRT_T0_T1_, symObjAddr: 0x6514, symBinAddr: 0x1A354, symSize: 0x64 }
  - { offsetInCU: 0x1BDAF, offset: 0x116354, size: 0x8, addend: 0x0, symName: __ZNSt3__127__tree_balance_after_insertB7v160006IPNS_16__tree_node_baseIPvEEEEvT_S5_, symObjAddr: 0x70B8, symBinAddr: 0x1AEF8, symSize: 0x198 }
  - { offsetInCU: 0x1C521, offset: 0x116AC6, size: 0x8, addend: 0x0, symName: __ZNSt3__130__uninitialized_allocator_copyB7v160006INS_9allocatorIN8nlohmann10basic_jsonINS_3mapENS_6vectorENS_12basic_stringIcNS_11char_traitsIcEENS1_IcEEEEbxydS1_NS2_14adl_serializerENS5_IhNS1_IhEEEEEEEEPSE_SG_SG_EET2_RT_T0_T1_SH_, symObjAddr: 0x7468, symBinAddr: 0x1B2A8, symSize: 0xA0 }
  - { offsetInCU: 0x1C73D, offset: 0x116CE2, size: 0x8, addend: 0x0, symName: __ZNSt3__119__allocator_destroyB7v160006INS_9allocatorIN8nlohmann10basic_jsonINS_3mapENS_6vectorENS_12basic_stringIcNS_11char_traitsIcEENS1_IcEEEEbxydS1_NS2_14adl_serializerENS5_IhNS1_IhEEEEEEEENS_16reverse_iteratorIPSE_EESI_EEvRT_T0_T1_, symObjAddr: 0x7550, symBinAddr: 0x1B390, symSize: 0x54 }
  - { offsetInCU: 0x1CEBE, offset: 0x117463, size: 0x8, addend: 0x0, symName: __ZNSt3__113__tree_removeB7v160006IPNS_16__tree_node_baseIPvEEEEvT_S5_, symObjAddr: 0x7E68, symBinAddr: 0x1BCA8, symSize: 0x384 }
  - { offsetInCU: 0x1D907, offset: 0x117EAC, size: 0x8, addend: 0x0, symName: __ZNSt3__120__throw_out_of_rangeB7v160006EPKc, symObjAddr: 0xBB34, symBinAddr: 0x1F3EC, symSize: 0x50 }
  - { offsetInCU: 0x23996, offset: 0x11DF3B, size: 0x8, addend: 0x0, symName: __ZNSt3__16vectorIN8nlohmann10basic_jsonINS_3mapES0_NS_12basic_stringIcNS_11char_traitsIcEENS_9allocatorIcEEEEbxydS7_NS1_14adl_serializerENS0_IhNS7_IhEEEEEENS7_ISD_EEE26__swap_out_circular_bufferERNS_14__split_bufferISD_RSE_EE, symObjAddr: 0x62F0, symBinAddr: 0x1A130, symSize: 0x74 }
  - { offsetInCU: 0x266B6, offset: 0x120C5B, size: 0x8, addend: 0x0, symName: __ZN8firebase9firestore6bundle12BundleReaderC2ENS1_16BundleSerializerENSt3__110unique_ptrINS0_4util10ByteStreamENS4_14default_deleteIS7_EEEE, symObjAddr: 0x0, symBinAddr: 0x13FA4, symSize: 0x58 }
  - { offsetInCU: 0x266E9, offset: 0x120C8E, size: 0x8, addend: 0x0, symName: __ZN8firebase9firestore6bundle12BundleReaderC2ENS1_16BundleSerializerENSt3__110unique_ptrINS0_4util10ByteStreamENS4_14default_deleteIS7_EEEE, symObjAddr: 0x0, symBinAddr: 0x13FA4, symSize: 0x58 }
  - { offsetInCU: 0x2670B, offset: 0x120CB0, size: 0x8, addend: 0x0, symName: __ZN8firebase9firestore6bundle12BundleReaderC2ENS1_16BundleSerializerENSt3__110unique_ptrINS0_4util10ByteStreamENS4_14default_deleteIS7_EEEE, symObjAddr: 0x0, symBinAddr: 0x13FA4, symSize: 0x58 }
  - { offsetInCU: 0x2672D, offset: 0x120CD2, size: 0x8, addend: 0x0, symName: __ZN8firebase9firestore6bundle12BundleReaderC2ENS1_16BundleSerializerENSt3__110unique_ptrINS0_4util10ByteStreamENS4_14default_deleteIS7_EEEE, symObjAddr: 0x0, symBinAddr: 0x13FA4, symSize: 0x58 }
  - { offsetInCU: 0x2674F, offset: 0x120CF4, size: 0x8, addend: 0x0, symName: __ZN8firebase9firestore6bundle12BundleReaderC2ENS1_16BundleSerializerENSt3__110unique_ptrINS0_4util10ByteStreamENS4_14default_deleteIS7_EEEE, symObjAddr: 0x0, symBinAddr: 0x13FA4, symSize: 0x58 }
  - { offsetInCU: 0x26771, offset: 0x120D16, size: 0x8, addend: 0x0, symName: __ZN8firebase9firestore6bundle12BundleReaderC2ENS1_16BundleSerializerENSt3__110unique_ptrINS0_4util10ByteStreamENS4_14default_deleteIS7_EEEE, symObjAddr: 0x0, symBinAddr: 0x13FA4, symSize: 0x58 }
  - { offsetInCU: 0x26793, offset: 0x120D38, size: 0x8, addend: 0x0, symName: __ZN8firebase9firestore6bundle12BundleReaderC2ENS1_16BundleSerializerENSt3__110unique_ptrINS0_4util10ByteStreamENS4_14default_deleteIS7_EEEE, symObjAddr: 0x0, symBinAddr: 0x13FA4, symSize: 0x58 }
  - { offsetInCU: 0x267B5, offset: 0x120D5A, size: 0x8, addend: 0x0, symName: __ZN8firebase9firestore6bundle12BundleReaderC2ENS1_16BundleSerializerENSt3__110unique_ptrINS0_4util10ByteStreamENS4_14default_deleteIS7_EEEE, symObjAddr: 0x0, symBinAddr: 0x13FA4, symSize: 0x58 }
  - { offsetInCU: 0x267D7, offset: 0x120D7C, size: 0x8, addend: 0x0, symName: __ZN8firebase9firestore6bundle12BundleReaderC2ENS1_16BundleSerializerENSt3__110unique_ptrINS0_4util10ByteStreamENS4_14default_deleteIS7_EEEE, symObjAddr: 0x0, symBinAddr: 0x13FA4, symSize: 0x58 }
  - { offsetInCU: 0x26B2D, offset: 0x1210D2, size: 0x8, addend: 0x0, symName: __ZN8firebase9firestore6bundle12BundleReaderC1ENS1_16BundleSerializerENSt3__110unique_ptrINS0_4util10ByteStreamENS4_14default_deleteIS7_EEEE, symObjAddr: 0x58, symBinAddr: 0x13FFC, symSize: 0x58 }
  - { offsetInCU: 0x26B75, offset: 0x12111A, size: 0x8, addend: 0x0, symName: __ZN8firebase9firestore6bundle12BundleReaderC1ENS1_16BundleSerializerENSt3__110unique_ptrINS0_4util10ByteStreamENS4_14default_deleteIS7_EEEE, symObjAddr: 0x58, symBinAddr: 0x13FFC, symSize: 0x58 }
  - { offsetInCU: 0x26BA0, offset: 0x121145, size: 0x8, addend: 0x0, symName: __ZN8firebase9firestore6bundle12BundleReaderC1ENS1_16BundleSerializerENSt3__110unique_ptrINS0_4util10ByteStreamENS4_14default_deleteIS7_EEEE, symObjAddr: 0x58, symBinAddr: 0x13FFC, symSize: 0x58 }
  - { offsetInCU: 0x26BC2, offset: 0x121167, size: 0x8, addend: 0x0, symName: __ZN8firebase9firestore6bundle12BundleReaderC1ENS1_16BundleSerializerENSt3__110unique_ptrINS0_4util10ByteStreamENS4_14default_deleteIS7_EEEE, symObjAddr: 0x58, symBinAddr: 0x13FFC, symSize: 0x58 }
  - { offsetInCU: 0x26BE4, offset: 0x121189, size: 0x8, addend: 0x0, symName: __ZN8firebase9firestore6bundle12BundleReaderC1ENS1_16BundleSerializerENSt3__110unique_ptrINS0_4util10ByteStreamENS4_14default_deleteIS7_EEEE, symObjAddr: 0x58, symBinAddr: 0x13FFC, symSize: 0x58 }
  - { offsetInCU: 0x26C06, offset: 0x1211AB, size: 0x8, addend: 0x0, symName: __ZN8firebase9firestore6bundle12BundleReaderC1ENS1_16BundleSerializerENSt3__110unique_ptrINS0_4util10ByteStreamENS4_14default_deleteIS7_EEEE, symObjAddr: 0x58, symBinAddr: 0x13FFC, symSize: 0x58 }
  - { offsetInCU: 0x26C28, offset: 0x1211CD, size: 0x8, addend: 0x0, symName: __ZN8firebase9firestore6bundle12BundleReaderC1ENS1_16BundleSerializerENSt3__110unique_ptrINS0_4util10ByteStreamENS4_14default_deleteIS7_EEEE, symObjAddr: 0x58, symBinAddr: 0x13FFC, symSize: 0x58 }
  - { offsetInCU: 0x26C4A, offset: 0x1211EF, size: 0x8, addend: 0x0, symName: __ZN8firebase9firestore6bundle12BundleReaderC1ENS1_16BundleSerializerENSt3__110unique_ptrINS0_4util10ByteStreamENS4_14default_deleteIS7_EEEE, symObjAddr: 0x58, symBinAddr: 0x13FFC, symSize: 0x58 }
  - { offsetInCU: 0x26C6C, offset: 0x121211, size: 0x8, addend: 0x0, symName: __ZN8firebase9firestore6bundle12BundleReaderC1ENS1_16BundleSerializerENSt3__110unique_ptrINS0_4util10ByteStreamENS4_14default_deleteIS7_EEEE, symObjAddr: 0x58, symBinAddr: 0x13FFC, symSize: 0x58 }
  - { offsetInCU: 0x26C8E, offset: 0x121233, size: 0x8, addend: 0x0, symName: __ZN8firebase9firestore6bundle12BundleReaderC1ENS1_16BundleSerializerENSt3__110unique_ptrINS0_4util10ByteStreamENS4_14default_deleteIS7_EEEE, symObjAddr: 0x58, symBinAddr: 0x13FFC, symSize: 0x58 }
  - { offsetInCU: 0x27198, offset: 0x12173D, size: 0x8, addend: 0x0, symName: __ZN8firebase9firestore6bundle12BundleReader17GetBundleMetadataEv, symObjAddr: 0xB0, symBinAddr: 0x14054, symSize: 0x18C }
  - { offsetInCU: 0x27722, offset: 0x121CC7, size: 0x8, addend: 0x0, symName: __ZN8firebase9firestore6bundle12BundleReader15ReadNextElementEv, symObjAddr: 0x23C, symBinAddr: 0x141E0, symSize: 0x1C4 }
  - { offsetInCU: 0x28441, offset: 0x1229E6, size: 0x8, addend: 0x0, symName: __ZN8firebase9firestore6bundle12BundleReader4FailENSt3__112basic_stringIcNS3_11char_traitsIcEENS3_9allocatorIcEEEE, symObjAddr: 0x400, symBinAddr: 0x143A4, symSize: 0xA4 }
  - { offsetInCU: 0x28B6B, offset: 0x123110, size: 0x8, addend: 0x0, symName: __ZN8firebase9firestore6bundle12BundleReader16ReadLengthPrefixEv, symObjAddr: 0x540, symBinAddr: 0x144E4, symSize: 0xC8 }
  - { offsetInCU: 0x28F5D, offset: 0x123502, size: 0x8, addend: 0x0, symName: __ZN8firebase9firestore6bundle12BundleReader16ReadJsonToBufferEm, symObjAddr: 0x608, symBinAddr: 0x145AC, symSize: 0x16C }
  - { offsetInCU: 0x295AD, offset: 0x123B52, size: 0x8, addend: 0x0, symName: __ZN8firebase9firestore6bundle12BundleReader29DecodeBundleElementFromBufferEv, symObjAddr: 0x774, symBinAddr: 0x14718, symSize: 0x654 }
  - { offsetInCU: 0x2AF9C, offset: 0x125541, size: 0x8, addend: 0x0, symName: __ZN8firebase9firestore6bundle12BundleReader14GetNextElementEv, symObjAddr: 0x4A4, symBinAddr: 0x14448, symSize: 0x5C }
  - { offsetInCU: 0x2B160, offset: 0x125705, size: 0x8, addend: 0x0, symName: __ZN8firebase9firestore6bundle14BundleMetadataD1Ev, symObjAddr: 0x500, symBinAddr: 0x144A4, symSize: 0x40 }
  - { offsetInCU: 0x2B4BC, offset: 0x125A61, size: 0x8, addend: 0x0, symName: __ZN8firebase9firestore4util17internal_statusor12StatusOrDataINSt3__112basic_stringIcNS4_11char_traitsIcEENS4_9allocatorIcEEEEED2Ev, symObjAddr: 0x1114, symBinAddr: 0x1503C, symSize: 0x40 }
  - { offsetInCU: 0x2C3CC, offset: 0x126971, size: 0x8, addend: 0x0, symName: __ZN8nlohmann10basic_jsonINSt3__13mapENS1_6vectorENS1_12basic_stringIcNS1_11char_traitsIcEENS1_9allocatorIcEEEEbxydS7_NS_14adl_serializerENS3_IhNS7_IhEEEEE5parseIPKcEESD_T_SH_NS1_8functionIFbiNS_6detail13parse_event_tERSD_EEEbb, symObjAddr: 0x1154, symBinAddr: 0x1507C, symSize: 0x190 }
  - { offsetInCU: 0x2C837, offset: 0x126DDC, size: 0x8, addend: 0x0, symName: __ZNSt3__16__treeINS_12__value_typeINS_12basic_stringIcNS_11char_traitsIcEENS_9allocatorIcEEEEN8nlohmann10basic_jsonINS_3mapENS_6vectorES7_bxydS5_NS8_14adl_serializerENSB_IhNS5_IhEEEEEEEENS_19__map_value_compareIS7_SG_NS_4lessIvEELb1EEENS5_ISG_EEE4findIA9_cEENS_15__tree_iteratorISG_PNS_11__tree_nodeISG_PvEElEERKT_, symObjAddr: 0xBA7C, symBinAddr: 0x1F334, symSize: 0x7C }
  - { offsetInCU: 0x2C9B9, offset: 0x126F5E, size: 0x8, addend: 0x0, symName: __ZN8nlohmann10basic_jsonINSt3__13mapENS1_6vectorENS1_12basic_stringIcNS1_11char_traitsIcEENS1_9allocatorIcEEEEbxydS7_NS_14adl_serializerENS3_IhNS7_IhEEEEE2atERKS9_, symObjAddr: 0xDC8, symBinAddr: 0x14D6C, symSize: 0x218 }
  - { offsetInCU: 0x2D011, offset: 0x1275B6, size: 0x8, addend: 0x0, symName: __ZNSt3__16__treeINS_12__value_typeINS_12basic_stringIcNS_11char_traitsIcEENS_9allocatorIcEEEEN8nlohmann10basic_jsonINS_3mapENS_6vectorES7_bxydS5_NS8_14adl_serializerENSB_IhNS5_IhEEEEEEEENS_19__map_value_compareIS7_SG_NS_4lessIvEELb1EEENS5_ISG_EEE4findIA11_cEENS_15__tree_iteratorISG_PNS_11__tree_nodeISG_PvEElEERKT_, symObjAddr: 0xBBA8, symBinAddr: 0x1F460, symSize: 0x7C }
  - { offsetInCU: 0x2D53E, offset: 0x127AE3, size: 0x8, addend: 0x0, symName: __ZNSt3__16__treeINS_12__value_typeINS_12basic_stringIcNS_11char_traitsIcEENS_9allocatorIcEEEEN8nlohmann10basic_jsonINS_3mapENS_6vectorES7_bxydS5_NS8_14adl_serializerENSB_IhNS5_IhEEEEEEEENS_19__map_value_compareIS7_SG_NS_4lessIvEELb1EEENS5_ISG_EEE4findIA17_cEENS_15__tree_iteratorISG_PNS_11__tree_nodeISG_PvEElEERKT_, symObjAddr: 0xBC24, symBinAddr: 0x1F4DC, symSize: 0x7C }
  - { offsetInCU: 0x2D715, offset: 0x127CBA, size: 0x8, addend: 0x0, symName: __ZNK8nlohmann10basic_jsonINSt3__13mapENS1_6vectorENS1_12basic_stringIcNS1_11char_traitsIcEENS1_9allocatorIcEEEEbxydS7_NS_14adl_serializerENS3_IhNS7_IhEEEEE16assert_invariantEv, symObjAddr: 0x1990, symBinAddr: 0x158B8, symSize: 0xB0 }
  - { offsetInCU: 0x2D73A, offset: 0x127CDF, size: 0x8, addend: 0x0, symName: __ZN8nlohmann10basic_jsonINSt3__13mapENS1_6vectorENS1_12basic_stringIcNS1_11char_traitsIcEENS1_9allocatorIcEEEEbxydS7_NS_14adl_serializerENS3_IhNS7_IhEEEEE10json_value7destroyENS_6detail7value_tE, symObjAddr: 0xB5C0, symBinAddr: 0x1EE78, symSize: 0x300 }
  - { offsetInCU: 0x2E5DD, offset: 0x128B82, size: 0x8, addend: 0x0, symName: __ZN8nlohmann10basic_jsonINSt3__13mapENS1_6vectorENS1_12basic_stringIcNS1_11char_traitsIcEENS1_9allocatorIcEEEEbxydS7_NS_14adl_serializerENS3_IhNS7_IhEEEEED1Ev, symObjAddr: 0x1068, symBinAddr: 0x14FC4, symSize: 0x30 }
  - { offsetInCU: 0x2E63F, offset: 0x128BE4, size: 0x8, addend: 0x0, symName: __ZNSt3__13mapINS_12basic_stringIcNS_11char_traitsIcEENS_9allocatorIcEEEEN8nlohmann10basic_jsonIS0_NS_6vectorES6_bxydS4_NS7_14adl_serializerENS9_IhNS4_IhEEEEEENS_4lessIvEENS4_INS_4pairIKS6_SD_EEEEE2atERSH_, symObjAddr: 0xBAF8, symBinAddr: 0x1F3B0, symSize: 0x3C }
  - { offsetInCU: 0x2E6BE, offset: 0x128C63, size: 0x8, addend: 0x0, symName: __ZNSt3__120__throw_out_of_rangeB7v160006EPKc, symObjAddr: 0xBB34, symBinAddr: 0x1F3EC, symSize: 0x50 }
  - { offsetInCU: 0x2E6C9, offset: 0x128C6E, size: 0x8, addend: 0x0, symName: __ZNK8nlohmann10basic_jsonINSt3__13mapENS1_6vectorENS1_12basic_stringIcNS1_11char_traitsIcEENS1_9allocatorIcEEEEbxydS7_NS_14adl_serializerENS3_IhNS7_IhEEEEE9type_nameEv, symObjAddr: 0x7D54, symBinAddr: 0x1BB94, symSize: 0x28 }
  - { offsetInCU: 0x2E71C, offset: 0x128CC1, size: 0x8, addend: 0x0, symName: __ZN8nlohmann6detail10type_error6createEiRKNSt3__112basic_stringIcNS2_11char_traitsIcEENS2_9allocatorIcEEEE, symObjAddr: 0x7C20, symBinAddr: 0x1BA60, symSize: 0x134 }
  - { offsetInCU: 0x2EF3E, offset: 0x1294E3, size: 0x8, addend: 0x0, symName: __ZN8nlohmann6detail12out_of_range6createEiRKNSt3__112basic_stringIcNS2_11char_traitsIcEENS2_9allocatorIcEEEE, symObjAddr: 0x5D10, symBinAddr: 0x19B9C, symSize: 0x134 }
  - { offsetInCU: 0x2F75B, offset: 0x129D00, size: 0x8, addend: 0x0, symName: __ZN8firebase9firestore6bundle14BundleDocumentD1Ev, symObjAddr: 0x1028, symBinAddr: 0x14F84, symSize: 0x40 }
  - { offsetInCU: 0x2F863, offset: 0x129E08, size: 0x8, addend: 0x0, symName: __ZN8firebase9firestore6bundle14BundleMetadataD0Ev, symObjAddr: 0x1098, symBinAddr: 0x14FF4, symSize: 0x40 }
  - { offsetInCU: 0x2F9EB, offset: 0x129F90, size: 0x8, addend: 0x0, symName: __ZNK8firebase9firestore6bundle14BundleMetadata12element_typeEv, symObjAddr: 0x10D8, symBinAddr: 0x15034, symSize: 0x8 }
  - { offsetInCU: 0x2FBC2, offset: 0x12A167, size: 0x8, addend: 0x0, symName: __ZNSt3__110__function12__value_funcIFbiN8nlohmann6detail13parse_event_tERNS2_10basic_jsonINS_3mapENS_6vectorENS_12basic_stringIcNS_11char_traitsIcEENS_9allocatorIcEEEEbxydSB_NS2_14adl_serializerENS7_IhNSB_IhEEEEEEEEC2B7v160006ERKSK_, symObjAddr: 0x3094, symBinAddr: 0x16F20, symSize: 0x64 }
  - { offsetInCU: 0x2FC1B, offset: 0x12A1C0, size: 0x8, addend: 0x0, symName: __ZN8nlohmann10basic_jsonINSt3__13mapENS1_6vectorENS1_12basic_stringIcNS1_11char_traitsIcEENS1_9allocatorIcEEEEbxydS7_NS_14adl_serializerENS3_IhNS7_IhEEEEE6parserINS_6detail22iterator_input_adapterIPKcEEEENSF_6parserISD_T_EESL_NS1_8functionIFbiNSF_13parse_event_tERSD_EEEbb, symObjAddr: 0x12E4, symBinAddr: 0x1520C, symSize: 0xF0 }
  - { offsetInCU: 0x2FE70, offset: 0x12A415, size: 0x8, addend: 0x0, symName: __ZN8nlohmann6detail6parserINS_10basic_jsonINSt3__13mapENS3_6vectorENS3_12basic_stringIcNS3_11char_traitsIcEENS3_9allocatorIcEEEEbxydS9_NS_14adl_serializerENS5_IhNS9_IhEEEEEENS0_22iterator_input_adapterIPKcEEE5parseEbRSF_, symObjAddr: 0x13D4, symBinAddr: 0x152FC, symSize: 0x568 }
  - { offsetInCU: 0x31CDE, offset: 0x12C283, size: 0x8, addend: 0x0, symName: __ZN8nlohmann6detail5lexerINS_10basic_jsonINSt3__13mapENS3_6vectorENS3_12basic_stringIcNS3_11char_traitsIcEENS3_9allocatorIcEEEEbxydS9_NS_14adl_serializerENS5_IhNS9_IhEEEEEENS0_22iterator_input_adapterIPKcEEED2Ev, symObjAddr: 0x3054, symBinAddr: 0x16EE0, symSize: 0x40 }
  - { offsetInCU: 0x31F6F, offset: 0x12C514, size: 0x8, addend: 0x0, symName: __ZN8nlohmann6detail6parserINS_10basic_jsonINSt3__13mapENS3_6vectorENS3_12basic_stringIcNS3_11char_traitsIcEENS3_9allocatorIcEEEEbxydS9_NS_14adl_serializerENS5_IhNS9_IhEEEEEENS0_22iterator_input_adapterIPKcEEED1Ev, symObjAddr: 0x193C, symBinAddr: 0x15864, symSize: 0x54 }
  - { offsetInCU: 0x32115, offset: 0x12C6BA, size: 0x8, addend: 0x0, symName: __ZNSt3__110__function12__value_funcIFbiN8nlohmann6detail13parse_event_tERNS2_10basic_jsonINS_3mapENS_6vectorENS_12basic_stringIcNS_11char_traitsIcEENS_9allocatorIcEEEEbxydSB_NS2_14adl_serializerENS7_IhNSB_IhEEEEEEEEC2B7v160006EOSK_, symObjAddr: 0x1DA4, symBinAddr: 0x15CA4, symSize: 0x64 }
  - { offsetInCU: 0x32162, offset: 0x12C707, size: 0x8, addend: 0x0, symName: __ZN8nlohmann6detail6parserINS_10basic_jsonINSt3__13mapENS3_6vectorENS3_12basic_stringIcNS3_11char_traitsIcEENS3_9allocatorIcEEEEbxydS9_NS_14adl_serializerENS5_IhNS9_IhEEEEEENS0_22iterator_input_adapterIPKcEEEC2EOSJ_NS3_8functionIFbiNS0_13parse_event_tERSF_EEEbb, symObjAddr: 0x1E08, symBinAddr: 0x15D08, symSize: 0xE8 }
  - { offsetInCU: 0x3270B, offset: 0x12CCB0, size: 0x8, addend: 0x0, symName: __ZN8nlohmann6detail28json_sax_dom_callback_parserINS_10basic_jsonINSt3__13mapENS3_6vectorENS3_12basic_stringIcNS3_11char_traitsIcEENS3_9allocatorIcEEEEbxydS9_NS_14adl_serializerENS5_IhNS9_IhEEEEEEEC2ERSF_NS3_8functionIFbiNS0_13parse_event_tESH_EEEb, symObjAddr: 0x4C90, symBinAddr: 0x18B1C, symSize: 0x11C }
  - { offsetInCU: 0x32C82, offset: 0x12D227, size: 0x8, addend: 0x0, symName: __ZN8nlohmann6detail6parserINS_10basic_jsonINSt3__13mapENS3_6vectorENS3_12basic_stringIcNS3_11char_traitsIcEENS3_9allocatorIcEEEEbxydS9_NS_14adl_serializerENS5_IhNS9_IhEEEEEENS0_22iterator_input_adapterIPKcEEE18sax_parse_internalINS0_19json_sax_dom_parserISF_EEEEbPT_, symObjAddr: 0x4284, symBinAddr: 0x18110, symSize: 0x9B8 }
  - { offsetInCU: 0x343A4, offset: 0x12E949, size: 0x8, addend: 0x0, symName: __ZN8nlohmann6detail5lexerINS_10basic_jsonINSt3__13mapENS3_6vectorENS3_12basic_stringIcNS3_11char_traitsIcEENS3_9allocatorIcEEEEbxydS9_NS_14adl_serializerENS5_IhNS9_IhEEEEEENS0_22iterator_input_adapterIPKcEEE4scanEv, symObjAddr: 0x1F48, symBinAddr: 0x15E48, symSize: 0x230 }
  - { offsetInCU: 0x344DD, offset: 0x12EA82, size: 0x8, addend: 0x0, symName: __ZNK8nlohmann6detail5lexerINS_10basic_jsonINSt3__13mapENS3_6vectorENS3_12basic_stringIcNS3_11char_traitsIcEENS3_9allocatorIcEEEEbxydS9_NS_14adl_serializerENS5_IhNS9_IhEEEEEENS0_22iterator_input_adapterIPKcEEE16get_token_stringEv, symObjAddr: 0x3AE4, symBinAddr: 0x17970, symSize: 0xE0 }
  - { offsetInCU: 0x3473F, offset: 0x12ECE4, size: 0x8, addend: 0x0, symName: __ZN8nlohmann6detail6parserINS_10basic_jsonINSt3__13mapENS3_6vectorENS3_12basic_stringIcNS3_11char_traitsIcEENS3_9allocatorIcEEEEbxydS9_NS_14adl_serializerENS5_IhNS9_IhEEEEEENS0_22iterator_input_adapterIPKcEEE17exception_messageENS0_10lexer_baseISF_E10token_typeERKSB_, symObjAddr: 0x3E48, symBinAddr: 0x17CD4, symSize: 0x408 }
  - { offsetInCU: 0x36168, offset: 0x13070D, size: 0x8, addend: 0x0, symName: __ZN8nlohmann6detail11parse_error6createEiRKNS0_10position_tERKNSt3__112basic_stringIcNS5_11char_traitsIcEENS5_9allocatorIcEEEE, symObjAddr: 0x3BC4, symBinAddr: 0x17A50, symSize: 0x284 }
  - { offsetInCU: 0x3759D, offset: 0x131B42, size: 0x8, addend: 0x0, symName: __ZN8nlohmann6detail19json_sax_dom_parserINS_10basic_jsonINSt3__13mapENS3_6vectorENS3_12basic_stringIcNS3_11char_traitsIcEENS3_9allocatorIcEEEEbxydS9_NS_14adl_serializerENS5_IhNS9_IhEEEEEEE11parse_errorINS0_11parse_errorEEEbmRKSB_RKT_, symObjAddr: 0x4C3C, symBinAddr: 0x18AC8, symSize: 0x54 }
  - { offsetInCU: 0x37609, offset: 0x131BAE, size: 0x8, addend: 0x0, symName: __ZN8nlohmann6detail6parserINS_10basic_jsonINSt3__13mapENS3_6vectorENS3_12basic_stringIcNS3_11char_traitsIcEENS3_9allocatorIcEEEEbxydS9_NS_14adl_serializerENS5_IhNS9_IhEEEEEENS0_22iterator_input_adapterIPKcEEE18sax_parse_internalINS0_28json_sax_dom_callback_parserISF_EEEEbPT_, symObjAddr: 0x30F8, symBinAddr: 0x16F84, symSize: 0x998 }
  - { offsetInCU: 0x38B94, offset: 0x133139, size: 0x8, addend: 0x0, symName: __ZN8nlohmann6detail28json_sax_dom_callback_parserINS_10basic_jsonINSt3__13mapENS3_6vectorENS3_12basic_stringIcNS3_11char_traitsIcEENS3_9allocatorIcEEEEbxydS9_NS_14adl_serializerENS5_IhNS9_IhEEEEEEE11parse_errorINS0_11parse_errorEEEbmRKSB_RKT_, symObjAddr: 0x3A90, symBinAddr: 0x1791C, symSize: 0x54 }
  - { offsetInCU: 0x38C00, offset: 0x1331A5, size: 0x8, addend: 0x0, symName: __ZN8nlohmann6detail28json_sax_dom_callback_parserINS_10basic_jsonINSt3__13mapENS3_6vectorENS3_12basic_stringIcNS3_11char_traitsIcEENS3_9allocatorIcEEEEbxydS9_NS_14adl_serializerENS5_IhNS9_IhEEEEEEED2Ev, symObjAddr: 0x995C, symBinAddr: 0x1D79C, symSize: 0x8C }
  - { offsetInCU: 0x396A1, offset: 0x133C46, size: 0x8, addend: 0x0, symName: __ZN8nlohmann10basic_jsonINSt3__13mapENS1_6vectorENS1_12basic_stringIcNS1_11char_traitsIcEENS1_9allocatorIcEEEEbxydS7_NS_14adl_serializerENS3_IhNS7_IhEEEEE10json_valueC2ENS_6detail7value_tE, symObjAddr: 0x1A40, symBinAddr: 0x15968, symSize: 0xAC }
  - { offsetInCU: 0x39AA9, offset: 0x13404E, size: 0x8, addend: 0x0, symName: __ZN8nlohmann10basic_jsonINSt3__13mapENS1_6vectorENS1_12basic_stringIcNS1_11char_traitsIcEENS1_9allocatorIcEEEEbxydS7_NS_14adl_serializerENS3_IhNS7_IhEEEEE6createIS9_JRA1_KcEEEPT_DpOT0_, symObjAddr: 0x1AEC, symBinAddr: 0x15A14, symSize: 0x48 }
  - { offsetInCU: 0x39F61, offset: 0x134506, size: 0x8, addend: 0x0, symName: __ZN8nlohmann6detail9exception4nameERKNSt3__112basic_stringIcNS2_11char_traitsIcEENS2_9allocatorIcEEEEi, symObjAddr: 0x1B5C, symBinAddr: 0x15A5C, symSize: 0x180 }
  - { offsetInCU: 0x3AB23, offset: 0x1350C8, size: 0x8, addend: 0x0, symName: __ZN8nlohmann6detail9exceptionC2EiPKc, symObjAddr: 0x1CDC, symBinAddr: 0x15BDC, symSize: 0x54 }
  - { offsetInCU: 0x3AB6D, offset: 0x135112, size: 0x8, addend: 0x0, symName: __ZNK8nlohmann6detail9exception4whatEv, symObjAddr: 0x1D30, symBinAddr: 0x15C30, symSize: 0x8 }
  - { offsetInCU: 0x3AB93, offset: 0x135138, size: 0x8, addend: 0x0, symName: __ZN8nlohmann6detail9exceptionD1Ev, symObjAddr: 0x1D38, symBinAddr: 0x15C38, symSize: 0x34 }
  - { offsetInCU: 0x3ABF0, offset: 0x135195, size: 0x8, addend: 0x0, symName: __ZN8nlohmann6detail9exceptionD0Ev, symObjAddr: 0x1D6C, symBinAddr: 0x15C6C, symSize: 0x38 }
  - { offsetInCU: 0x3ACB9, offset: 0x13525E, size: 0x8, addend: 0x0, symName: __ZN8nlohmann6detail5lexerINS_10basic_jsonINSt3__13mapENS3_6vectorENS3_12basic_stringIcNS3_11char_traitsIcEENS3_9allocatorIcEEEEbxydS9_NS_14adl_serializerENS5_IhNS9_IhEEEEEENS0_22iterator_input_adapterIPKcEEE17get_decimal_pointEv, symObjAddr: 0x1EF0, symBinAddr: 0x15DF0, symSize: 0x58 }
  - { offsetInCU: 0x3AD0C, offset: 0x1352B1, size: 0x8, addend: 0x0, symName: __ZN8nlohmann6detail5lexerINS_10basic_jsonINSt3__13mapENS3_6vectorENS3_12basic_stringIcNS3_11char_traitsIcEENS3_9allocatorIcEEEEbxydS9_NS_14adl_serializerENS5_IhNS9_IhEEEEEENS0_22iterator_input_adapterIPKcEEE8skip_bomEv, symObjAddr: 0x2178, symBinAddr: 0x16078, symSize: 0x60 }
  - { offsetInCU: 0x3AD82, offset: 0x135327, size: 0x8, addend: 0x0, symName: __ZN8nlohmann6detail5lexerINS_10basic_jsonINSt3__13mapENS3_6vectorENS3_12basic_stringIcNS3_11char_traitsIcEENS3_9allocatorIcEEEEbxydS9_NS_14adl_serializerENS5_IhNS9_IhEEEEEENS0_22iterator_input_adapterIPKcEEE3getEv, symObjAddr: 0x2BA0, symBinAddr: 0x16AA0, symSize: 0x160 }
  - { offsetInCU: 0x3B264, offset: 0x135809, size: 0x8, addend: 0x0, symName: __ZN8nlohmann6detail5lexerINS_10basic_jsonINSt3__13mapENS3_6vectorENS3_12basic_stringIcNS3_11char_traitsIcEENS3_9allocatorIcEEEEbxydS9_NS_14adl_serializerENS5_IhNS9_IhEEEEEENS0_22iterator_input_adapterIPKcEEE5ungetEv, symObjAddr: 0x2D00, symBinAddr: 0x16C00, symSize: 0x68 }
  - { offsetInCU: 0x3B275, offset: 0x13581A, size: 0x8, addend: 0x0, symName: __ZN8nlohmann6detail5lexerINS_10basic_jsonINSt3__13mapENS3_6vectorENS3_12basic_stringIcNS3_11char_traitsIcEENS3_9allocatorIcEEEEbxydS9_NS_14adl_serializerENS5_IhNS9_IhEEEEEENS0_22iterator_input_adapterIPKcEEE12scan_commentEv, symObjAddr: 0x21D8, symBinAddr: 0x160D8, symSize: 0xB0 }
  - { offsetInCU: 0x3B2FF, offset: 0x1358A4, size: 0x8, addend: 0x0, symName: __ZN8nlohmann6detail5lexerINS_10basic_jsonINSt3__13mapENS3_6vectorENS3_12basic_stringIcNS3_11char_traitsIcEENS3_9allocatorIcEEEEbxydS9_NS_14adl_serializerENS5_IhNS9_IhEEEEEENS0_22iterator_input_adapterIPKcEEE11scan_numberEv, symObjAddr: 0x27F4, symBinAddr: 0x166F4, symSize: 0x3AC }
  - { offsetInCU: 0x3B98C, offset: 0x135F31, size: 0x8, addend: 0x0, symName: __ZN8nlohmann6detail5lexerINS_10basic_jsonINSt3__13mapENS3_6vectorENS3_12basic_stringIcNS3_11char_traitsIcEENS3_9allocatorIcEEEEbxydS9_NS_14adl_serializerENS5_IhNS9_IhEEEEEENS0_22iterator_input_adapterIPKcEEE11scan_stringEv, symObjAddr: 0x230C, symBinAddr: 0x1620C, symSize: 0x4E8 }
  - { offsetInCU: 0x3BB3F, offset: 0x1360E4, size: 0x8, addend: 0x0, symName: __ZN8nlohmann6detail5lexerINS_10basic_jsonINSt3__13mapENS3_6vectorENS3_12basic_stringIcNS3_11char_traitsIcEENS3_9allocatorIcEEEEbxydS9_NS_14adl_serializerENS5_IhNS9_IhEEEEEENS0_22iterator_input_adapterIPKcEEE12scan_literalESI_mNS0_10lexer_baseISF_E10token_typeE, symObjAddr: 0x2288, symBinAddr: 0x16188, symSize: 0x84 }
  - { offsetInCU: 0x3BBC3, offset: 0x136168, size: 0x8, addend: 0x0, symName: __ZN8nlohmann6detail5lexerINS_10basic_jsonINSt3__13mapENS3_6vectorENS3_12basic_stringIcNS3_11char_traitsIcEENS3_9allocatorIcEEEEbxydS9_NS_14adl_serializerENS5_IhNS9_IhEEEEEENS0_22iterator_input_adapterIPKcEEE11scan_stringEv, symObjAddr: 0x230C, symBinAddr: 0x1620C, symSize: 0x4E8 }
  - { offsetInCU: 0x3BBCE, offset: 0x136173, size: 0x8, addend: 0x0, symName: __ZN8nlohmann6detail5lexerINS_10basic_jsonINSt3__13mapENS3_6vectorENS3_12basic_stringIcNS3_11char_traitsIcEENS3_9allocatorIcEEEEbxydS9_NS_14adl_serializerENS5_IhNS9_IhEEEEEENS0_22iterator_input_adapterIPKcEEE5ungetEv, symObjAddr: 0x2D00, symBinAddr: 0x16C00, symSize: 0x68 }
  - { offsetInCU: 0x3BC6B, offset: 0x136210, size: 0x8, addend: 0x0, symName: __ZNKSt3__16vectorIcNS_9allocatorIcEEE20__throw_length_errorB7v160006Ev, symObjAddr: 0x2D68, symBinAddr: 0x16C68, symSize: 0x14 }
  - { offsetInCU: 0x3BC76, offset: 0x13621B, size: 0x8, addend: 0x0, symName: __ZN8nlohmann6detail5lexerINS_10basic_jsonINSt3__13mapENS3_6vectorENS3_12basic_stringIcNS3_11char_traitsIcEENS3_9allocatorIcEEEEbxydS9_NS_14adl_serializerENS5_IhNS9_IhEEEEEENS0_22iterator_input_adapterIPKcEEE12scan_literalESI_mNS0_10lexer_baseISF_E10token_typeE.cold.1, symObjAddr: 0xBCA0, symBinAddr: 0x17646C, symSize: 0x28 }
  - { offsetInCU: 0x3BCAE, offset: 0x136253, size: 0x8, addend: 0x0, symName: __ZN8nlohmann6detail5lexerINS_10basic_jsonINSt3__13mapENS3_6vectorENS3_12basic_stringIcNS3_11char_traitsIcEENS3_9allocatorIcEEEEbxydS9_NS_14adl_serializerENS5_IhNS9_IhEEEEEENS0_22iterator_input_adapterIPKcEEE5resetEv, symObjAddr: 0x2DF0, symBinAddr: 0x16C7C, symSize: 0xC0 }
  - { offsetInCU: 0x3C17C, offset: 0x136721, size: 0x8, addend: 0x0, symName: __ZN8nlohmann6detail5lexerINS_10basic_jsonINSt3__13mapENS3_6vectorENS3_12basic_stringIcNS3_11char_traitsIcEENS3_9allocatorIcEEEEbxydS9_NS_14adl_serializerENS5_IhNS9_IhEEEEEENS0_22iterator_input_adapterIPKcEEE18next_byte_in_rangeESt16initializer_listIiE, symObjAddr: 0x2FA0, symBinAddr: 0x16E2C, symSize: 0xB4 }
  - { offsetInCU: 0x3C221, offset: 0x1367C6, size: 0x8, addend: 0x0, symName: __ZN8nlohmann6detail5lexerINS_10basic_jsonINSt3__13mapENS3_6vectorENS3_12basic_stringIcNS3_11char_traitsIcEENS3_9allocatorIcEEEEbxydS9_NS_14adl_serializerENS5_IhNS9_IhEEEEEENS0_22iterator_input_adapterIPKcEEED2Ev, symObjAddr: 0x3054, symBinAddr: 0x16EE0, symSize: 0x40 }
  - { offsetInCU: 0x3C22C, offset: 0x1367D1, size: 0x8, addend: 0x0, symName: __ZN8nlohmann6detail5lexerINS_10basic_jsonINSt3__13mapENS3_6vectorENS3_12basic_stringIcNS3_11char_traitsIcEENS3_9allocatorIcEEEEbxydS9_NS_14adl_serializerENS5_IhNS9_IhEEEEEENS0_22iterator_input_adapterIPKcEEE13get_codepointEv, symObjAddr: 0x2EB0, symBinAddr: 0x16D3C, symSize: 0xF0 }
  - { offsetInCU: 0x3C2F6, offset: 0x13689B, size: 0x8, addend: 0x0, symName: __ZN8nlohmann6detail5lexerINS_10basic_jsonINSt3__13mapENS3_6vectorENS3_12basic_stringIcNS3_11char_traitsIcEENS3_9allocatorIcEEEEbxydS9_NS_14adl_serializerENS5_IhNS9_IhEEEEEENS0_22iterator_input_adapterIPKcEEE11scan_stringEv.cold.2, symObjAddr: 0xBCF0, symBinAddr: 0x1764BC, symSize: 0x28 }
  - { offsetInCU: 0x3C30E, offset: 0x1368B3, size: 0x8, addend: 0x0, symName: __ZN8nlohmann6detail5lexerINS_10basic_jsonINSt3__13mapENS3_6vectorENS3_12basic_stringIcNS3_11char_traitsIcEENS3_9allocatorIcEEEEbxydS9_NS_14adl_serializerENS5_IhNS9_IhEEEEEENS0_22iterator_input_adapterIPKcEEE11scan_stringEv.cold.1, symObjAddr: 0xBCC8, symBinAddr: 0x176494, symSize: 0x28 }
  - { offsetInCU: 0x3C365, offset: 0x13690A, size: 0x8, addend: 0x0, symName: __ZN8nlohmann6detail5lexerINS_10basic_jsonINSt3__13mapENS3_6vectorENS3_12basic_stringIcNS3_11char_traitsIcEENS3_9allocatorIcEEEEbxydS9_NS_14adl_serializerENS5_IhNS9_IhEEEEEENS0_22iterator_input_adapterIPKcEEE11scan_numberEv.cold.2, symObjAddr: 0xBD40, symBinAddr: 0x17650C, symSize: 0x28 }
  - { offsetInCU: 0x3C37D, offset: 0x136922, size: 0x8, addend: 0x0, symName: __ZN8nlohmann6detail5lexerINS_10basic_jsonINSt3__13mapENS3_6vectorENS3_12basic_stringIcNS3_11char_traitsIcEENS3_9allocatorIcEEEEbxydS9_NS_14adl_serializerENS5_IhNS9_IhEEEEEENS0_22iterator_input_adapterIPKcEEE11scan_numberEv.cold.3, symObjAddr: 0xBD68, symBinAddr: 0x176534, symSize: 0x28 }
  - { offsetInCU: 0x3C395, offset: 0x13693A, size: 0x8, addend: 0x0, symName: __ZN8nlohmann6detail5lexerINS_10basic_jsonINSt3__13mapENS3_6vectorENS3_12basic_stringIcNS3_11char_traitsIcEENS3_9allocatorIcEEEEbxydS9_NS_14adl_serializerENS5_IhNS9_IhEEEEEENS0_22iterator_input_adapterIPKcEEE11scan_numberEv.cold.4, symObjAddr: 0xBD90, symBinAddr: 0x17655C, symSize: 0x28 }
  - { offsetInCU: 0x3C3AD, offset: 0x136952, size: 0x8, addend: 0x0, symName: __ZN8nlohmann6detail5lexerINS_10basic_jsonINSt3__13mapENS3_6vectorENS3_12basic_stringIcNS3_11char_traitsIcEENS3_9allocatorIcEEEEbxydS9_NS_14adl_serializerENS5_IhNS9_IhEEEEEENS0_22iterator_input_adapterIPKcEEE11scan_numberEv.cold.1, symObjAddr: 0xBD18, symBinAddr: 0x1764E4, symSize: 0x28 }
  - { offsetInCU: 0x3C757, offset: 0x136CFC, size: 0x8, addend: 0x0, symName: __ZNKSt3__16vectorIcNS_9allocatorIcEEE20__throw_length_errorB7v160006Ev, symObjAddr: 0x2D68, symBinAddr: 0x16C68, symSize: 0x14 }
  - { offsetInCU: 0x3C80D, offset: 0x136DB2, size: 0x8, addend: 0x0, symName: __ZN8nlohmann6detail5lexerINS_10basic_jsonINSt3__13mapENS3_6vectorENS3_12basic_stringIcNS3_11char_traitsIcEENS3_9allocatorIcEEEEbxydS9_NS_14adl_serializerENS5_IhNS9_IhEEEEEENS0_22iterator_input_adapterIPKcEEE5ungetEv.cold.1, symObjAddr: 0xBDB8, symBinAddr: 0x176584, symSize: 0x28 }
  - { offsetInCU: 0x3C8B9, offset: 0x136E5E, size: 0x8, addend: 0x0, symName: __ZN8nlohmann6detail5lexerINS_10basic_jsonINSt3__13mapENS3_6vectorENS3_12basic_stringIcNS3_11char_traitsIcEENS3_9allocatorIcEEEEbxydS9_NS_14adl_serializerENS5_IhNS9_IhEEEEEENS0_22iterator_input_adapterIPKcEEE13get_codepointEv.cold.1, symObjAddr: 0xBDE0, symBinAddr: 0x1765AC, symSize: 0x28 }
  - { offsetInCU: 0x3C8D1, offset: 0x136E76, size: 0x8, addend: 0x0, symName: __ZN8nlohmann6detail5lexerINS_10basic_jsonINSt3__13mapENS3_6vectorENS3_12basic_stringIcNS3_11char_traitsIcEENS3_9allocatorIcEEEEbxydS9_NS_14adl_serializerENS5_IhNS9_IhEEEEEENS0_22iterator_input_adapterIPKcEEE13get_codepointEv.cold.2, symObjAddr: 0xBE08, symBinAddr: 0x1765D4, symSize: 0x28 }
  - { offsetInCU: 0x3C8E9, offset: 0x136E8E, size: 0x8, addend: 0x0, symName: __ZN8nlohmann6detail5lexerINS_10basic_jsonINSt3__13mapENS3_6vectorENS3_12basic_stringIcNS3_11char_traitsIcEENS3_9allocatorIcEEEEbxydS9_NS_14adl_serializerENS5_IhNS9_IhEEEEEENS0_22iterator_input_adapterIPKcEEE18next_byte_in_rangeESt16initializer_listIiE.cold.1, symObjAddr: 0xBE30, symBinAddr: 0x1765FC, symSize: 0x28 }
  - { offsetInCU: 0x3CC0F, offset: 0x1371B4, size: 0x8, addend: 0x0, symName: __ZN8nlohmann6detail28json_sax_dom_callback_parserINS_10basic_jsonINSt3__13mapENS3_6vectorENS3_12basic_stringIcNS3_11char_traitsIcEENS3_9allocatorIcEEEEbxydS9_NS_14adl_serializerENS5_IhNS9_IhEEEEEEE12handle_valueIRbEENS3_4pairIbPSF_EEOT_b, symObjAddr: 0x8824, symBinAddr: 0x1C664, symSize: 0x308 }
  - { offsetInCU: 0x3D480, offset: 0x137A25, size: 0x8, addend: 0x0, symName: __ZN8nlohmann6detail28json_sax_dom_callback_parserINS_10basic_jsonINSt3__13mapENS3_6vectorENS3_12basic_stringIcNS3_11char_traitsIcEENS3_9allocatorIcEEEEbxydS9_NS_14adl_serializerENS5_IhNS9_IhEEEEEEE11start_arrayEm, symObjAddr: 0x594C, symBinAddr: 0x197D8, symSize: 0x24C }
  - { offsetInCU: 0x3DC10, offset: 0x1381B5, size: 0x8, addend: 0x0, symName: __ZN8nlohmann6detail28json_sax_dom_callback_parserINS_10basic_jsonINSt3__13mapENS3_6vectorENS3_12basic_stringIcNS3_11char_traitsIcEENS3_9allocatorIcEEEEbxydS9_NS_14adl_serializerENS5_IhNS9_IhEEEEEEE9end_arrayEv, symObjAddr: 0x5B98, symBinAddr: 0x19A24, symSize: 0x124 }
  - { offsetInCU: 0x3DF58, offset: 0x1384FD, size: 0x8, addend: 0x0, symName: __ZN8nlohmann6detail28json_sax_dom_callback_parserINS_10basic_jsonINSt3__13mapENS3_6vectorENS3_12basic_stringIcNS3_11char_traitsIcEENS3_9allocatorIcEEEEbxydS9_NS_14adl_serializerENS5_IhNS9_IhEEEEEEE11parse_errorINS0_12out_of_rangeEEEbmRKSB_RKT_, symObjAddr: 0x5CBC, symBinAddr: 0x19B48, symSize: 0x54 }
  - { offsetInCU: 0x3DF68, offset: 0x13850D, size: 0x8, addend: 0x0, symName: __ZN8nlohmann6detail28json_sax_dom_callback_parserINS_10basic_jsonINSt3__13mapENS3_6vectorENS3_12basic_stringIcNS3_11char_traitsIcEENS3_9allocatorIcEEEEbxydS9_NS_14adl_serializerENS5_IhNS9_IhEEEEEEE12handle_valueIRxEENS3_4pairIbPSF_EEOT_b, symObjAddr: 0x8E2C, symBinAddr: 0x1CC6C, symSize: 0x308 }
  - { offsetInCU: 0x3E7EC, offset: 0x138D91, size: 0x8, addend: 0x0, symName: __ZN8nlohmann6detail28json_sax_dom_callback_parserINS_10basic_jsonINSt3__13mapENS3_6vectorENS3_12basic_stringIcNS3_11char_traitsIcEENS3_9allocatorIcEEEEbxydS9_NS_14adl_serializerENS5_IhNS9_IhEEEEEEE12handle_valueIDnEENS3_4pairIbPSF_EEOT_b, symObjAddr: 0x8B2C, symBinAddr: 0x1C96C, symSize: 0x300 }
  - { offsetInCU: 0x3F02F, offset: 0x1395D4, size: 0x8, addend: 0x0, symName: __ZN8nlohmann6detail28json_sax_dom_callback_parserINS_10basic_jsonINSt3__13mapENS3_6vectorENS3_12basic_stringIcNS3_11char_traitsIcEENS3_9allocatorIcEEEEbxydS9_NS_14adl_serializerENS5_IhNS9_IhEEEEEEE12start_objectEm, symObjAddr: 0x540C, symBinAddr: 0x19298, symSize: 0x24C }
  - { offsetInCU: 0x3F7BF, offset: 0x139D64, size: 0x8, addend: 0x0, symName: __ZN8nlohmann6detail28json_sax_dom_callback_parserINS_10basic_jsonINSt3__13mapENS3_6vectorENS3_12basic_stringIcNS3_11char_traitsIcEENS3_9allocatorIcEEEEbxydS9_NS_14adl_serializerENS5_IhNS9_IhEEEEEEE10end_objectEv, symObjAddr: 0x5658, symBinAddr: 0x194E4, symSize: 0x1B4 }
  - { offsetInCU: 0x3FD2A, offset: 0x13A2CF, size: 0x8, addend: 0x0, symName: __ZN8nlohmann6detail28json_sax_dom_callback_parserINS_10basic_jsonINSt3__13mapENS3_6vectorENS3_12basic_stringIcNS3_11char_traitsIcEENS3_9allocatorIcEEEEbxydS9_NS_14adl_serializerENS5_IhNS9_IhEEEEEEE3keyERSB_, symObjAddr: 0x580C, symBinAddr: 0x19698, symSize: 0x140 }
  - { offsetInCU: 0x3FD35, offset: 0x13A2DA, size: 0x8, addend: 0x0, symName: __ZN8nlohmann6detail28json_sax_dom_callback_parserINS_10basic_jsonINSt3__13mapENS3_6vectorENS3_12basic_stringIcNS3_11char_traitsIcEENS3_9allocatorIcEEEEbxydS9_NS_14adl_serializerENS5_IhNS9_IhEEEEEEE12handle_valueIRSB_EENS3_4pairIbPSF_EEOT_b, symObjAddr: 0x9134, symBinAddr: 0x1CF74, symSize: 0x2EC }
  - { offsetInCU: 0x404E3, offset: 0x13AA88, size: 0x8, addend: 0x0, symName: __ZN8nlohmann6detail28json_sax_dom_callback_parserINS_10basic_jsonINSt3__13mapENS3_6vectorENS3_12basic_stringIcNS3_11char_traitsIcEENS3_9allocatorIcEEEEbxydS9_NS_14adl_serializerENS5_IhNS9_IhEEEEEEE12handle_valueIRyEENS3_4pairIbPSF_EEOT_b, symObjAddr: 0x9420, symBinAddr: 0x1D260, symSize: 0x308 }
  - { offsetInCU: 0x40D62, offset: 0x13B307, size: 0x8, addend: 0x0, symName: __ZN8nlohmann6detail28json_sax_dom_callback_parserINS_10basic_jsonINSt3__13mapENS3_6vectorENS3_12basic_stringIcNS3_11char_traitsIcEENS3_9allocatorIcEEEEbxydS9_NS_14adl_serializerENS5_IhNS9_IhEEEEEEE12handle_valueIRdEENS3_4pairIbPSF_EEOT_b, symObjAddr: 0x851C, symBinAddr: 0x1C35C, symSize: 0x308 }
  - { offsetInCU: 0x415E3, offset: 0x13BB88, size: 0x8, addend: 0x0, symName: __ZN8nlohmann6detail28json_sax_dom_callback_parserINS_10basic_jsonINSt3__13mapENS3_6vectorENS3_12basic_stringIcNS3_11char_traitsIcEENS3_9allocatorIcEEEEbxydS9_NS_14adl_serializerENS5_IhNS9_IhEEEEEEE3keyERSB_, symObjAddr: 0x580C, symBinAddr: 0x19698, symSize: 0x140 }
  - { offsetInCU: 0x41925, offset: 0x13BECA, size: 0x8, addend: 0x0, symName: __ZNSt3__16vectorIbNS_9allocatorIbEEE9push_backERKb, symObjAddr: 0x4DAC, symBinAddr: 0x18C38, symSize: 0xA4 }
  - { offsetInCU: 0x419FF, offset: 0x13BFA4, size: 0x8, addend: 0x0, symName: __ZNSt3__16vectorIbNS_9allocatorIbEEE7reserveEm, symObjAddr: 0x4E50, symBinAddr: 0x18CDC, symSize: 0xC0 }
  - { offsetInCU: 0x41A1A, offset: 0x13BFBF, size: 0x8, addend: 0x0, symName: __ZN8nlohmann6detail28json_sax_dom_callback_parserINS_10basic_jsonINSt3__13mapENS3_6vectorENS3_12basic_stringIcNS3_11char_traitsIcEENS3_9allocatorIcEEEEbxydS9_NS_14adl_serializerENS5_IhNS9_IhEEEEEEE11parse_errorINS0_12out_of_rangeEEEbmRKSB_RKT_, symObjAddr: 0x5CBC, symBinAddr: 0x19B48, symSize: 0x54 }
  - { offsetInCU: 0x41A86, offset: 0x13C02B, size: 0x8, addend: 0x0, symName: __ZN8nlohmann6detail11parse_errorC1ERKS1_, symObjAddr: 0x9728, symBinAddr: 0x1D568, symSize: 0x60 }
  - { offsetInCU: 0x41BE3, offset: 0x13C188, size: 0x8, addend: 0x0, symName: __ZN8nlohmann6detail11parse_error15position_stringERKNS0_10position_tE, symObjAddr: 0x97C0, symBinAddr: 0x1D600, symSize: 0x178 }
  - { offsetInCU: 0x427BC, offset: 0x13CD61, size: 0x8, addend: 0x0, symName: __ZN8nlohmann6detail10lexer_baseINS_10basic_jsonINSt3__13mapENS3_6vectorENS3_12basic_stringIcNS3_11char_traitsIcEENS3_9allocatorIcEEEEbxydS9_NS_14adl_serializerENS5_IhNS9_IhEEEEEEE15token_type_nameENSG_10token_typeE, symObjAddr: 0x9938, symBinAddr: 0x1D778, symSize: 0x24 }
  - { offsetInCU: 0x427E0, offset: 0x13CD85, size: 0x8, addend: 0x0, symName: __ZN8nlohmann6detail11parse_errorD1Ev, symObjAddr: 0x4250, symBinAddr: 0x180DC, symSize: 0x34 }
  - { offsetInCU: 0x429BF, offset: 0x13CF64, size: 0x8, addend: 0x0, symName: __ZN8nlohmann6detail19json_sax_dom_parserINS_10basic_jsonINSt3__13mapENS3_6vectorENS3_12basic_stringIcNS3_11char_traitsIcEENS3_9allocatorIcEEEEbxydS9_NS_14adl_serializerENS5_IhNS9_IhEEEEEEE12handle_valueIRbEEPSF_OT_, symObjAddr: 0xA394, symBinAddr: 0x1E1D4, symSize: 0x1AC }
  - { offsetInCU: 0x4306A, offset: 0x13D60F, size: 0x8, addend: 0x0, symName: __ZNSt3__16vectorIN8nlohmann10basic_jsonINS_3mapES0_NS_12basic_stringIcNS_11char_traitsIcEENS_9allocatorIcEEEEbxydS7_NS1_14adl_serializerENS0_IhNS7_IhEEEEEENS7_ISD_EEE24__emplace_back_slow_pathIJRbEEEvDpOT_, symObjAddr: 0xA540, symBinAddr: 0x1E380, symSize: 0xE8 }
  - { offsetInCU: 0x4307E, offset: 0x13D623, size: 0x8, addend: 0x0, symName: __ZN8nlohmann6detail19json_sax_dom_parserINS_10basic_jsonINSt3__13mapENS3_6vectorENS3_12basic_stringIcNS3_11char_traitsIcEENS3_9allocatorIcEEEEbxydS9_NS_14adl_serializerENS5_IhNS9_IhEEEEEEE11start_arrayEm, symObjAddr: 0x9BFC, symBinAddr: 0x1DA3C, symSize: 0x214 }
  - { offsetInCU: 0x437B2, offset: 0x13DD57, size: 0x8, addend: 0x0, symName: __ZN8nlohmann6detail19json_sax_dom_parserINS_10basic_jsonINSt3__13mapENS3_6vectorENS3_12basic_stringIcNS3_11char_traitsIcEENS3_9allocatorIcEEEEbxydS9_NS_14adl_serializerENS5_IhNS9_IhEEEEEEE12handle_valueIRxEEPSF_OT_, symObjAddr: 0xA888, symBinAddr: 0x1E6C8, symSize: 0x1AC }
  - { offsetInCU: 0x43E87, offset: 0x13E42C, size: 0x8, addend: 0x0, symName: __ZNSt3__16vectorIN8nlohmann10basic_jsonINS_3mapES0_NS_12basic_stringIcNS_11char_traitsIcEENS_9allocatorIcEEEEbxydS7_NS1_14adl_serializerENS0_IhNS7_IhEEEEEENS7_ISD_EEE24__emplace_back_slow_pathIJRxEEEvDpOT_, symObjAddr: 0xAA34, symBinAddr: 0x1E874, symSize: 0xE8 }
  - { offsetInCU: 0x43E9B, offset: 0x13E440, size: 0x8, addend: 0x0, symName: __ZN8nlohmann6detail19json_sax_dom_parserINS_10basic_jsonINSt3__13mapENS3_6vectorENS3_12basic_stringIcNS3_11char_traitsIcEENS3_9allocatorIcEEEEbxydS9_NS_14adl_serializerENS5_IhNS9_IhEEEEEEE12handle_valueIDnEEPSF_OT_, symObjAddr: 0xA628, symBinAddr: 0x1E468, symSize: 0x190 }
  - { offsetInCU: 0x444DB, offset: 0x13EA80, size: 0x8, addend: 0x0, symName: __ZNSt3__16vectorIN8nlohmann10basic_jsonINS_3mapES0_NS_12basic_stringIcNS_11char_traitsIcEENS_9allocatorIcEEEEbxydS7_NS1_14adl_serializerENS0_IhNS7_IhEEEEEENS7_ISD_EEE24__emplace_back_slow_pathIJDnEEEvDpOT_, symObjAddr: 0xA7B8, symBinAddr: 0x1E5F8, symSize: 0xD0 }
  - { offsetInCU: 0x444EF, offset: 0x13EA94, size: 0x8, addend: 0x0, symName: __ZN8nlohmann6detail19json_sax_dom_parserINS_10basic_jsonINSt3__13mapENS3_6vectorENS3_12basic_stringIcNS3_11char_traitsIcEENS3_9allocatorIcEEEEbxydS9_NS_14adl_serializerENS5_IhNS9_IhEEEEEEE12start_objectEm, symObjAddr: 0x99E8, symBinAddr: 0x1D828, symSize: 0x214 }
  - { offsetInCU: 0x44C23, offset: 0x13F1C8, size: 0x8, addend: 0x0, symName: __ZN8nlohmann6detail19json_sax_dom_parserINS_10basic_jsonINSt3__13mapENS3_6vectorENS3_12basic_stringIcNS3_11char_traitsIcEENS3_9allocatorIcEEEEbxydS9_NS_14adl_serializerENS5_IhNS9_IhEEEEEEE12handle_valueIRSB_EEPSF_OT_, symObjAddr: 0xAB1C, symBinAddr: 0x1E95C, symSize: 0x13C }
  - { offsetInCU: 0x44F75, offset: 0x13F51A, size: 0x8, addend: 0x0, symName: __ZNSt3__16vectorIN8nlohmann10basic_jsonINS_3mapES0_NS_12basic_stringIcNS_11char_traitsIcEENS_9allocatorIcEEEEbxydS7_NS1_14adl_serializerENS0_IhNS7_IhEEEEEENS7_ISD_EEE12emplace_backIJRS9_EEEvDpOT_, symObjAddr: 0xAC58, symBinAddr: 0x1EA98, symSize: 0x104 }
  - { offsetInCU: 0x44F89, offset: 0x13F52E, size: 0x8, addend: 0x0, symName: __ZN8nlohmann6detail19json_sax_dom_parserINS_10basic_jsonINSt3__13mapENS3_6vectorENS3_12basic_stringIcNS3_11char_traitsIcEENS3_9allocatorIcEEEEbxydS9_NS_14adl_serializerENS5_IhNS9_IhEEEEEEE12handle_valueIRyEEPSF_OT_, symObjAddr: 0xAD5C, symBinAddr: 0x1EB9C, symSize: 0x1AC }
  - { offsetInCU: 0x4565E, offset: 0x13FC03, size: 0x8, addend: 0x0, symName: __ZNSt3__16vectorIN8nlohmann10basic_jsonINS_3mapES0_NS_12basic_stringIcNS_11char_traitsIcEENS_9allocatorIcEEEEbxydS7_NS1_14adl_serializerENS0_IhNS7_IhEEEEEENS7_ISD_EEE24__emplace_back_slow_pathIJRyEEEvDpOT_, symObjAddr: 0xAF08, symBinAddr: 0x1ED48, symSize: 0xE8 }
  - { offsetInCU: 0x45672, offset: 0x13FC17, size: 0x8, addend: 0x0, symName: __ZN8nlohmann6detail19json_sax_dom_parserINS_10basic_jsonINSt3__13mapENS3_6vectorENS3_12basic_stringIcNS3_11char_traitsIcEENS3_9allocatorIcEEEEbxydS9_NS_14adl_serializerENS5_IhNS9_IhEEEEEEE12handle_valueIRdEEPSF_OT_, symObjAddr: 0xA100, symBinAddr: 0x1DF40, symSize: 0x1AC }
  - { offsetInCU: 0x45D4D, offset: 0x1402F2, size: 0x8, addend: 0x0, symName: __ZNSt3__16vectorIN8nlohmann10basic_jsonINS_3mapES0_NS_12basic_stringIcNS_11char_traitsIcEENS_9allocatorIcEEEEbxydS7_NS1_14adl_serializerENS0_IhNS7_IhEEEEEENS7_ISD_EEE24__emplace_back_slow_pathIJRdEEEvDpOT_, symObjAddr: 0xA2AC, symBinAddr: 0x1E0EC, symSize: 0xE8 }
  - { offsetInCU: 0x45D70, offset: 0x140315, size: 0x8, addend: 0x0, symName: __ZNSt3__16__treeINS_12__value_typeINS_12basic_stringIcNS_11char_traitsIcEENS_9allocatorIcEEEEN8nlohmann10basic_jsonINS_3mapENS_6vectorES7_bxydS5_NS8_14adl_serializerENSB_IhNS5_IhEEEEEEEENS_19__map_value_compareIS7_SG_NS_4lessIvEELb1EEENS5_ISG_EEE25__emplace_unique_key_argsIS7_JRKNS_21piecewise_construct_tENS_5tupleIJRKS7_EEENSR_IJEEEEEENS_4pairINS_15__tree_iteratorISG_PNS_11__tree_nodeISG_PvEElEEbEERKT_DpOT0_, symObjAddr: 0x833C, symBinAddr: 0x1C17C, symSize: 0x94 }
  - { offsetInCU: 0x45F03, offset: 0x1404A8, size: 0x8, addend: 0x0, symName: __ZN8nlohmann6detail19json_sax_dom_parserINS_10basic_jsonINSt3__13mapENS3_6vectorENS3_12basic_stringIcNS3_11char_traitsIcEENS3_9allocatorIcEEEEbxydS9_NS_14adl_serializerENS5_IhNS9_IhEEEEEEE11parse_errorINS0_12out_of_rangeEEEbmRKSB_RKT_, symObjAddr: 0x9E10, symBinAddr: 0x1DC50, symSize: 0x54 }
  - { offsetInCU: 0x45FE1, offset: 0x140586, size: 0x8, addend: 0x0, symName: __ZNSt3__16vectorIbNS_9allocatorIbEEE7reserveEm, symObjAddr: 0x4E50, symBinAddr: 0x18CDC, symSize: 0xC0 }
  - { offsetInCU: 0x46481, offset: 0x140A26, size: 0x8, addend: 0x0, symName: __ZNKSt3__16vectorIbNS_9allocatorIbEEE20__throw_length_errorB7v160006Ev, symObjAddr: 0x4F10, symBinAddr: 0x18D9C, symSize: 0x14 }
  - { offsetInCU: 0x464A9, offset: 0x140A4E, size: 0x8, addend: 0x0, symName: __ZNSt3__16vectorIbNS_9allocatorIbEEE11__vallocateB7v160006Em, symObjAddr: 0x4F24, symBinAddr: 0x18DB0, symSize: 0x44 }
  - { offsetInCU: 0x465ED, offset: 0x140B92, size: 0x8, addend: 0x0, symName: __ZNSt3__16vectorIbNS_9allocatorIbEEE11__vallocateB7v160006Em, symObjAddr: 0x4F24, symBinAddr: 0x18DB0, symSize: 0x44 }
  - { offsetInCU: 0x46684, offset: 0x140C29, size: 0x8, addend: 0x0, symName: __ZNSt3__16vectorIbNS_9allocatorIbEEE18__construct_at_endINS_14__bit_iteratorIS3_Lb0ELm0EEEEENS_9enable_ifIXsr27__is_cpp17_forward_iteratorIT_EE5valueEvE4typeES8_S8_, symObjAddr: 0x4F68, symBinAddr: 0x18DF4, symSize: 0xE8 }
  - { offsetInCU: 0x46695, offset: 0x140C3A, size: 0x8, addend: 0x0, symName: __ZNSt3__16vectorIbNS_9allocatorIbEEE18__construct_at_endINS_14__bit_iteratorIS3_Lb0ELm0EEEEENS_9enable_ifIXsr27__is_cpp17_forward_iteratorIT_EE5valueEvE4typeES8_S8_, symObjAddr: 0x4F68, symBinAddr: 0x18DF4, symSize: 0xE8 }
  - { offsetInCU: 0x46DD2, offset: 0x141377, size: 0x8, addend: 0x0, symName: __ZNKSt3__18functionIFbiN8nlohmann6detail13parse_event_tERNS1_10basic_jsonINS_3mapENS_6vectorENS_12basic_stringIcNS_11char_traitsIcEENS_9allocatorIcEEEEbxydSA_NS1_14adl_serializerENS6_IhNSA_IhEEEEEEEEclEiS3_SH_, symObjAddr: 0x5E78, symBinAddr: 0x19D04, symSize: 0x40 }
  - { offsetInCU: 0x46E6F, offset: 0x141414, size: 0x8, addend: 0x0, symName: __ZN8nlohmann6detail28json_sax_dom_callback_parserINS_10basic_jsonINSt3__13mapENS3_6vectorENS3_12basic_stringIcNS3_11char_traitsIcEENS3_9allocatorIcEEEEbxydS9_NS_14adl_serializerENS5_IhNS9_IhEEEEEEE12handle_valueINS0_7value_tEEENS3_4pairIbPSF_EEOT_b, symObjAddr: 0x5EB8, symBinAddr: 0x19D44, symSize: 0x300 }
  - { offsetInCU: 0x46E7F, offset: 0x141424, size: 0x8, addend: 0x0, symName: __ZN8nlohmann6detail28json_sax_dom_callback_parserINS_10basic_jsonINSt3__13mapENS3_6vectorENS3_12basic_stringIcNS3_11char_traitsIcEENS3_9allocatorIcEEEEbxydS9_NS_14adl_serializerENS5_IhNS9_IhEEEEEEE12handle_valueINS0_7value_tEEENS3_4pairIbPSF_EEOT_b, symObjAddr: 0x5EB8, symBinAddr: 0x19D44, symSize: 0x300 }
  - { offsetInCU: 0x47671, offset: 0x141C16, size: 0x8, addend: 0x0, symName: __ZNKSt3__16vectorIPN8nlohmann10basic_jsonINS_3mapES0_NS_12basic_stringIcNS_11char_traitsIcEENS_9allocatorIcEEEEbxydS7_NS1_14adl_serializerENS0_IhNS7_IhEEEEEENS7_ISE_EEE20__throw_length_errorB7v160006Ev, symObjAddr: 0x6604, symBinAddr: 0x1A444, symSize: 0x14 }
  - { offsetInCU: 0x47699, offset: 0x141C3E, size: 0x8, addend: 0x0, symName: __ZNSt3__119__allocate_at_leastB7v160006INS_9allocatorIPN8nlohmann10basic_jsonINS_3mapENS_6vectorENS_12basic_stringIcNS_11char_traitsIcEENS1_IcEEEEbxydS1_NS2_14adl_serializerENS5_IhNS1_IhEEEEEEEEEENS_19__allocation_resultINS_16allocator_traitsIT_E7pointerEEERSJ_m, symObjAddr: 0x6618, symBinAddr: 0x1A458, symSize: 0x34 }
  - { offsetInCU: 0x477F2, offset: 0x141D97, size: 0x8, addend: 0x0, symName: __ZN8nlohmann10basic_jsonINSt3__13mapENS1_6vectorENS1_12basic_stringIcNS1_11char_traitsIcEENS1_9allocatorIcEEEEbxydS7_NS_14adl_serializerENS3_IhNS7_IhEEEEEC2ERKSD_, symObjAddr: 0x6A9C, symBinAddr: 0x1A8DC, symSize: 0xA8 }
  - { offsetInCU: 0x47981, offset: 0x141F26, size: 0x8, addend: 0x0, symName: __ZN8nlohmann6detail9iter_implINS_10basic_jsonINSt3__13mapENS3_6vectorENS3_12basic_stringIcNS3_11char_traitsIcEENS3_9allocatorIcEEEEbxydS9_NS_14adl_serializerENS5_IhNS9_IhEEEEEEEC2EPSF_, symObjAddr: 0x78B8, symBinAddr: 0x1B6F8, symSize: 0x48 }
  - { offsetInCU: 0x479F8, offset: 0x141F9D, size: 0x8, addend: 0x0, symName: __ZN8nlohmann6detail9iter_implINS_10basic_jsonINSt3__13mapENS3_6vectorENS3_12basic_stringIcNS3_11char_traitsIcEENS3_9allocatorIcEEEEbxydS9_NS_14adl_serializerENS5_IhNS9_IhEEEEEEE9set_beginEv, symObjAddr: 0x7830, symBinAddr: 0x1B670, symSize: 0x88 }
  - { offsetInCU: 0x47AB2, offset: 0x142057, size: 0x8, addend: 0x0, symName: __ZN8nlohmann6detail9iter_implINS_10basic_jsonINSt3__13mapENS3_6vectorENS3_12basic_stringIcNS3_11char_traitsIcEENS3_9allocatorIcEEEEbxydS9_NS_14adl_serializerENS5_IhNS9_IhEEEEEEE7set_endEv, symObjAddr: 0x7BA4, symBinAddr: 0x1B9E4, symSize: 0x7C }
  - { offsetInCU: 0x47B6A, offset: 0x14210F, size: 0x8, addend: 0x0, symName: __ZNK8nlohmann6detail9iter_implINS_10basic_jsonINSt3__13mapENS3_6vectorENS3_12basic_stringIcNS3_11char_traitsIcEENS3_9allocatorIcEEEEbxydS9_NS_14adl_serializerENS5_IhNS9_IhEEEEEEEeqERKSG_, symObjAddr: 0x7900, symBinAddr: 0x1B740, symSize: 0x104 }
  - { offsetInCU: 0x47DE3, offset: 0x142388, size: 0x8, addend: 0x0, symName: __ZNK8nlohmann6detail9iter_implINS_10basic_jsonINSt3__13mapENS3_6vectorENS3_12basic_stringIcNS3_11char_traitsIcEENS3_9allocatorIcEEEEbxydS9_NS_14adl_serializerENS5_IhNS9_IhEEEEEEEptEv, symObjAddr: 0x664C, symBinAddr: 0x1A48C, symSize: 0x114 }
  - { offsetInCU: 0x480FF, offset: 0x1426A4, size: 0x8, addend: 0x0, symName: __ZN8nlohmann6detail9iter_implINS_10basic_jsonINSt3__13mapENS3_6vectorENS3_12basic_stringIcNS3_11char_traitsIcEENS3_9allocatorIcEEEEbxydS9_NS_14adl_serializerENS5_IhNS9_IhEEEEEEEppEv, symObjAddr: 0x6A18, symBinAddr: 0x1A858, symSize: 0x84 }
  - { offsetInCU: 0x482A1, offset: 0x142846, size: 0x8, addend: 0x0, symName: __ZN8nlohmann10basic_jsonINSt3__13mapENS1_6vectorENS1_12basic_stringIcNS1_11char_traitsIcEENS1_9allocatorIcEEEEbxydS7_NS_14adl_serializerENS3_IhNS7_IhEEEEEC2ERKSD_, symObjAddr: 0x6A9C, symBinAddr: 0x1A8DC, symSize: 0xA8 }
  - { offsetInCU: 0x482AC, offset: 0x142851, size: 0x8, addend: 0x0, symName: __ZN8nlohmann10basic_jsonINSt3__13mapENS1_6vectorENS1_12basic_stringIcNS1_11char_traitsIcEENS1_9allocatorIcEEEEbxydS7_NS_14adl_serializerENS3_IhNS7_IhEEEEE5eraseINS_6detail9iter_implISD_EELi0EEET_SI_, symObjAddr: 0x6760, symBinAddr: 0x1A5A0, symSize: 0x2B8 }
  - { offsetInCU: 0x48BC7, offset: 0x14316C, size: 0x8, addend: 0x0, symName: __ZN8nlohmann6detail28json_sax_dom_callback_parserINS_10basic_jsonINSt3__13mapENS3_6vectorENS3_12basic_stringIcNS3_11char_traitsIcEENS3_9allocatorIcEEEEbxydS9_NS_14adl_serializerENS5_IhNS9_IhEEEEEEE10end_objectEv.cold.1, symObjAddr: 0xBE58, symBinAddr: 0x176624, symSize: 0x28 }
  - { offsetInCU: 0x48BDF, offset: 0x143184, size: 0x8, addend: 0x0, symName: __ZN8nlohmann6detail28json_sax_dom_callback_parserINS_10basic_jsonINSt3__13mapENS3_6vectorENS3_12basic_stringIcNS3_11char_traitsIcEENS3_9allocatorIcEEEEbxydS9_NS_14adl_serializerENS5_IhNS9_IhEEEEEEE10end_objectEv.cold.2, symObjAddr: 0xBE80, symBinAddr: 0x17664C, symSize: 0x28 }
  - { offsetInCU: 0x48C35, offset: 0x1431DA, size: 0x8, addend: 0x0, symName: __ZN8nlohmann10basic_jsonINSt3__13mapENS1_6vectorENS1_12basic_stringIcNS1_11char_traitsIcEENS1_9allocatorIcEEEEbxydS7_NS_14adl_serializerENS3_IhNS7_IhEEEEEC2IRS9_S9_Li0EEEOT_, symObjAddr: 0x82F4, symBinAddr: 0x1C134, symSize: 0x48 }
  - { offsetInCU: 0x48DDA, offset: 0x14337F, size: 0x8, addend: 0x0, symName: __ZNSt3__16vectorIN8nlohmann10basic_jsonINS_3mapES0_NS_12basic_stringIcNS_11char_traitsIcEENS_9allocatorIcEEEEbxydS7_NS1_14adl_serializerENS0_IhNS7_IhEEEEEENS7_ISD_EEE22__base_destruct_at_endB7v160006EPSD_, symObjAddr: 0x7668, symBinAddr: 0x1B4A8, symSize: 0x60 }
  - { offsetInCU: 0x48EC3, offset: 0x143468, size: 0x8, addend: 0x0, symName: __ZN8nlohmann6detail28json_sax_dom_callback_parserINS_10basic_jsonINSt3__13mapENS3_6vectorENS3_12basic_stringIcNS3_11char_traitsIcEENS3_9allocatorIcEEEEbxydS9_NS_14adl_serializerENS5_IhNS9_IhEEEEEEE9end_arrayEv.cold.1, symObjAddr: 0xBEA8, symBinAddr: 0x176674, symSize: 0x28 }
  - { offsetInCU: 0x48EDB, offset: 0x143480, size: 0x8, addend: 0x0, symName: __ZN8nlohmann6detail28json_sax_dom_callback_parserINS_10basic_jsonINSt3__13mapENS3_6vectorENS3_12basic_stringIcNS3_11char_traitsIcEENS3_9allocatorIcEEEEbxydS9_NS_14adl_serializerENS5_IhNS9_IhEEEEEEE9end_arrayEv.cold.2, symObjAddr: 0xBED0, symBinAddr: 0x17669C, symSize: 0x28 }
  - { offsetInCU: 0x48EF3, offset: 0x143498, size: 0x8, addend: 0x0, symName: __ZN8nlohmann6detail12out_of_rangeC1ERKS1_, symObjAddr: 0x8490, symBinAddr: 0x1C2D0, symSize: 0x54 }
  - { offsetInCU: 0x48FD8, offset: 0x14357D, size: 0x8, addend: 0x0, symName: __ZN8nlohmann6detail12out_of_rangeD1Ev, symObjAddr: 0x5E44, symBinAddr: 0x19CD0, symSize: 0x34 }
  - { offsetInCU: 0x49294, offset: 0x143839, size: 0x8, addend: 0x0, symName: __ZNSt3__16vectorIN8nlohmann10basic_jsonINS_3mapES0_NS_12basic_stringIcNS_11char_traitsIcEENS_9allocatorIcEEEEbxydS7_NS1_14adl_serializerENS0_IhNS7_IhEEEEEENS7_ISD_EEE21__push_back_slow_pathISD_EEvOT_, symObjAddr: 0x6204, symBinAddr: 0x1A044, symSize: 0xEC }
  - { offsetInCU: 0x49552, offset: 0x143AF7, size: 0x8, addend: 0x0, symName: __ZN8nlohmann6detail28json_sax_dom_callback_parserINS_10basic_jsonINSt3__13mapENS3_6vectorENS3_12basic_stringIcNS3_11char_traitsIcEENS3_9allocatorIcEEEEbxydS9_NS_14adl_serializerENS5_IhNS9_IhEEEEEEE12handle_valueINS0_7value_tEEENS3_4pairIbPSF_EEOT_b.cold.1, symObjAddr: 0xBEF8, symBinAddr: 0x1766C4, symSize: 0x24 }
  - { offsetInCU: 0x4976A, offset: 0x143D0F, size: 0x8, addend: 0x0, symName: __ZNSt3__114__split_bufferIN8nlohmann10basic_jsonINS_3mapENS_6vectorENS_12basic_stringIcNS_11char_traitsIcEENS_9allocatorIcEEEEbxydS8_NS1_14adl_serializerENS4_IhNS8_IhEEEEEERNS8_ISE_EEED2Ev, symObjAddr: 0x6578, symBinAddr: 0x1A3B8, symSize: 0x34 }
  - { offsetInCU: 0x49873, offset: 0x143E18, size: 0x8, addend: 0x0, symName: __ZNKSt3__16vectorIN8nlohmann10basic_jsonINS_3mapES0_NS_12basic_stringIcNS_11char_traitsIcEENS_9allocatorIcEEEEbxydS7_NS1_14adl_serializerENS0_IhNS7_IhEEEEEENS7_ISD_EEE20__throw_length_errorB7v160006Ev, symObjAddr: 0x6364, symBinAddr: 0x1A1A4, symSize: 0x14 }
  - { offsetInCU: 0x4989B, offset: 0x143E40, size: 0x8, addend: 0x0, symName: __ZNSt3__119__allocate_at_leastB7v160006INS_9allocatorIN8nlohmann10basic_jsonINS_3mapENS_6vectorENS_12basic_stringIcNS_11char_traitsIcEENS1_IcEEEEbxydS1_NS2_14adl_serializerENS5_IhNS1_IhEEEEEEEEEENS_19__allocation_resultINS_16allocator_traitsIT_E7pointerEEERSI_m, symObjAddr: 0x6378, symBinAddr: 0x1A1B8, symSize: 0x34 }
  - { offsetInCU: 0x49929, offset: 0x143ECE, size: 0x8, addend: 0x0, symName: __ZNSt3__128__exception_guard_exceptionsINS_29_AllocatorDestroyRangeReverseINS_9allocatorIN8nlohmann10basic_jsonINS_3mapENS_6vectorENS_12basic_stringIcNS_11char_traitsIcEENS2_IcEEEEbxydS2_NS3_14adl_serializerENS6_IhNS2_IhEEEEEEEENS_16reverse_iteratorIPSF_EEEEED2B7v160006Ev, symObjAddr: 0x646C, symBinAddr: 0x1A2AC, symSize: 0x34 }
  - { offsetInCU: 0x49967, offset: 0x143F0C, size: 0x8, addend: 0x0, symName: __ZNKSt3__129_AllocatorDestroyRangeReverseINS_9allocatorIN8nlohmann10basic_jsonINS_3mapENS_6vectorENS_12basic_stringIcNS_11char_traitsIcEENS1_IcEEEEbxydS1_NS2_14adl_serializerENS5_IhNS1_IhEEEEEEEENS_16reverse_iteratorIPSE_EEEclB7v160006Ev, symObjAddr: 0x64A0, symBinAddr: 0x1A2E0, symSize: 0x74 }
  - { offsetInCU: 0x49B77, offset: 0x14411C, size: 0x8, addend: 0x0, symName: __ZNSt3__114__split_bufferIN8nlohmann10basic_jsonINS_3mapENS_6vectorENS_12basic_stringIcNS_11char_traitsIcEENS_9allocatorIcEEEEbxydS8_NS1_14adl_serializerENS4_IhNS8_IhEEEEEERNS8_ISE_EEE17__destruct_at_endB7v160006EPSE_, symObjAddr: 0x65AC, symBinAddr: 0x1A3EC, symSize: 0x58 }
  - { offsetInCU: 0x49D15, offset: 0x1442BA, size: 0x8, addend: 0x0, symName: __ZNK8nlohmann6detail9iter_implINS_10basic_jsonINSt3__13mapENS3_6vectorENS3_12basic_stringIcNS3_11char_traitsIcEENS3_9allocatorIcEEEEbxydS9_NS_14adl_serializerENS5_IhNS9_IhEEEEEEEptEv.cold.3, symObjAddr: 0xBF6C, symBinAddr: 0x176738, symSize: 0x28 }
  - { offsetInCU: 0x49D2D, offset: 0x1442D2, size: 0x8, addend: 0x0, symName: __ZNK8nlohmann6detail9iter_implINS_10basic_jsonINSt3__13mapENS3_6vectorENS3_12basic_stringIcNS3_11char_traitsIcEENS3_9allocatorIcEEEEbxydS9_NS_14adl_serializerENS5_IhNS9_IhEEEEEEEptEv.cold.1, symObjAddr: 0xBF1C, symBinAddr: 0x1766E8, symSize: 0x28 }
  - { offsetInCU: 0x49D45, offset: 0x1442EA, size: 0x8, addend: 0x0, symName: __ZNK8nlohmann6detail9iter_implINS_10basic_jsonINSt3__13mapENS3_6vectorENS3_12basic_stringIcNS3_11char_traitsIcEENS3_9allocatorIcEEEEbxydS9_NS_14adl_serializerENS5_IhNS9_IhEEEEEEEptEv.cold.2, symObjAddr: 0xBF44, symBinAddr: 0x176710, symSize: 0x28 }
  - { offsetInCU: 0x49D62, offset: 0x144307, size: 0x8, addend: 0x0, symName: __ZN8nlohmann6detail16invalid_iterator6createEiRKNSt3__112basic_stringIcNS2_11char_traitsIcEENS2_9allocatorIcEEEE, symObjAddr: 0x7A04, symBinAddr: 0x1B844, symSize: 0x134 }
  - { offsetInCU: 0x4A800, offset: 0x144DA5, size: 0x8, addend: 0x0, symName: __ZNKSt3__111__move_loopINS_17_ClassicAlgPolicyEEclB7v160006IPN8nlohmann10basic_jsonINS_3mapENS_6vectorENS_12basic_stringIcNS_11char_traitsIcEENS_9allocatorIcEEEEbxydSB_NS4_14adl_serializerENS7_IhNSB_IhEEEEEESI_SI_EENS_4pairIT_T1_EESK_T0_SL_, symObjAddr: 0x81EC, symBinAddr: 0x1C02C, symSize: 0xD0 }
  - { offsetInCU: 0x4A9DE, offset: 0x144F83, size: 0x8, addend: 0x0, symName: __ZNSt3__16__treeINS_12__value_typeINS_12basic_stringIcNS_11char_traitsIcEENS_9allocatorIcEEEEN8nlohmann10basic_jsonINS_3mapENS_6vectorES7_bxydS5_NS8_14adl_serializerENSB_IhNS5_IhEEEEEEEENS_19__map_value_compareIS7_SG_NS_4lessIvEELb1EEENS5_ISG_EEE5eraseENS_21__tree_const_iteratorISG_PNS_11__tree_nodeISG_PvEElEE, symObjAddr: 0x7DB0, symBinAddr: 0x1BBF0, symSize: 0x48 }
  - { offsetInCU: 0x4ABDB, offset: 0x145180, size: 0x8, addend: 0x0, symName: __ZN8nlohmann6detail9iter_implINS_10basic_jsonINSt3__13mapENS3_6vectorENS3_12basic_stringIcNS3_11char_traitsIcEENS3_9allocatorIcEEEEbxydS9_NS_14adl_serializerENS5_IhNS9_IhEEEEEEEppEv.cold.1, symObjAddr: 0xBF94, symBinAddr: 0x176760, symSize: 0x28 }
  - { offsetInCU: 0x4AD1B, offset: 0x1452C0, size: 0x8, addend: 0x0, symName: __ZN8nlohmann10basic_jsonINSt3__13mapENS1_6vectorENS1_12basic_stringIcNS1_11char_traitsIcEENS1_9allocatorIcEEEEbxydS7_NS_14adl_serializerENS3_IhNS7_IhEEEEE6createINS2_IS9_SD_NS1_4lessIvEENS7_INS1_4pairIKS9_SD_EEEEEEJRKSL_EEEPT_DpOT0_, symObjAddr: 0x6B44, symBinAddr: 0x1A984, symSize: 0x48 }
  - { offsetInCU: 0x4AFC6, offset: 0x14556B, size: 0x8, addend: 0x0, symName: __ZN8nlohmann10basic_jsonINSt3__13mapENS1_6vectorENS1_12basic_stringIcNS1_11char_traitsIcEENS1_9allocatorIcEEEEbxydS7_NS_14adl_serializerENS3_IhNS7_IhEEEEE6createINS3_ISD_NS7_ISD_EEEEJRKSG_EEEPT_DpOT0_, symObjAddr: 0x7340, symBinAddr: 0x1B180, symSize: 0x48 }
  - { offsetInCU: 0x4B271, offset: 0x145816, size: 0x8, addend: 0x0, symName: __ZN8nlohmann10basic_jsonINSt3__13mapENS1_6vectorENS1_12basic_stringIcNS1_11char_traitsIcEENS1_9allocatorIcEEEEbxydS7_NS_14adl_serializerENS3_IhNS7_IhEEEEE6createIS9_JRKS9_EEEPT_DpOT0_, symObjAddr: 0x76C8, symBinAddr: 0x1B508, symSize: 0x48 }
  - { offsetInCU: 0x4B4E5, offset: 0x145A8A, size: 0x8, addend: 0x0, symName: __ZN8nlohmann10basic_jsonINSt3__13mapENS1_6vectorENS1_12basic_stringIcNS1_11char_traitsIcEENS1_9allocatorIcEEEEbxydS7_NS_14adl_serializerENS3_IhNS7_IhEEEEE6createINS_27byte_container_with_subtypeISC_EEJRKSG_EEEPT_DpOT0_, symObjAddr: 0x7710, symBinAddr: 0x1B550, symSize: 0x50 }
  - { offsetInCU: 0x4B9A3, offset: 0x145F48, size: 0x8, addend: 0x0, symName: __ZNSt3__13mapINS_12basic_stringIcNS_11char_traitsIcEENS_9allocatorIcEEEEN8nlohmann10basic_jsonIS0_NS_6vectorES6_bxydS4_NS7_14adl_serializerENS9_IhNS4_IhEEEEEENS_4lessIvEENS4_INS_4pairIKS6_SD_EEEEEC2B7v160006ERKSK_, symObjAddr: 0x6B8C, symBinAddr: 0x1A9CC, symSize: 0x54 }
  - { offsetInCU: 0x4BCEC, offset: 0x146291, size: 0x8, addend: 0x0, symName: __ZNSt3__13mapINS_12basic_stringIcNS_11char_traitsIcEENS_9allocatorIcEEEEN8nlohmann10basic_jsonIS0_NS_6vectorES6_bxydS4_NS7_14adl_serializerENS9_IhNS4_IhEEEEEENS_4lessIvEENS4_INS_4pairIKS6_SD_EEEEE6insertB7v160006INS_20__map_const_iteratorINS_21__tree_const_iteratorINS_12__value_typeIS6_SD_EEPNS_11__tree_nodeISP_PvEElEEEEEEvT_SW_, symObjAddr: 0x6BE0, symBinAddr: 0x1AA20, symSize: 0x84 }
  - { offsetInCU: 0x4BEDA, offset: 0x14647F, size: 0x8, addend: 0x0, symName: __ZNSt3__16__treeINS_12__value_typeINS_12basic_stringIcNS_11char_traitsIcEENS_9allocatorIcEEEEN8nlohmann10basic_jsonINS_3mapENS_6vectorES7_bxydS5_NS8_14adl_serializerENSB_IhNS5_IhEEEEEEEENS_19__map_value_compareIS7_SG_NS_4lessIvEELb1EEENS5_ISG_EEE7destroyEPNS_11__tree_nodeISG_PvEE, symObjAddr: 0x72DC, symBinAddr: 0x1B11C, symSize: 0x64 }
  - { offsetInCU: 0x4C305, offset: 0x1468AA, size: 0x8, addend: 0x0, symName: __ZNSt3__16__treeINS_12__value_typeINS_12basic_stringIcNS_11char_traitsIcEENS_9allocatorIcEEEEN8nlohmann10basic_jsonINS_3mapENS_6vectorES7_bxydS5_NS8_14adl_serializerENSB_IhNS5_IhEEEEEEEENS_19__map_value_compareIS7_SG_NS_4lessIvEELb1EEENS5_ISG_EEE30__emplace_hint_unique_key_argsIS7_JRKNS_4pairIKS7_SF_EEEEENSO_INS_15__tree_iteratorISG_PNS_11__tree_nodeISG_PvEElEEbEENS_21__tree_const_iteratorISG_SX_lEERKT_DpOT0_, symObjAddr: 0x6C64, symBinAddr: 0x1AAA4, symSize: 0x80 }
  - { offsetInCU: 0x4C4D2, offset: 0x146A77, size: 0x8, addend: 0x0, symName: __ZNSt3__16__treeINS_12__value_typeINS_12basic_stringIcNS_11char_traitsIcEENS_9allocatorIcEEEEN8nlohmann10basic_jsonINS_3mapENS_6vectorES7_bxydS5_NS8_14adl_serializerENSB_IhNS5_IhEEEEEEEENS_19__map_value_compareIS7_SG_NS_4lessIvEELb1EEENS5_ISG_EEE12__find_equalIS7_EERPNS_16__tree_node_baseIPvEENS_21__tree_const_iteratorISG_PNS_11__tree_nodeISG_SP_EElEERPNS_15__tree_end_nodeISR_EESS_RKT_, symObjAddr: 0x6CE4, symBinAddr: 0x1AB24, symSize: 0x198 }
  - { offsetInCU: 0x4C87D, offset: 0x146E22, size: 0x8, addend: 0x0, symName: __ZNSt3__16__treeINS_12__value_typeINS_12basic_stringIcNS_11char_traitsIcEENS_9allocatorIcEEEEN8nlohmann10basic_jsonINS_3mapENS_6vectorES7_bxydS5_NS8_14adl_serializerENSB_IhNS5_IhEEEEEEEENS_19__map_value_compareIS7_SG_NS_4lessIvEELb1EEENS5_ISG_EEE16__construct_nodeIJRKNS_4pairIKS7_SF_EEEEENS_10unique_ptrINS_11__tree_nodeISG_PvEENS_22__tree_node_destructorINS5_ISW_EEEEEEDpOT_, symObjAddr: 0x6E7C, symBinAddr: 0x1ACBC, symSize: 0x80 }
  - { offsetInCU: 0x4CB3F, offset: 0x1470E4, size: 0x8, addend: 0x0, symName: __ZNSt3__16__treeINS_12__value_typeINS_12basic_stringIcNS_11char_traitsIcEENS_9allocatorIcEEEEN8nlohmann10basic_jsonINS_3mapENS_6vectorES7_bxydS5_NS8_14adl_serializerENSB_IhNS5_IhEEEEEEEENS_19__map_value_compareIS7_SG_NS_4lessIvEELb1EEENS5_ISG_EEE16__insert_node_atEPNS_15__tree_end_nodeIPNS_16__tree_node_baseIPvEEEERSR_SR_, symObjAddr: 0x6EFC, symBinAddr: 0x1AD3C, symSize: 0x54 }
  - { offsetInCU: 0x4CC57, offset: 0x1471FC, size: 0x8, addend: 0x0, symName: __ZNKSt3__14lessIvEclB7v160006IRKNS_12basic_stringIcNS_11char_traitsIcEENS_9allocatorIcEEEESA_EEDTltclsr3stdE7forwardIT_Efp_Eclsr3stdE7forwardIT0_Efp0_EEOSB_OSC_, symObjAddr: 0x6FEC, symBinAddr: 0x1AE2C, symSize: 0x7C }
  - { offsetInCU: 0x4CE65, offset: 0x14740A, size: 0x8, addend: 0x0, symName: __ZNSt3__16__treeINS_12__value_typeINS_12basic_stringIcNS_11char_traitsIcEENS_9allocatorIcEEEEN8nlohmann10basic_jsonINS_3mapENS_6vectorES7_bxydS5_NS8_14adl_serializerENSB_IhNS5_IhEEEEEEEENS_19__map_value_compareIS7_SG_NS_4lessIvEELb1EEENS5_ISG_EEE12__find_equalIS7_EERPNS_16__tree_node_baseIPvEERPNS_15__tree_end_nodeISR_EERKT_, symObjAddr: 0x6F50, symBinAddr: 0x1AD90, symSize: 0x9C }
  - { offsetInCU: 0x4D23A, offset: 0x1477DF, size: 0x8, addend: 0x0, symName: __ZNSt3__14pairIKNS_12basic_stringIcNS_11char_traitsIcEENS_9allocatorIcEEEEN8nlohmann10basic_jsonINS_3mapENS_6vectorES6_bxydS4_NS8_14adl_serializerENSB_IhNS4_IhEEEEEEEC2ERKSG_, symObjAddr: 0x7068, symBinAddr: 0x1AEA8, symSize: 0x50 }
  - { offsetInCU: 0x4D3B1, offset: 0x147956, size: 0x8, addend: 0x0, symName: __ZNSt3__122__tree_node_destructorINS_9allocatorINS_11__tree_nodeINS_12__value_typeINS_12basic_stringIcNS_11char_traitsIcEENS1_IcEEEEN8nlohmann10basic_jsonINS_3mapENS_6vectorES8_bxydS1_NS9_14adl_serializerENSC_IhNS1_IhEEEEEEEEPvEEEEEclB7v160006EPSJ_, symObjAddr: 0x7250, symBinAddr: 0x1B090, symSize: 0x44 }
  - { offsetInCU: 0x4D641, offset: 0x147BE6, size: 0x8, addend: 0x0, symName: __ZNSt3__116allocator_traitsINS_9allocatorINS_11__tree_nodeINS_12__value_typeINS_12basic_stringIcNS_11char_traitsIcEENS1_IcEEEEN8nlohmann10basic_jsonINS_3mapENS_6vectorES8_bxydS1_NS9_14adl_serializerENSC_IhNS1_IhEEEEEEEEPvEEEEE7destroyB7v160006INS_4pairIKS8_SG_EEvvEEvRSK_PT_, symObjAddr: 0x7294, symBinAddr: 0x1B0D4, symSize: 0x48 }
  - { offsetInCU: 0x4DA42, offset: 0x147FE7, size: 0x8, addend: 0x0, symName: __ZNSt3__16vectorIN8nlohmann10basic_jsonINS_3mapES0_NS_12basic_stringIcNS_11char_traitsIcEENS_9allocatorIcEEEEbxydS7_NS1_14adl_serializerENS0_IhNS7_IhEEEEEENS7_ISD_EEEC2ERKSF_, symObjAddr: 0x7388, symBinAddr: 0x1B1C8, symSize: 0xA0 }
  - { offsetInCU: 0x4DDE6, offset: 0x14838B, size: 0x8, addend: 0x0, symName: __ZNSt3__16vectorIN8nlohmann10basic_jsonINS_3mapES0_NS_12basic_stringIcNS_11char_traitsIcEENS_9allocatorIcEEEEbxydS7_NS1_14adl_serializerENS0_IhNS7_IhEEEEEENS7_ISD_EEE11__vallocateB7v160006Em, symObjAddr: 0x7428, symBinAddr: 0x1B268, symSize: 0x40 }
  - { offsetInCU: 0x4DE60, offset: 0x148405, size: 0x8, addend: 0x0, symName: __ZNSt3__130__uninitialized_allocator_copyB7v160006INS_9allocatorIN8nlohmann10basic_jsonINS_3mapENS_6vectorENS_12basic_stringIcNS_11char_traitsIcEENS1_IcEEEEbxydS1_NS2_14adl_serializerENS5_IhNS1_IhEEEEEEEEPSE_SG_SG_EET2_RT_T0_T1_SH_, symObjAddr: 0x7468, symBinAddr: 0x1B2A8, symSize: 0xA0 }
  - { offsetInCU: 0x4DE71, offset: 0x148416, size: 0x8, addend: 0x0, symName: __ZNSt3__128__exception_guard_exceptionsINS_6vectorIN8nlohmann10basic_jsonINS_3mapES1_NS_12basic_stringIcNS_11char_traitsIcEENS_9allocatorIcEEEEbxydS8_NS2_14adl_serializerENS1_IhNS8_IhEEEEEENS8_ISE_EEE16__destroy_vectorEED2B7v160006Ev, symObjAddr: 0x75A4, symBinAddr: 0x1B3E4, symSize: 0x34 }
  - { offsetInCU: 0x4DFA8, offset: 0x14854D, size: 0x8, addend: 0x0, symName: __ZNSt3__128__exception_guard_exceptionsINS_29_AllocatorDestroyRangeReverseINS_9allocatorIN8nlohmann10basic_jsonINS_3mapENS_6vectorENS_12basic_stringIcNS_11char_traitsIcEENS2_IcEEEEbxydS2_NS3_14adl_serializerENS6_IhNS2_IhEEEEEEEEPSF_EEED2B7v160006Ev, symObjAddr: 0x7508, symBinAddr: 0x1B348, symSize: 0x48 }
  - { offsetInCU: 0x4E015, offset: 0x1485BA, size: 0x8, addend: 0x0, symName: __ZNSt3__16vectorIN8nlohmann10basic_jsonINS_3mapES0_NS_12basic_stringIcNS_11char_traitsIcEENS_9allocatorIcEEEEbxydS7_NS1_14adl_serializerENS0_IhNS7_IhEEEEEENS7_ISD_EEE16__destroy_vectorclB7v160006Ev, symObjAddr: 0x75D8, symBinAddr: 0x1B418, symSize: 0x90 }
  - { offsetInCU: 0x4E59B, offset: 0x148B40, size: 0x8, addend: 0x0, symName: __ZNSt3__16vectorIhNS_9allocatorIhEEEC2ERKS3_, symObjAddr: 0x7760, symBinAddr: 0x1B5A0, symSize: 0x7C }
  - { offsetInCU: 0x4EA87, offset: 0x14902C, size: 0x8, addend: 0x0, symName: __ZNSt3__16vectorIhNS_9allocatorIhEEE11__vallocateB7v160006Em, symObjAddr: 0x77DC, symBinAddr: 0x1B61C, symSize: 0x40 }
  - { offsetInCU: 0x4EB5B, offset: 0x149100, size: 0x8, addend: 0x0, symName: __ZNKSt3__16vectorIhNS_9allocatorIhEEE20__throw_length_errorB7v160006Ev, symObjAddr: 0x781C, symBinAddr: 0x1B65C, symSize: 0x14 }
  - { offsetInCU: 0x4EB8B, offset: 0x149130, size: 0x8, addend: 0x0, symName: __ZNKSt3__16vectorIhNS_9allocatorIhEEE20__throw_length_errorB7v160006Ev, symObjAddr: 0x781C, symBinAddr: 0x1B65C, symSize: 0x14 }
  - { offsetInCU: 0x4EBB3, offset: 0x149158, size: 0x8, addend: 0x0, symName: __ZN8nlohmann6detail9iter_implINS_10basic_jsonINSt3__13mapENS3_6vectorENS3_12basic_stringIcNS3_11char_traitsIcEENS3_9allocatorIcEEEEbxydS9_NS_14adl_serializerENS5_IhNS9_IhEEEEEEE9set_beginEv, symObjAddr: 0x7830, symBinAddr: 0x1B670, symSize: 0x88 }
  - { offsetInCU: 0x4EC43, offset: 0x1491E8, size: 0x8, addend: 0x0, symName: __ZNK8nlohmann6detail9iter_implINS_10basic_jsonINSt3__13mapENS3_6vectorENS3_12basic_stringIcNS3_11char_traitsIcEENS3_9allocatorIcEEEEbxydS9_NS_14adl_serializerENS5_IhNS9_IhEEEEEEEeqERKSG_.cold.1, symObjAddr: 0xBFBC, symBinAddr: 0x176788, symSize: 0x28 }
  - { offsetInCU: 0x4ECDE, offset: 0x149283, size: 0x8, addend: 0x0, symName: __ZN8nlohmann6detail16invalid_iteratorD1Ev, symObjAddr: 0x7B38, symBinAddr: 0x1B978, symSize: 0x34 }
  - { offsetInCU: 0x4ED5A, offset: 0x1492FF, size: 0x8, addend: 0x0, symName: __ZN8nlohmann6detail16invalid_iteratorD0Ev, symObjAddr: 0x7B6C, symBinAddr: 0x1B9AC, symSize: 0x38 }
  - { offsetInCU: 0x4EE61, offset: 0x149406, size: 0x8, addend: 0x0, symName: __ZN8nlohmann6detail10type_errorD1Ev, symObjAddr: 0x7D7C, symBinAddr: 0x1BBBC, symSize: 0x34 }
  - { offsetInCU: 0x4EEC1, offset: 0x149466, size: 0x8, addend: 0x0, symName: __ZNSt3__16__treeINS_12__value_typeINS_12basic_stringIcNS_11char_traitsIcEENS_9allocatorIcEEEEN8nlohmann10basic_jsonINS_3mapENS_6vectorES7_bxydS5_NS8_14adl_serializerENSB_IhNS5_IhEEEEEEEENS_19__map_value_compareIS7_SG_NS_4lessIvEELb1EEENS5_ISG_EEE21__remove_node_pointerEPNS_11__tree_nodeISG_PvEE, symObjAddr: 0x7DF8, symBinAddr: 0x1BC38, symSize: 0x70 }
  - { offsetInCU: 0x4EFA1, offset: 0x149546, size: 0x8, addend: 0x0, symName: __ZN8nlohmann6detail10type_errorD0Ev, symObjAddr: 0x82BC, symBinAddr: 0x1C0FC, symSize: 0x38 }
  - { offsetInCU: 0x4F0C6, offset: 0x14966B, size: 0x8, addend: 0x0, symName: __ZNSt3__16__treeINS_12__value_typeINS_12basic_stringIcNS_11char_traitsIcEENS_9allocatorIcEEEEN8nlohmann10basic_jsonINS_3mapENS_6vectorES7_bxydS5_NS8_14adl_serializerENSB_IhNS5_IhEEEEEEEENS_19__map_value_compareIS7_SG_NS_4lessIvEELb1EEENS5_ISG_EEE16__construct_nodeIJRKNS_21piecewise_construct_tENS_5tupleIJRKS7_EEENSR_IJEEEEEENS_10unique_ptrINS_11__tree_nodeISG_PvEENS_22__tree_node_destructorINS5_ISZ_EEEEEEDpOT_, symObjAddr: 0x83D0, symBinAddr: 0x1C210, symSize: 0x80 }
  - { offsetInCU: 0x4F44A, offset: 0x1499EF, size: 0x8, addend: 0x0, symName: __ZNSt3__14pairIKNS_12basic_stringIcNS_11char_traitsIcEENS_9allocatorIcEEEEN8nlohmann10basic_jsonINS_3mapENS_6vectorES6_bxydS4_NS8_14adl_serializerENSB_IhNS4_IhEEEEEEEC1B7v160006IJRS7_EJEEENS_21piecewise_construct_tENS_5tupleIJDpT_EEENSK_IJDpT0_EEE, symObjAddr: 0x8450, symBinAddr: 0x1C290, symSize: 0x40 }
  - { offsetInCU: 0x4F6F3, offset: 0x149C98, size: 0x8, addend: 0x0, symName: __ZN8nlohmann6detail12out_of_rangeD0Ev, symObjAddr: 0x84E4, symBinAddr: 0x1C324, symSize: 0x38 }
  - { offsetInCU: 0x4F88A, offset: 0x149E2F, size: 0x8, addend: 0x0, symName: __ZN8nlohmann6detail28json_sax_dom_callback_parserINS_10basic_jsonINSt3__13mapENS3_6vectorENS3_12basic_stringIcNS3_11char_traitsIcEENS3_9allocatorIcEEEEbxydS9_NS_14adl_serializerENS5_IhNS9_IhEEEEEEE12handle_valueIRdEENS3_4pairIbPSF_EEOT_b.cold.1, symObjAddr: 0xBFE4, symBinAddr: 0x1767B0, symSize: 0x24 }
  - { offsetInCU: 0x4F9B5, offset: 0x149F5A, size: 0x8, addend: 0x0, symName: __ZN8nlohmann6detail28json_sax_dom_callback_parserINS_10basic_jsonINSt3__13mapENS3_6vectorENS3_12basic_stringIcNS3_11char_traitsIcEENS3_9allocatorIcEEEEbxydS9_NS_14adl_serializerENS5_IhNS9_IhEEEEEEE12handle_valueIRbEENS3_4pairIbPSF_EEOT_b.cold.1, symObjAddr: 0xC008, symBinAddr: 0x1767D4, symSize: 0x24 }
  - { offsetInCU: 0x4F9CD, offset: 0x149F72, size: 0x8, addend: 0x0, symName: __ZN8nlohmann6detail28json_sax_dom_callback_parserINS_10basic_jsonINSt3__13mapENS3_6vectorENS3_12basic_stringIcNS3_11char_traitsIcEENS3_9allocatorIcEEEEbxydS9_NS_14adl_serializerENS5_IhNS9_IhEEEEEEE12handle_valueIDnEENS3_4pairIbPSF_EEOT_b.cold.1, symObjAddr: 0xC02C, symBinAddr: 0x1767F8, symSize: 0x24 }
  - { offsetInCU: 0x4FAF8, offset: 0x14A09D, size: 0x8, addend: 0x0, symName: __ZN8nlohmann6detail28json_sax_dom_callback_parserINS_10basic_jsonINSt3__13mapENS3_6vectorENS3_12basic_stringIcNS3_11char_traitsIcEENS3_9allocatorIcEEEEbxydS9_NS_14adl_serializerENS5_IhNS9_IhEEEEEEE12handle_valueIRxEENS3_4pairIbPSF_EEOT_b.cold.1, symObjAddr: 0xC050, symBinAddr: 0x17681C, symSize: 0x24 }
  - { offsetInCU: 0x4FB10, offset: 0x14A0B5, size: 0x8, addend: 0x0, symName: __ZN8nlohmann6detail28json_sax_dom_callback_parserINS_10basic_jsonINSt3__13mapENS3_6vectorENS3_12basic_stringIcNS3_11char_traitsIcEENS3_9allocatorIcEEEEbxydS9_NS_14adl_serializerENS5_IhNS9_IhEEEEEEE12handle_valueIRSB_EENS3_4pairIbPSF_EEOT_b.cold.1, symObjAddr: 0xC074, symBinAddr: 0x176840, symSize: 0x24 }
  - { offsetInCU: 0x4FC3B, offset: 0x14A1E0, size: 0x8, addend: 0x0, symName: __ZN8nlohmann6detail28json_sax_dom_callback_parserINS_10basic_jsonINSt3__13mapENS3_6vectorENS3_12basic_stringIcNS3_11char_traitsIcEENS3_9allocatorIcEEEEbxydS9_NS_14adl_serializerENS5_IhNS9_IhEEEEEEE12handle_valueIRyEENS3_4pairIbPSF_EEOT_b.cold.1, symObjAddr: 0xC098, symBinAddr: 0x176864, symSize: 0x24 }
  - { offsetInCU: 0x4FC74, offset: 0x14A219, size: 0x8, addend: 0x0, symName: __ZN8nlohmann6detail11parse_errorD0Ev, symObjAddr: 0x9788, symBinAddr: 0x1D5C8, symSize: 0x38 }
  - { offsetInCU: 0x4FE2E, offset: 0x14A3D3, size: 0x8, addend: 0x0, symName: __ZN8nlohmann6detail19json_sax_dom_parserINS_10basic_jsonINSt3__13mapENS3_6vectorENS3_12basic_stringIcNS3_11char_traitsIcEENS3_9allocatorIcEEEEbxydS9_NS_14adl_serializerENS5_IhNS9_IhEEEEEEE12handle_valueINS0_7value_tEEEPSF_OT_, symObjAddr: 0x9E64, symBinAddr: 0x1DCA4, symSize: 0x170 }
  - { offsetInCU: 0x5023E, offset: 0x14A7E3, size: 0x8, addend: 0x0, symName: __ZNSt3__16vectorIN8nlohmann10basic_jsonINS_3mapES0_NS_12basic_stringIcNS_11char_traitsIcEENS_9allocatorIcEEEEbxydS7_NS1_14adl_serializerENS0_IhNS7_IhEEEEEENS7_ISD_EEE22__construct_one_at_endB7v160006IJNS1_6detail7value_tEEEEvDpOT_, symObjAddr: 0x9FD4, symBinAddr: 0x1DE14, symSize: 0x48 }
  - { offsetInCU: 0x50280, offset: 0x14A825, size: 0x8, addend: 0x0, symName: __ZNSt3__16vectorIN8nlohmann10basic_jsonINS_3mapES0_NS_12basic_stringIcNS_11char_traitsIcEENS_9allocatorIcEEEEbxydS7_NS1_14adl_serializerENS0_IhNS7_IhEEEEEENS7_ISD_EEE22__construct_one_at_endB7v160006IJNS1_6detail7value_tEEEEvDpOT_, symObjAddr: 0x9FD4, symBinAddr: 0x1DE14, symSize: 0x48 }
  - { offsetInCU: 0x50445, offset: 0x14A9EA, size: 0x8, addend: 0x0, symName: __ZNSt3__16vectorIN8nlohmann10basic_jsonINS_3mapES0_NS_12basic_stringIcNS_11char_traitsIcEENS_9allocatorIcEEEEbxydS7_NS1_14adl_serializerENS0_IhNS7_IhEEEEEENS7_ISD_EEE24__emplace_back_slow_pathIJNS1_6detail7value_tEEEEvDpOT_, symObjAddr: 0xA01C, symBinAddr: 0x1DE5C, symSize: 0xE4 }
  - { offsetInCU: 0x5076B, offset: 0x14AD10, size: 0x8, addend: 0x0, symName: __ZN8nlohmann6detail19json_sax_dom_parserINS_10basic_jsonINSt3__13mapENS3_6vectorENS3_12basic_stringIcNS3_11char_traitsIcEENS3_9allocatorIcEEEEbxydS9_NS_14adl_serializerENS5_IhNS9_IhEEEEEEE12handle_valueINS0_7value_tEEEPSF_OT_.cold.1, symObjAddr: 0xC0BC, symBinAddr: 0x176888, symSize: 0x24 }
  - { offsetInCU: 0x50783, offset: 0x14AD28, size: 0x8, addend: 0x0, symName: __ZN8nlohmann6detail19json_sax_dom_parserINS_10basic_jsonINSt3__13mapENS3_6vectorENS3_12basic_stringIcNS3_11char_traitsIcEENS3_9allocatorIcEEEEbxydS9_NS_14adl_serializerENS5_IhNS9_IhEEEEEEE12handle_valueINS0_7value_tEEEPSF_OT_.cold.2, symObjAddr: 0xC0E0, symBinAddr: 0x1768AC, symSize: 0x24 }
  - { offsetInCU: 0x508FE, offset: 0x14AEA3, size: 0x8, addend: 0x0, symName: __ZNSt3__16vectorIN8nlohmann10basic_jsonINS_3mapES0_NS_12basic_stringIcNS_11char_traitsIcEENS_9allocatorIcEEEEbxydS7_NS1_14adl_serializerENS0_IhNS7_IhEEEEEENS7_ISD_EEE24__emplace_back_slow_pathIJRdEEEvDpOT_, symObjAddr: 0xA2AC, symBinAddr: 0x1E0EC, symSize: 0xE8 }
  - { offsetInCU: 0x50C50, offset: 0x14B1F5, size: 0x8, addend: 0x0, symName: __ZN8nlohmann6detail19json_sax_dom_parserINS_10basic_jsonINSt3__13mapENS3_6vectorENS3_12basic_stringIcNS3_11char_traitsIcEENS3_9allocatorIcEEEEbxydS9_NS_14adl_serializerENS5_IhNS9_IhEEEEEEE12handle_valueIRdEEPSF_OT_.cold.1, symObjAddr: 0xC104, symBinAddr: 0x1768D0, symSize: 0x24 }
  - { offsetInCU: 0x50C68, offset: 0x14B20D, size: 0x8, addend: 0x0, symName: __ZN8nlohmann6detail19json_sax_dom_parserINS_10basic_jsonINSt3__13mapENS3_6vectorENS3_12basic_stringIcNS3_11char_traitsIcEENS3_9allocatorIcEEEEbxydS9_NS_14adl_serializerENS5_IhNS9_IhEEEEEEE12handle_valueIRdEEPSF_OT_.cold.2, symObjAddr: 0xC128, symBinAddr: 0x1768F4, symSize: 0x24 }
  - { offsetInCU: 0x50D64, offset: 0x14B309, size: 0x8, addend: 0x0, symName: __ZNSt3__16vectorIN8nlohmann10basic_jsonINS_3mapES0_NS_12basic_stringIcNS_11char_traitsIcEENS_9allocatorIcEEEEbxydS7_NS1_14adl_serializerENS0_IhNS7_IhEEEEEENS7_ISD_EEE24__emplace_back_slow_pathIJRbEEEvDpOT_, symObjAddr: 0xA540, symBinAddr: 0x1E380, symSize: 0xE8 }
  - { offsetInCU: 0x510A6, offset: 0x14B64B, size: 0x8, addend: 0x0, symName: __ZN8nlohmann6detail19json_sax_dom_parserINS_10basic_jsonINSt3__13mapENS3_6vectorENS3_12basic_stringIcNS3_11char_traitsIcEENS3_9allocatorIcEEEEbxydS9_NS_14adl_serializerENS5_IhNS9_IhEEEEEEE12handle_valueIRbEEPSF_OT_.cold.1, symObjAddr: 0xC14C, symBinAddr: 0x176918, symSize: 0x24 }
  - { offsetInCU: 0x510BE, offset: 0x14B663, size: 0x8, addend: 0x0, symName: __ZN8nlohmann6detail19json_sax_dom_parserINS_10basic_jsonINSt3__13mapENS3_6vectorENS3_12basic_stringIcNS3_11char_traitsIcEENS3_9allocatorIcEEEEbxydS9_NS_14adl_serializerENS5_IhNS9_IhEEEEEEE12handle_valueIRbEEPSF_OT_.cold.2, symObjAddr: 0xC170, symBinAddr: 0x17693C, symSize: 0x24 }
  - { offsetInCU: 0x511BA, offset: 0x14B75F, size: 0x8, addend: 0x0, symName: __ZNSt3__16vectorIN8nlohmann10basic_jsonINS_3mapES0_NS_12basic_stringIcNS_11char_traitsIcEENS_9allocatorIcEEEEbxydS7_NS1_14adl_serializerENS0_IhNS7_IhEEEEEENS7_ISD_EEE24__emplace_back_slow_pathIJDnEEEvDpOT_, symObjAddr: 0xA7B8, symBinAddr: 0x1E5F8, symSize: 0xD0 }
  - { offsetInCU: 0x514DC, offset: 0x14BA81, size: 0x8, addend: 0x0, symName: __ZN8nlohmann6detail19json_sax_dom_parserINS_10basic_jsonINSt3__13mapENS3_6vectorENS3_12basic_stringIcNS3_11char_traitsIcEENS3_9allocatorIcEEEEbxydS9_NS_14adl_serializerENS5_IhNS9_IhEEEEEEE12handle_valueIDnEEPSF_OT_.cold.1, symObjAddr: 0xC194, symBinAddr: 0x176960, symSize: 0x24 }
  - { offsetInCU: 0x514F4, offset: 0x14BA99, size: 0x8, addend: 0x0, symName: __ZN8nlohmann6detail19json_sax_dom_parserINS_10basic_jsonINSt3__13mapENS3_6vectorENS3_12basic_stringIcNS3_11char_traitsIcEENS3_9allocatorIcEEEEbxydS9_NS_14adl_serializerENS5_IhNS9_IhEEEEEEE12handle_valueIDnEEPSF_OT_.cold.2, symObjAddr: 0xC1B8, symBinAddr: 0x176984, symSize: 0x24 }
  - { offsetInCU: 0x515F0, offset: 0x14BB95, size: 0x8, addend: 0x0, symName: __ZNSt3__16vectorIN8nlohmann10basic_jsonINS_3mapES0_NS_12basic_stringIcNS_11char_traitsIcEENS_9allocatorIcEEEEbxydS7_NS1_14adl_serializerENS0_IhNS7_IhEEEEEENS7_ISD_EEE24__emplace_back_slow_pathIJRxEEEvDpOT_, symObjAddr: 0xAA34, symBinAddr: 0x1E874, symSize: 0xE8 }
  - { offsetInCU: 0x51940, offset: 0x14BEE5, size: 0x8, addend: 0x0, symName: __ZN8nlohmann6detail19json_sax_dom_parserINS_10basic_jsonINSt3__13mapENS3_6vectorENS3_12basic_stringIcNS3_11char_traitsIcEENS3_9allocatorIcEEEEbxydS9_NS_14adl_serializerENS5_IhNS9_IhEEEEEEE12handle_valueIRxEEPSF_OT_.cold.1, symObjAddr: 0xC1DC, symBinAddr: 0x1769A8, symSize: 0x24 }
  - { offsetInCU: 0x51958, offset: 0x14BEFD, size: 0x8, addend: 0x0, symName: __ZN8nlohmann6detail19json_sax_dom_parserINS_10basic_jsonINSt3__13mapENS3_6vectorENS3_12basic_stringIcNS3_11char_traitsIcEENS3_9allocatorIcEEEEbxydS9_NS_14adl_serializerENS5_IhNS9_IhEEEEEEE12handle_valueIRxEEPSF_OT_.cold.2, symObjAddr: 0xC200, symBinAddr: 0x1769CC, symSize: 0x24 }
  - { offsetInCU: 0x51970, offset: 0x14BF15, size: 0x8, addend: 0x0, symName: __ZNSt3__16vectorIN8nlohmann10basic_jsonINS_3mapES0_NS_12basic_stringIcNS_11char_traitsIcEENS_9allocatorIcEEEEbxydS7_NS1_14adl_serializerENS0_IhNS7_IhEEEEEENS7_ISD_EEE12emplace_backIJRS9_EEEvDpOT_, symObjAddr: 0xAC58, symBinAddr: 0x1EA98, symSize: 0x104 }
  - { offsetInCU: 0x51D7A, offset: 0x14C31F, size: 0x8, addend: 0x0, symName: __ZN8nlohmann6detail19json_sax_dom_parserINS_10basic_jsonINSt3__13mapENS3_6vectorENS3_12basic_stringIcNS3_11char_traitsIcEENS3_9allocatorIcEEEEbxydS9_NS_14adl_serializerENS5_IhNS9_IhEEEEEEE12handle_valueIRSB_EEPSF_OT_.cold.1, symObjAddr: 0xC224, symBinAddr: 0x1769F0, symSize: 0x24 }
  - { offsetInCU: 0x51D92, offset: 0x14C337, size: 0x8, addend: 0x0, symName: __ZN8nlohmann6detail19json_sax_dom_parserINS_10basic_jsonINSt3__13mapENS3_6vectorENS3_12basic_stringIcNS3_11char_traitsIcEENS3_9allocatorIcEEEEbxydS9_NS_14adl_serializerENS5_IhNS9_IhEEEEEEE12handle_valueIRSB_EEPSF_OT_.cold.2, symObjAddr: 0xC248, symBinAddr: 0x176A14, symSize: 0x24 }
  - { offsetInCU: 0x51F8A, offset: 0x14C52F, size: 0x8, addend: 0x0, symName: __ZNSt3__16vectorIN8nlohmann10basic_jsonINS_3mapES0_NS_12basic_stringIcNS_11char_traitsIcEENS_9allocatorIcEEEEbxydS7_NS1_14adl_serializerENS0_IhNS7_IhEEEEEENS7_ISD_EEE24__emplace_back_slow_pathIJRyEEEvDpOT_, symObjAddr: 0xAF08, symBinAddr: 0x1ED48, symSize: 0xE8 }
  - { offsetInCU: 0x522DA, offset: 0x14C87F, size: 0x8, addend: 0x0, symName: __ZN8nlohmann6detail19json_sax_dom_parserINS_10basic_jsonINSt3__13mapENS3_6vectorENS3_12basic_stringIcNS3_11char_traitsIcEENS3_9allocatorIcEEEEbxydS9_NS_14adl_serializerENS5_IhNS9_IhEEEEEEE12handle_valueIRyEEPSF_OT_.cold.1, symObjAddr: 0xC26C, symBinAddr: 0x176A38, symSize: 0x24 }
  - { offsetInCU: 0x522F2, offset: 0x14C897, size: 0x8, addend: 0x0, symName: __ZN8nlohmann6detail19json_sax_dom_parserINS_10basic_jsonINSt3__13mapENS3_6vectorENS3_12basic_stringIcNS3_11char_traitsIcEENS3_9allocatorIcEEEEbxydS9_NS_14adl_serializerENS5_IhNS9_IhEEEEEEE12handle_valueIRyEEPSF_OT_.cold.2, symObjAddr: 0xC290, symBinAddr: 0x176A5C, symSize: 0x24 }
  - { offsetInCU: 0x52E6A, offset: 0x14D40F, size: 0x8, addend: 0x0, symName: __ZN8firebase9firestore6bundle14BundleDocumentD0Ev, symObjAddr: 0xB470, symBinAddr: 0x1EE30, symSize: 0x40 }
  - { offsetInCU: 0x52F98, offset: 0x14D53D, size: 0x8, addend: 0x0, symName: __ZNK8firebase9firestore6bundle14BundleDocument12element_typeEv, symObjAddr: 0xB4B0, symBinAddr: 0x1EE70, symSize: 0x8 }
  - { offsetInCU: 0x53106, offset: 0x14D6AB, size: 0x8, addend: 0x0, symName: __ZN8nlohmann10basic_jsonINSt3__13mapENS1_6vectorENS1_12basic_stringIcNS1_11char_traitsIcEENS1_9allocatorIcEEEEbxydS7_NS_14adl_serializerENS3_IhNS7_IhEEEEE10json_value7destroyENS_6detail7value_tE, symObjAddr: 0xB5C0, symBinAddr: 0x1EE78, symSize: 0x300 }
  - { offsetInCU: 0x53273, offset: 0x14D818, size: 0x8, addend: 0x0, symName: __ZNSt3__16vectorIN8nlohmann10basic_jsonINS_3mapES0_NS_12basic_stringIcNS_11char_traitsIcEENS_9allocatorIcEEEEbxydS7_NS1_14adl_serializerENS0_IhNS7_IhEEEEEENS7_ISD_EEE7reserveEm, symObjAddr: 0xB8C0, symBinAddr: 0x1F178, symSize: 0x90 }
  - { offsetInCU: 0x5342B, offset: 0x14D9D0, size: 0x8, addend: 0x0, symName: __ZNKSt3__111__move_loopINS_17_ClassicAlgPolicyEEclB7v160006IPN8nlohmann10basic_jsonINS_3mapENS_6vectorENS_12basic_stringIcNS_11char_traitsIcEENS_9allocatorIcEEEEbxydSB_NS4_14adl_serializerENS7_IhNSB_IhEEEEEESI_NS_20back_insert_iteratorINS7_ISH_NSB_ISH_EEEEEEEENS_4pairIT_T1_EESO_T0_SP_, symObjAddr: 0xB9AC, symBinAddr: 0x1F264, symSize: 0x98 }
  - { offsetInCU: 0x53612, offset: 0x14DBB7, size: 0x8, addend: 0x0, symName: __ZNSt3__16vectorIN8nlohmann10basic_jsonINS_3mapES0_NS_12basic_stringIcNS_11char_traitsIcEENS_9allocatorIcEEEEbxydS7_NS1_14adl_serializerENS0_IhNS7_IhEEEEEENS7_ISD_EEE5clearB7v160006Ev, symObjAddr: 0xB950, symBinAddr: 0x1F208, symSize: 0x5C }
  - { offsetInCU: 0x53764, offset: 0x14DD09, size: 0x8, addend: 0x0, symName: __ZNSt3__16vectorIN8nlohmann10basic_jsonINS_3mapES0_NS_12basic_stringIcNS_11char_traitsIcEENS_9allocatorIcEEEEbxydS7_NS1_14adl_serializerENS0_IhNS7_IhEEEEEENS7_ISD_EEED2B7v160006Ev, symObjAddr: 0xBA44, symBinAddr: 0x1F2FC, symSize: 0x38 }
  - { offsetInCU: 0x539A9, offset: 0x14DF4E, size: 0x8, addend: 0x0, symName: __ZNSt12out_of_rangeC1B7v160006EPKc, symObjAddr: 0xBB84, symBinAddr: 0x1F43C, symSize: 0x24 }
  - { offsetInCU: 0x53C82, offset: 0x14E227, size: 0x8, addend: 0x0, symName: _OUTLINED_FUNCTION_0, symObjAddr: 0xC2B4, symBinAddr: 0x1F558, symSize: 0x8 }
  - { offsetInCU: 0x53C9A, offset: 0x14E23F, size: 0x8, addend: 0x0, symName: _OUTLINED_FUNCTION_1, symObjAddr: 0xC2BC, symBinAddr: 0x1F560, symSize: 0x8 }
  - { offsetInCU: 0x53CB2, offset: 0x14E257, size: 0x8, addend: 0x0, symName: _OUTLINED_FUNCTION_2, symObjAddr: 0xC2C4, symBinAddr: 0x1F568, symSize: 0x8 }
  - { offsetInCU: 0x50, offset: 0x14E3B7, size: 0x8, addend: 0x0, symName: __ZN8firebase9firestore6bundle12_GLOBAL__N_113kDefaultBoundE, symObjAddr: 0x194888, symBinAddr: 0x242C38, symSize: 0x0 }
  - { offsetInCU: 0x5E, offset: 0x14E3C5, size: 0x8, addend: 0x0, symName: __ZN8firebase9firestore6bundle12_GLOBAL__N_121DecodeSnapshotVersionERNS0_4util10JsonReaderERKN8nlohmann10basic_jsonINSt3__13mapENS8_6vectorENS8_12basic_stringIcNS8_11char_traitsIcEENS8_9allocatorIcEEEEbxydSE_NS6_14adl_serializerENSA_IhNSE_IhEEEEEE, symObjAddr: 0x26C, symBinAddr: 0x1F7DC, symSize: 0x30 }
  - { offsetInCU: 0xB7, offset: 0x14E41E, size: 0x8, addend: 0x0, symName: __ZN8firebase9firestore6bundle12_GLOBAL__N_115DecodeTimestampERNS0_4util10JsonReaderERKN8nlohmann10basic_jsonINSt3__13mapENS8_6vectorENS8_12basic_stringIcNS8_11char_traitsIcEENS8_9allocatorIcEEEEbxydSE_NS6_14adl_serializerENSA_IhNSE_IhEEEEEE, symObjAddr: 0x3F44, symBinAddr: 0x23484, symSize: 0x20C }
  - { offsetInCU: 0xD32, offset: 0x14F099, size: 0x8, addend: 0x0, symName: __ZN8firebase9firestore6bundle12_GLOBAL__N_120DecodeFieldReferenceERNS0_4util10JsonReaderERKN8nlohmann10basic_jsonINSt3__13mapENS8_6vectorENS8_12basic_stringIcNS8_11char_traitsIcEENS8_9allocatorIcEEEEbxydSE_NS6_14adl_serializerENSA_IhNSE_IhEEEEEE, symObjAddr: 0x335C, symBinAddr: 0x228CC, symSize: 0xDC }
  - { offsetInCU: 0x111D, offset: 0x14F484, size: 0x8, addend: 0x0, symName: __ZN8firebase9firestore6bundle12_GLOBAL__N_117DecodeUnaryFilterERNS0_4util10JsonReaderERKN8nlohmann10basic_jsonINSt3__13mapENS8_6vectorENS8_12basic_stringIcNS8_11char_traitsIcEENS8_9allocatorIcEEEEbxydSE_NS6_14adl_serializerENSA_IhNSE_IhEEEEEE, symObjAddr: 0x2D04, symBinAddr: 0x22274, symSize: 0x658 }
  - { offsetInCU: 0x2ECE, offset: 0x151235, size: 0x8, addend: 0x0, symName: __ZN8firebase9firestore6bundle12_GLOBAL__N_113InvalidFilterEv, symObjAddr: 0x3A60, symBinAddr: 0x22FD0, symSize: 0xC4 }
  - { offsetInCU: 0x329A, offset: 0x151601, size: 0x8, addend: 0x0, symName: __ZN8firebase9firestore6bundle12_GLOBAL__N_116DecodeBytesValueERNS0_4util10JsonReaderERKNSt3__112basic_stringIcNS6_11char_traitsIcEENS6_9allocatorIcEEEE, symObjAddr: 0x4150, symBinAddr: 0x23690, symSize: 0xBC }
  - { offsetInCU: 0x36B5, offset: 0x151A1C, size: 0x8, addend: 0x0, symName: __ZN8firebase9firestore6bundle12_GLOBAL__N_119DecodeGeoPointValueERNS0_4util10JsonReaderERKN8nlohmann10basic_jsonINSt3__13mapENS8_6vectorENS8_12basic_stringIcNS8_11char_traitsIcEENS8_9allocatorIcEEEEbxydSE_NS6_14adl_serializerENSA_IhNSE_IhEEEEEE, symObjAddr: 0x4310, symBinAddr: 0x23850, symSize: 0x60 }
  - { offsetInCU: 0x4CF7, offset: 0x15305E, size: 0x8, addend: 0x0, symName: __ZN8firebase9firestore4util12StringFormatIJmmEEENSt3__112basic_stringIcNS3_11char_traitsIcEENS3_9allocatorIcEEEEPKcDpRKT_, symObjAddr: 0x9574, symBinAddr: 0x265BC, symSize: 0x9C }
  - { offsetInCU: 0x519D, offset: 0x153504, size: 0x8, addend: 0x0, symName: __ZN8firebase9firestore4util12StringFormatIJPKcEEENSt3__112basic_stringIcNS5_11char_traitsIcEENS5_9allocatorIcEEEES4_DpRKT_, symObjAddr: 0x8F70, symBinAddr: 0x25FB8, symSize: 0x90 }
  - { offsetInCU: 0x681A, offset: 0x154B81, size: 0x8, addend: 0x0, symName: __ZN8firebase9firestore6nanopb17MakeSharedMessageINS0_31_google_firestore_v1_ArrayValueEEENS1_13SharedMessageIT_EERKS5_, symObjAddr: 0x0, symBinAddr: 0x1F570, symSize: 0x84 }
  - { offsetInCU: 0x6B49, offset: 0x154EB0, size: 0x8, addend: 0x0, symName: __ZN8firebase9firestore6nanopb17MakeSharedMessageINS0_26_google_firestore_v1_ValueEEENS1_13SharedMessageIT_EERKS5_, symObjAddr: 0x6FC8, symBinAddr: 0x25358, symSize: 0x94 }
  - { offsetInCU: 0x193DA, offset: 0x167741, size: 0x8, addend: 0x0, symName: __ZNSt3__115allocate_sharedB7v160006INS_12basic_stringIcNS_11char_traitsIcEENS_9allocatorIcEEEENS4_IS6_EEJRS6_EvEENS_10shared_ptrIT_EERKT0_DpOT1_, symObjAddr: 0x93C8, symBinAddr: 0x26410, symSize: 0x58 }
  - { offsetInCU: 0x1A0BF, offset: 0x168426, size: 0x8, addend: 0x0, symName: __ZNSt3__142__uninitialized_allocator_move_if_noexceptB7v160006INS_9allocatorINS_12basic_stringIcNS_11char_traitsIcEENS1_IcEEEEEENS_16reverse_iteratorIPS6_EESA_SA_EET2_RT_T0_T1_SB_, symObjAddr: 0x5D94, symBinAddr: 0x248C8, symSize: 0x9C }
  - { offsetInCU: 0x1A3D7, offset: 0x16873E, size: 0x8, addend: 0x0, symName: __ZNSt3__114__split_bufferIN8firebase9firestore4core7OrderByERNS_9allocatorIS4_EEED2Ev, symObjAddr: 0x6120, symBinAddr: 0x24C0C, symSize: 0x4C }
  - { offsetInCU: 0x1AAEC, offset: 0x168E53, size: 0x8, addend: 0x0, symName: __ZNSt3__117__call_once_proxyB7v160006INS_5tupleIJOZN8firebase9firestore4util18ThreadSafeMemoizerINS_6vectorINS3_4core7OrderByENS_9allocatorIS8_EEEEED1EvEUlvE_EEEEEvPv, symObjAddr: 0x660C, symBinAddr: 0x250F8, symSize: 0x4 }
  - { offsetInCU: 0x1ABA3, offset: 0x168F0A, size: 0x8, addend: 0x0, symName: __ZNSt3__117__call_once_proxyB7v160006INS_5tupleIJOZN8firebase9firestore4util18ThreadSafeMemoizerINS3_4core6TargetEED1EvEUlvE_EEEEEvPv, symObjAddr: 0x670C, symBinAddr: 0x251F8, symSize: 0x4 }
  - { offsetInCU: 0x1C52F, offset: 0x16A896, size: 0x8, addend: 0x0, symName: __ZNSt3__130__uninitialized_allocator_copyB7v160006INS_9allocatorINS_12basic_stringIcNS_11char_traitsIcEENS1_IcEEEEEENS_11__wrap_iterIPKS6_EESB_PS6_EET2_RT_T0_T1_SD_, symObjAddr: 0x9714, symBinAddr: 0x2675C, symSize: 0xA0 }
  - { offsetInCU: 0x1FD95, offset: 0x16E0FC, size: 0x8, addend: 0x0, symName: __ZN8nlohmann6detail9from_jsonINS_10basic_jsonINSt3__13mapENS3_6vectorENS3_12basic_stringIcNS3_11char_traitsIcEENS3_9allocatorIcEEEEbxydS9_NS_14adl_serializerENS5_IhNS9_IhEEEEEEiLi0EEEvRKT_RT0_, symObjAddr: 0x616C, symBinAddr: 0x24C58, symSize: 0x150 }
  - { offsetInCU: 0x20115, offset: 0x16E47C, size: 0x8, addend: 0x0, symName: __ZN8nlohmann6detail9from_jsonINS_10basic_jsonINSt3__13mapENS3_6vectorENS3_12basic_stringIcNS3_11char_traitsIcEENS3_9allocatorIcEEEEbxydS9_NS_14adl_serializerENS5_IhNS9_IhEEEEEEEEvRKT_RNSG_9boolean_tE, symObjAddr: 0xA54C, symBinAddr: 0x26AB4, symSize: 0x120 }
  - { offsetInCU: 0x20485, offset: 0x16E7EC, size: 0x8, addend: 0x0, symName: __ZN8nlohmann6detail13int_to_stringINSt3__112basic_stringIcNS2_11char_traitsIcEENS2_9allocatorIcEEEEEEvRT_m, symObjAddr: 0xADA8, symBinAddr: 0x27078, symSize: 0x50 }
  - { offsetInCU: 0x20618, offset: 0x16E97F, size: 0x8, addend: 0x0, symName: __ZN8nlohmann6detail9from_jsonINS_10basic_jsonINSt3__13mapENS3_6vectorENS3_12basic_stringIcNS3_11char_traitsIcEENS3_9allocatorIcEEEEbxydS9_NS_14adl_serializerENS5_IhNS9_IhEEEEEEEEvRKT_RNSG_8string_tE, symObjAddr: 0xB02C, symBinAddr: 0x272FC, symSize: 0x124 }
  - { offsetInCU: 0x209F9, offset: 0x16ED60, size: 0x8, addend: 0x0, symName: __ZN8nlohmann6detail20get_arithmetic_valueINS_10basic_jsonINSt3__13mapENS3_6vectorENS3_12basic_stringIcNS3_11char_traitsIcEENS3_9allocatorIcEEEEbxydS9_NS_14adl_serializerENS5_IhNS9_IhEEEEEExLi0EEEvRKT_RT0_, symObjAddr: 0x7670, symBinAddr: 0x259A8, symSize: 0x13C }
  - { offsetInCU: 0x20D79, offset: 0x16F0E0, size: 0x8, addend: 0x0, symName: __ZN8nlohmann6detail9from_jsonINS_10basic_jsonINSt3__13mapENS3_6vectorENS3_12basic_stringIcNS3_11char_traitsIcEENS3_9allocatorIcEEEEbxydS9_NS_14adl_serializerENS5_IhNS9_IhEEEEEEjLi0EEEvRKT_RT0_, symObjAddr: 0x9000, symBinAddr: 0x26048, symSize: 0x150 }
  - { offsetInCU: 0x21129, offset: 0x16F490, size: 0x8, addend: 0x0, symName: __ZN8nlohmann6detail20get_arithmetic_valueINS_10basic_jsonINSt3__13mapENS3_6vectorENS3_12basic_stringIcNS3_11char_traitsIcEENS3_9allocatorIcEEEEbxydS9_NS_14adl_serializerENS5_IhNS9_IhEEEEEEyLi0EEEvRKT_RT0_, symObjAddr: 0x9234, symBinAddr: 0x2627C, symSize: 0x13C }
  - { offsetInCU: 0x23A2D, offset: 0x171D94, size: 0x8, addend: 0x0, symName: __ZNSt3__16vectorINS_12basic_stringIcNS_11char_traitsIcEENS_9allocatorIcEEEENS4_IS6_EEE26__swap_out_circular_bufferERNS_14__split_bufferIS6_RS7_EE, symObjAddr: 0x5D20, symBinAddr: 0x24854, symSize: 0x74 }
  - { offsetInCU: 0x23B60, offset: 0x171EC7, size: 0x8, addend: 0x0, symName: __ZNSt3__16vectorIN8firebase9firestore4core7OrderByENS_9allocatorIS4_EEE26__swap_out_circular_bufferERNS_14__split_bufferIS4_RS6_EE, symObjAddr: 0x6060, symBinAddr: 0x24B94, symSize: 0x78 }
  - { offsetInCU: 0x23EC3, offset: 0x17222A, size: 0x8, addend: 0x0, symName: __ZN8firebase9firestore4util18ThreadSafeMemoizerINSt3__16vectorINS0_4core7OrderByENS3_9allocatorIS6_EEEEED2Ev, symObjAddr: 0x65A8, symBinAddr: 0x25094, symSize: 0x64 }
  - { offsetInCU: 0x24315, offset: 0x17267C, size: 0x8, addend: 0x0, symName: __ZN8firebase9firestore4util18ThreadSafeMemoizerINS0_4core6TargetEED2Ev, symObjAddr: 0x6654, symBinAddr: 0x25140, symSize: 0xB8 }
  - { offsetInCU: 0x26DC3, offset: 0x17512A, size: 0x8, addend: 0x0, symName: __ZN8firebase9firestore6nanopb7MessageINS0_31_google_firestore_v1_ArrayValueEED2Ev, symObjAddr: 0xA7E0, symBinAddr: 0x26CCC, symSize: 0x3C }
  - { offsetInCU: 0x2715E, offset: 0x1754C5, size: 0x8, addend: 0x0, symName: __ZNK8firebase9firestore6bundle16BundleSerializer20DecodeBundleMetadataERNS0_4util10JsonReaderERKN8nlohmann10basic_jsonINSt3__13mapENS8_6vectorENS8_12basic_stringIcNS8_11char_traitsIcEENS8_9allocatorIcEEEEbxydSE_NS6_14adl_serializerENSA_IhNSE_IhEEEEEE, symObjAddr: 0x84, symBinAddr: 0x1F5F4, symSize: 0x120 }
  - { offsetInCU: 0x27403, offset: 0x17576A, size: 0x8, addend: 0x0, symName: __ZN8firebase9firestore4util10JsonReader11RequiredIntIjEET_PKcRKN8nlohmann10basic_jsonINSt3__13mapENS9_6vectorENS9_12basic_stringIcNS9_11char_traitsIcEENS9_9allocatorIcEEEEbxydSF_NS7_14adl_serializerENSB_IhNSF_IhEEEEEE, symObjAddr: 0x1A4, symBinAddr: 0x1F714, symSize: 0xC8 }
  - { offsetInCU: 0x277EE, offset: 0x175B55, size: 0x8, addend: 0x0, symName: __ZN8firebase9firestore4util10JsonReader11OptionalIntIjEET_PKcRKN8nlohmann10basic_jsonINSt3__13mapENS9_6vectorENS9_12basic_stringIcNS9_11char_traitsIcEENS9_9allocatorIcEEEEbxydSF_NS7_14adl_serializerENSB_IhNSF_IhEEEEEES4_, symObjAddr: 0x29C, symBinAddr: 0x1F80C, symSize: 0xC0 }
  - { offsetInCU: 0x27BCE, offset: 0x175F35, size: 0x8, addend: 0x0, symName: __ZN8firebase9firestore4util10JsonReader11OptionalIntIyEET_PKcRKN8nlohmann10basic_jsonINSt3__13mapENS9_6vectorENS9_12basic_stringIcNS9_11char_traitsIcEENS9_9allocatorIcEEEEbxydSF_NS7_14adl_serializerENSB_IhNSF_IhEEEEEES4_, symObjAddr: 0x35C, symBinAddr: 0x1F8CC, symSize: 0xC0 }
  - { offsetInCU: 0x28095, offset: 0x1763FC, size: 0x8, addend: 0x0, symName: __ZNSt3__16__treeINS_12__value_typeINS_12basic_stringIcNS_11char_traitsIcEENS_9allocatorIcEEEEN8nlohmann10basic_jsonINS_3mapENS_6vectorES7_bxydS5_NS8_14adl_serializerENSB_IhNS5_IhEEEEEEEENS_19__map_value_compareIS7_SG_NS_4lessIvEELb1EEENS5_ISG_EEE4findIPKcEENS_15__tree_iteratorISG_PNS_11__tree_nodeISG_PvEElEERKT_, symObjAddr: 0x75F4, symBinAddr: 0x2592C, symSize: 0x7C }
  - { offsetInCU: 0x2840E, offset: 0x176775, size: 0x8, addend: 0x0, symName: __ZNK8nlohmann10basic_jsonINSt3__13mapENS1_6vectorENS1_12basic_stringIcNS1_11char_traitsIcEENS1_9allocatorIcEEEEbxydS7_NS_14adl_serializerENS3_IhNS7_IhEEEEE2atERKS9_, symObjAddr: 0x187C, symBinAddr: 0x20DEC, symSize: 0x218 }
  - { offsetInCU: 0x28A66, offset: 0x176DCD, size: 0x8, addend: 0x0, symName: __ZN8firebase9firestore4util10JsonReader8ParseIntIjEET_RKN8nlohmann10basic_jsonINSt3__13mapENS7_6vectorENS7_12basic_stringIcNS7_11char_traitsIcEENS7_9allocatorIcEEEEbxydSD_NS5_14adl_serializerENS9_IhNSD_IhEEEEEERS2_, symObjAddr: 0x8E8C, symBinAddr: 0x25ED4, symSize: 0xE4 }
  - { offsetInCU: 0x28F14, offset: 0x17727B, size: 0x8, addend: 0x0, symName: __ZN8firebase9firestore4util11ReadContext4FailIJPKcEEEvS5_DpRKT_, symObjAddr: 0x8E20, symBinAddr: 0x25E68, symSize: 0x6C }
  - { offsetInCU: 0x291E6, offset: 0x17754D, size: 0x8, addend: 0x0, symName: __ZN8firebase9firestore4util10JsonReader8ParseIntIyEET_RKN8nlohmann10basic_jsonINSt3__13mapENS7_6vectorENS7_12basic_stringIcNS7_11char_traitsIcEENS7_9allocatorIcEEEEbxydSD_NS5_14adl_serializerENS9_IhNSD_IhEEEEEERS2_, symObjAddr: 0x9150, symBinAddr: 0x26198, symSize: 0xE4 }
  - { offsetInCU: 0x299D9, offset: 0x177D40, size: 0x8, addend: 0x0, symName: __ZNK8firebase9firestore6bundle16BundleSerializer16DecodeNamedQueryERNS0_4util10JsonReaderERKN8nlohmann10basic_jsonINSt3__13mapENS8_6vectorENS8_12basic_stringIcNS8_11char_traitsIcEENS8_9allocatorIcEEEEbxydSE_NS6_14adl_serializerENSA_IhNSE_IhEEEEEE, symObjAddr: 0x41C, symBinAddr: 0x1F98C, symSize: 0x1E4 }
  - { offsetInCU: 0x2A3A6, offset: 0x17870D, size: 0x8, addend: 0x0, symName: __ZNK8firebase9firestore6bundle16BundleSerializer18DecodeBundledQueryERNS0_4util10JsonReaderERKN8nlohmann10basic_jsonINSt3__13mapENS8_6vectorENS8_12basic_stringIcNS8_11char_traitsIcEENS8_9allocatorIcEEEEbxydSE_NS6_14adl_serializerENSA_IhNSE_IhEEEEEE, symObjAddr: 0x600, symBinAddr: 0x1FB70, symSize: 0x10C0 }
  - { offsetInCU: 0x30348, offset: 0x17E6AF, size: 0x8, addend: 0x0, symName: __ZN8firebase9firestore6bundle10NamedQueryC2ENSt3__112basic_stringIcNS3_11char_traitsIcEENS3_9allocatorIcEEEENS1_12BundledQueryENS0_5model15SnapshotVersionE, symObjAddr: 0x4FC0, symBinAddr: 0x24414, symSize: 0x118 }
  - { offsetInCU: 0x30B16, offset: 0x17EE7D, size: 0x8, addend: 0x0, symName: __ZN8firebase9firestore6bundle12BundledQueryD1Ev, symObjAddr: 0x16C0, symBinAddr: 0x20C30, symSize: 0x70 }
  - { offsetInCU: 0x31FC3, offset: 0x18032A, size: 0x8, addend: 0x0, symName: __ZNSt3__16__treeINS_12__value_typeINS_12basic_stringIcNS_11char_traitsIcEENS_9allocatorIcEEEEN8nlohmann10basic_jsonINS_3mapENS_6vectorES7_bxydS5_NS8_14adl_serializerENSB_IhNS5_IhEEEEEEEENS_19__map_value_compareIS7_SG_NS_4lessIvEELb1EEENS5_ISG_EEE4findIA7_cEENS_15__tree_iteratorISG_PNS_11__tree_nodeISG_PvEElEERKT_, symObjAddr: 0x88EC, symBinAddr: 0x25D2C, symSize: 0x7C }
  - { offsetInCU: 0x32145, offset: 0x1804AC, size: 0x8, addend: 0x0, symName: __ZNSt3__16__treeINS_12__value_typeINS_12basic_stringIcNS_11char_traitsIcEENS_9allocatorIcEEEEN8nlohmann10basic_jsonINS_3mapENS_6vectorES7_bxydS5_NS8_14adl_serializerENSB_IhNS5_IhEEEEEEEENS_19__map_value_compareIS7_SG_NS_4lessIvEELb1EEENS5_ISG_EEE4findIA5_cEENS_15__tree_iteratorISG_PNS_11__tree_nodeISG_PvEElEERKT_, symObjAddr: 0x5194, symBinAddr: 0x2452C, symSize: 0x7C }
  - { offsetInCU: 0x322C7, offset: 0x18062E, size: 0x8, addend: 0x0, symName: __ZN8firebase9firestore4util11ReadContext4FailIJEEEvPKcDpRKT_, symObjAddr: 0x2100, symBinAddr: 0x21670, symSize: 0x70 }
  - { offsetInCU: 0x325A5, offset: 0x18090C, size: 0x8, addend: 0x0, symName: __ZNK8firebase9firestore6bundle16BundleSerializer10DecodeNameERNS0_4util10JsonReaderERKN8nlohmann10basic_jsonINSt3__13mapENS8_6vectorENS8_12basic_stringIcNS8_11char_traitsIcEENS8_9allocatorIcEEEEbxydSE_NS6_14adl_serializerENSA_IhNSE_IhEEEEEE, symObjAddr: 0x1730, symBinAddr: 0x20CA0, symSize: 0x14C }
  - { offsetInCU: 0x32E02, offset: 0x181169, size: 0x8, addend: 0x0, symName: __ZN8nlohmann10basic_jsonINSt3__13mapENS1_6vectorENS1_12basic_stringIcNS1_11char_traitsIcEENS1_9allocatorIcEEEEbxydS7_NS_14adl_serializerENS3_IhNS7_IhEEEEE12get_ref_implIRKNS3_ISD_NS7_ISD_EEEEKSD_EET_RT0_, symObjAddr: 0x5284, symBinAddr: 0x2461C, symSize: 0x120 }
  - { offsetInCU: 0x331B6, offset: 0x18151D, size: 0x8, addend: 0x0, symName: __ZNK8firebase9firestore5model4impl8BasePathINS1_12ResourcePathEE6AppendERKNSt3__112basic_stringIcNS6_11char_traitsIcEENS6_9allocatorIcEEEE, symObjAddr: 0x5210, symBinAddr: 0x245A8, symSize: 0x74 }
  - { offsetInCU: 0x33371, offset: 0x1816D8, size: 0x8, addend: 0x0, symName: __ZNSt3__16vectorINS_12basic_stringIcNS_11char_traitsIcEENS_9allocatorIcEEEENS4_IS6_EEE13__vdeallocateEv, symObjAddr: 0x5F30, symBinAddr: 0x24A64, symSize: 0x38 }
  - { offsetInCU: 0x33487, offset: 0x1817EE, size: 0x8, addend: 0x0, symName: __ZNK8firebase9firestore6bundle16BundleSerializer11DecodeWhereERNS0_4util10JsonReaderERKN8nlohmann10basic_jsonINSt3__13mapENS8_6vectorENS8_12basic_stringIcNS8_11char_traitsIcEENS8_9allocatorIcEEEEbxydSE_NS6_14adl_serializerENSA_IhNSE_IhEEEEEE, symObjAddr: 0x1A94, symBinAddr: 0x21004, symSize: 0x304 }
  - { offsetInCU: 0x341C7, offset: 0x18252E, size: 0x8, addend: 0x0, symName: __ZNSt3__16vectorIN8firebase9firestore4core7OrderByENS_9allocatorIS4_EEE24__emplace_back_slow_pathIJNS2_5model9FieldPathERNS3_9DirectionEEEEvDpOT_, symObjAddr: 0x5F68, symBinAddr: 0x24A9C, symSize: 0xF8 }
  - { offsetInCU: 0x34696, offset: 0x1829FD, size: 0x8, addend: 0x0, symName: __ZN8firebase9firestore4util11ReadContext4FailENSt3__112basic_stringIcNS3_11char_traitsIcEENS3_9allocatorIcEEEE, symObjAddr: 0x2170, symBinAddr: 0x216E0, symSize: 0xA4 }
  - { offsetInCU: 0x34AD7, offset: 0x182E3E, size: 0x8, addend: 0x0, symName: __ZNK8firebase9firestore6bundle16BundleSerializer18DecodeStartAtBoundERNS0_4util10JsonReaderERKN8nlohmann10basic_jsonINSt3__13mapENS8_6vectorENS8_12basic_stringIcNS8_11char_traitsIcEENS8_9allocatorIcEEEEbxydSE_NS6_14adl_serializerENSA_IhNSE_IhEEEEEE, symObjAddr: 0x1D98, symBinAddr: 0x21308, symSize: 0x174 }
  - { offsetInCU: 0x350D6, offset: 0x18343D, size: 0x8, addend: 0x0, symName: __ZN4absl12lts_2022062317optional_internal18optional_data_baseIN8firebase9firestore4core5BoundEE6assignIS6_EEvOT_, symObjAddr: 0x94BC, symBinAddr: 0x26504, symSize: 0x54 }
  - { offsetInCU: 0x3523B, offset: 0x1835A2, size: 0x8, addend: 0x0, symName: __ZNK8firebase9firestore6bundle16BundleSerializer16DecodeEndAtBoundERNS0_4util10JsonReaderERKN8nlohmann10basic_jsonINSt3__13mapENS8_6vectorENS8_12basic_stringIcNS8_11char_traitsIcEENS8_9allocatorIcEEEEbxydSE_NS6_14adl_serializerENSA_IhNSE_IhEEEEEE, symObjAddr: 0x1F0C, symBinAddr: 0x2147C, symSize: 0x17C }
  - { offsetInCU: 0x3583A, offset: 0x183BA1, size: 0x8, addend: 0x0, symName: __ZNSt3__16__treeINS_12__value_typeINS_12basic_stringIcNS_11char_traitsIcEENS_9allocatorIcEEEEN8nlohmann10basic_jsonINS_3mapENS_6vectorES7_bxydS5_NS8_14adl_serializerENSB_IhNS5_IhEEEEEEEENS_19__map_value_compareIS7_SG_NS_4lessIvEELb1EEENS5_ISG_EEE4findIA6_cEENS_15__tree_iteratorISG_PNS_11__tree_nodeISG_PvEElEERKT_, symObjAddr: 0x8AB0, symBinAddr: 0x25DEC, symSize: 0x7C }
  - { offsetInCU: 0x359BC, offset: 0x183D23, size: 0x8, addend: 0x0, symName: __ZN8firebase9firestore4core5QueryC2ENS0_5model12ResourcePathENSt3__110shared_ptrIKNS5_12basic_stringIcNS5_11char_traitsIcEENS5_9allocatorIcEEEEEENS5_6vectorINS1_6FilterENSA_ISG_EEEENSF_INS1_7OrderByENSA_ISJ_EEEEiNS1_9LimitTypeEN4absl12lts_202206238optionalINS1_5BoundEEESR_, symObjAddr: 0x62BC, symBinAddr: 0x24DA8, symSize: 0x2A8 }
  - { offsetInCU: 0x370CC, offset: 0x185433, size: 0x8, addend: 0x0, symName: __ZN8firebase9firestore6bundle12BundledQueryC2ENS0_4core6TargetENS3_9LimitTypeE, symObjAddr: 0x6D50, symBinAddr: 0x251FC, symSize: 0xE8 }
  - { offsetInCU: 0x37111, offset: 0x185478, size: 0x8, addend: 0x0, symName: __ZN8firebase9firestore6bundle12BundledQueryC2ENS0_4core6TargetENS3_9LimitTypeE, symObjAddr: 0x6D50, symBinAddr: 0x251FC, symSize: 0xE8 }
  - { offsetInCU: 0x37133, offset: 0x18549A, size: 0x8, addend: 0x0, symName: __ZN8firebase9firestore6bundle12BundledQueryC2ENS0_4core6TargetENS3_9LimitTypeE, symObjAddr: 0x6D50, symBinAddr: 0x251FC, symSize: 0xE8 }
  - { offsetInCU: 0x37155, offset: 0x1854BC, size: 0x8, addend: 0x0, symName: __ZN8firebase9firestore6bundle12BundledQueryC2ENS0_4core6TargetENS3_9LimitTypeE, symObjAddr: 0x6D50, symBinAddr: 0x251FC, symSize: 0xE8 }
  - { offsetInCU: 0x37177, offset: 0x1854DE, size: 0x8, addend: 0x0, symName: __ZN8firebase9firestore6bundle12BundledQueryC2ENS0_4core6TargetENS3_9LimitTypeE, symObjAddr: 0x6D50, symBinAddr: 0x251FC, symSize: 0xE8 }
  - { offsetInCU: 0x37199, offset: 0x185500, size: 0x8, addend: 0x0, symName: __ZN8firebase9firestore6bundle12BundledQueryC2ENS0_4core6TargetENS3_9LimitTypeE, symObjAddr: 0x6D50, symBinAddr: 0x251FC, symSize: 0xE8 }
  - { offsetInCU: 0x371BB, offset: 0x185522, size: 0x8, addend: 0x0, symName: __ZN8firebase9firestore6bundle12BundledQueryC2ENS0_4core6TargetENS3_9LimitTypeE, symObjAddr: 0x6D50, symBinAddr: 0x251FC, symSize: 0xE8 }
  - { offsetInCU: 0x371DD, offset: 0x185544, size: 0x8, addend: 0x0, symName: __ZN8firebase9firestore6bundle12BundledQueryC2ENS0_4core6TargetENS3_9LimitTypeE, symObjAddr: 0x6D50, symBinAddr: 0x251FC, symSize: 0xE8 }
  - { offsetInCU: 0x37711, offset: 0x185A78, size: 0x8, addend: 0x0, symName: __ZN8firebase9firestore4core5QueryD1Ev, symObjAddr: 0x2088, symBinAddr: 0x215F8, symSize: 0x78 }
  - { offsetInCU: 0x37C55, offset: 0x185FBC, size: 0x8, addend: 0x0, symName: __ZNSt3__110shared_ptrINS_12basic_stringIcNS_11char_traitsIcEENS_9allocatorIcEEEEED2B7v160006Ev, symObjAddr: 0x9370, symBinAddr: 0x263B8, symSize: 0x58 }
  - { offsetInCU: 0x37D99, offset: 0x186100, size: 0x8, addend: 0x0, symName: __ZN8nlohmann10basic_jsonINSt3__13mapENS1_6vectorENS1_12basic_stringIcNS1_11char_traitsIcEENS1_9allocatorIcEEEEbxydS7_NS_14adl_serializerENS3_IhNS7_IhEEEEE12get_ref_implIRKS9_KSD_EET_RT0_, symObjAddr: 0x87CC, symBinAddr: 0x25C0C, symSize: 0x120 }
  - { offsetInCU: 0x3814D, offset: 0x1864B4, size: 0x8, addend: 0x0, symName: __ZNK8firebase9firestore5model4impl8BasePathINS1_12ResourcePathEE8PopFirstEm, symObjAddr: 0x2214, symBinAddr: 0x21784, symSize: 0xB0 }
  - { offsetInCU: 0x390FF, offset: 0x187466, size: 0x8, addend: 0x0, symName: __ZNSt3__16__treeINS_12__value_typeINS_12basic_stringIcNS_11char_traitsIcEENS_9allocatorIcEEEEN8nlohmann10basic_jsonINS_3mapENS_6vectorES7_bxydS5_NS8_14adl_serializerENSB_IhNS5_IhEEEEEEEENS_19__map_value_compareIS7_SG_NS_4lessIvEELb1EEENS5_ISG_EEE4findIA16_cEENS_15__tree_iteratorISG_PNS_11__tree_nodeISG_PvEElEERKT_, symObjAddr: 0x97B4, symBinAddr: 0x267FC, symSize: 0x7C }
  - { offsetInCU: 0x39281, offset: 0x1875E8, size: 0x8, addend: 0x0, symName: __ZNK8firebase9firestore6bundle16BundleSerializer21DecodeCompositeFilterERNS0_4util10JsonReaderERKN8nlohmann10basic_jsonINSt3__13mapENS8_6vectorENS8_12basic_stringIcNS8_11char_traitsIcEENS8_9allocatorIcEEEEbxydSE_NS6_14adl_serializerENSA_IhNSE_IhEEEEEE, symObjAddr: 0x22C4, symBinAddr: 0x21834, symSize: 0x2C4 }
  - { offsetInCU: 0x39B32, offset: 0x187E99, size: 0x8, addend: 0x0, symName: __ZNSt3__16__treeINS_12__value_typeINS_12basic_stringIcNS_11char_traitsIcEENS_9allocatorIcEEEEN8nlohmann10basic_jsonINS_3mapENS_6vectorES7_bxydS5_NS8_14adl_serializerENSB_IhNS5_IhEEEEEEEENS_19__map_value_compareIS7_SG_NS_4lessIvEELb1EEENS5_ISG_EEE4findIA12_cEENS_15__tree_iteratorISG_PNS_11__tree_nodeISG_PvEElEERKT_, symObjAddr: 0x9830, symBinAddr: 0x26878, symSize: 0x7C }
  - { offsetInCU: 0x39CB4, offset: 0x18801B, size: 0x8, addend: 0x0, symName: __ZNK8firebase9firestore6bundle16BundleSerializer17DecodeFieldFilterERNS0_4util10JsonReaderERKN8nlohmann10basic_jsonINSt3__13mapENS8_6vectorENS8_12basic_stringIcNS8_11char_traitsIcEENS8_9allocatorIcEEEEbxydSE_NS6_14adl_serializerENSA_IhNSE_IhEEEEEE, symObjAddr: 0x2588, symBinAddr: 0x21AF8, symSize: 0x77C }
  - { offsetInCU: 0x3B19F, offset: 0x189506, size: 0x8, addend: 0x0, symName: __ZNSt3__16__treeINS_12__value_typeINS_12basic_stringIcNS_11char_traitsIcEENS_9allocatorIcEEEEN8nlohmann10basic_jsonINS_3mapENS_6vectorES7_bxydS5_NS8_14adl_serializerENSB_IhNS5_IhEEEEEEEENS_19__map_value_compareIS7_SG_NS_4lessIvEELb1EEENS5_ISG_EEE4findIA8_cEENS_15__tree_iteratorISG_PNS_11__tree_nodeISG_PvEElEERKT_, symObjAddr: 0x98F8, symBinAddr: 0x26940, symSize: 0x7C }
  - { offsetInCU: 0x3B321, offset: 0x189688, size: 0x8, addend: 0x0, symName: __ZNK8firebase9firestore6bundle16BundleSerializer17DecodeBoundFieldsERNS0_4util10JsonReaderERKN8nlohmann10basic_jsonINSt3__13mapENS8_6vectorENS8_12basic_stringIcNS8_11char_traitsIcEENS8_9allocatorIcEEEEbxydSE_NS6_14adl_serializerENSA_IhNSE_IhEEEEEE, symObjAddr: 0x3C88, symBinAddr: 0x231C8, symSize: 0x1F4 }
  - { offsetInCU: 0x3BCFD, offset: 0x18A064, size: 0x8, addend: 0x0, symName: __ZNSt3__16vectorINS_12basic_stringIcNS_11char_traitsIcEENS_9allocatorIcEEEENS4_IS6_EEEC2INS_11__wrap_iterIPKS6_EELi0EEET_SE_, symObjAddr: 0x9654, symBinAddr: 0x2669C, symSize: 0xC0 }
  - { offsetInCU: 0x3C1BB, offset: 0x18A522, size: 0x8, addend: 0x0, symName: __ZNSt3__16vectorIN8firebase9firestore4core6FilterENS_9allocatorIS4_EEE9push_backB7v160006EOS4_, symObjAddr: 0x3B24, symBinAddr: 0x23094, symSize: 0x134 }
  - { offsetInCU: 0x3D3F0, offset: 0x18B757, size: 0x8, addend: 0x0, symName: __ZNK8firebase9firestore6bundle16BundleSerializer11DecodeValueERNS0_4util10JsonReaderERKN8nlohmann10basic_jsonINSt3__13mapENS8_6vectorENS8_12basic_stringIcNS8_11char_traitsIcEENS8_9allocatorIcEEEEbxydSE_NS6_14adl_serializerENSA_IhNSE_IhEEEEEE, symObjAddr: 0x3438, symBinAddr: 0x229A8, symSize: 0x628 }
  - { offsetInCU: 0x3E9DE, offset: 0x18CD45, size: 0x8, addend: 0x0, symName: __ZN8firebase9firestore4util11ReadContext10set_statusENS1_6StatusE, symObjAddr: 0x6EB8, symBinAddr: 0x252E4, symSize: 0x3C }
  - { offsetInCU: 0x3EA87, offset: 0x18CDEE, size: 0x8, addend: 0x0, symName: __ZN8firebase9firestore4util17internal_statusor12StatusOrDataINS0_5model9FieldPathEED2Ev, symObjAddr: 0x6F90, symBinAddr: 0x25320, symSize: 0x38 }
  - { offsetInCU: 0x3EFDE, offset: 0x18D345, size: 0x8, addend: 0x0, symName: __ZNSt3__16__treeINS_12__value_typeINS_12basic_stringIcNS_11char_traitsIcEENS_9allocatorIcEEEEN8nlohmann10basic_jsonINS_3mapENS_6vectorES7_bxydS5_NS8_14adl_serializerENSB_IhNS5_IhEEEEEEEENS_19__map_value_compareIS7_SG_NS_4lessIvEELb1EEENS5_ISG_EEE4findIA10_cEENS_15__tree_iteratorISG_PNS_11__tree_nodeISG_PvEElEERKT_, symObjAddr: 0x9BC4, symBinAddr: 0x269BC, symSize: 0x7C }
  - { offsetInCU: 0x3F160, offset: 0x18D4C7, size: 0x8, addend: 0x0, symName: __ZNSt3__16__treeINS_12__value_typeINS_12basic_stringIcNS_11char_traitsIcEENS_9allocatorIcEEEEN8nlohmann10basic_jsonINS_3mapENS_6vectorES7_bxydS5_NS8_14adl_serializerENSB_IhNS5_IhEEEEEEEENS_19__map_value_compareIS7_SG_NS_4lessIvEELb1EEENS5_ISG_EEE4findIA13_cEENS_15__tree_iteratorISG_PNS_11__tree_nodeISG_PvEElEERKT_, symObjAddr: 0x9C40, symBinAddr: 0x26A38, symSize: 0x7C }
  - { offsetInCU: 0x3F3E5, offset: 0x18D74C, size: 0x8, addend: 0x0, symName: __ZN8firebase9firestore4util10JsonReader11RequiredIntIxEET_PKcRKN8nlohmann10basic_jsonINSt3__13mapENS9_6vectorENS9_12basic_stringIcNS9_11char_traitsIcEENS9_9allocatorIcEEEEbxydSF_NS7_14adl_serializerENSB_IhNSF_IhEEEEEE, symObjAddr: 0x3E7C, symBinAddr: 0x233BC, symSize: 0xC8 }
  - { offsetInCU: 0x3F7D0, offset: 0x18DB37, size: 0x8, addend: 0x0, symName: __ZNSt3__16__treeINS_12__value_typeINS_12basic_stringIcNS_11char_traitsIcEENS_9allocatorIcEEEEN8nlohmann10basic_jsonINS_3mapENS_6vectorES7_bxydS5_NS8_14adl_serializerENSB_IhNS5_IhEEEEEEEENS_19__map_value_compareIS7_SG_NS_4lessIvEELb1EEENS5_ISG_EEE4findIA15_cEENS_15__tree_iteratorISG_PNS_11__tree_nodeISG_PvEElEERKT_, symObjAddr: 0xA66C, symBinAddr: 0x26BD4, symSize: 0x7C }
  - { offsetInCU: 0x3FA36, offset: 0x18DD9D, size: 0x8, addend: 0x0, symName: __ZNK8firebase9firestore6bundle16BundleSerializer20DecodeReferenceValueERNS0_4util10JsonReaderERKNSt3__112basic_stringIcNS6_11char_traitsIcEENS6_9allocatorIcEEEE, symObjAddr: 0x420C, symBinAddr: 0x2374C, symSize: 0x104 }
  - { offsetInCU: 0x3FF60, offset: 0x18E2C7, size: 0x8, addend: 0x0, symName: __ZNSt3__16__treeINS_12__value_typeINS_12basic_stringIcNS_11char_traitsIcEENS_9allocatorIcEEEEN8nlohmann10basic_jsonINS_3mapENS_6vectorES7_bxydS5_NS8_14adl_serializerENSB_IhNS5_IhEEEEEEEENS_19__map_value_compareIS7_SG_NS_4lessIvEELb1EEENS5_ISG_EEE4findIA14_cEENS_15__tree_iteratorISG_PNS_11__tree_nodeISG_PvEElEERKT_, symObjAddr: 0xA764, symBinAddr: 0x26C50, symSize: 0x7C }
  - { offsetInCU: 0x400E2, offset: 0x18E449, size: 0x8, addend: 0x0, symName: __ZNK8firebase9firestore6bundle16BundleSerializer16DecodeArrayValueERNS0_4util10JsonReaderERKN8nlohmann10basic_jsonINSt3__13mapENS8_6vectorENS8_12basic_stringIcNS8_11char_traitsIcEENS8_9allocatorIcEEEEbxydSE_NS6_14adl_serializerENSA_IhNSE_IhEEEEEE, symObjAddr: 0x4370, symBinAddr: 0x238B0, symSize: 0x134 }
  - { offsetInCU: 0x40560, offset: 0x18E8C7, size: 0x8, addend: 0x0, symName: __ZNK8firebase9firestore6bundle16BundleSerializer14DecodeMapValueERNS0_4util10JsonReaderERKN8nlohmann10basic_jsonINSt3__13mapENS8_6vectorENS8_12basic_stringIcNS8_11char_traitsIcEENS8_9allocatorIcEEEEbxydSE_NS6_14adl_serializerENSA_IhNSE_IhEEEEEE, symObjAddr: 0x44A4, symBinAddr: 0x239E4, symSize: 0x280 }
  - { offsetInCU: 0x4129A, offset: 0x18F601, size: 0x8, addend: 0x0, symName: __ZN8firebase9firestore6nanopb7MessageINS0_29_google_firestore_v1_MapValueEED2Ev, symObjAddr: 0xA898, symBinAddr: 0x26D08, symSize: 0x3C }
  - { offsetInCU: 0x41612, offset: 0x18F979, size: 0x8, addend: 0x0, symName: __ZNSt3__114__split_bufferIN8firebase9firestore4core6FilterERNS_9allocatorIS4_EEED2Ev, symObjAddr: 0x98AC, symBinAddr: 0x268F4, symSize: 0x4C }
  - { offsetInCU: 0x41ADA, offset: 0x18FE41, size: 0x8, addend: 0x0, symName: __ZN8firebase9firestore4util10JsonReader8ParseIntIxEET_RKN8nlohmann10basic_jsonINSt3__13mapENS7_6vectorENS7_12basic_stringIcNS7_11char_traitsIcEENS7_9allocatorIcEEEEbxydSD_NS5_14adl_serializerENS9_IhNSD_IhEEEEEERS2_, symObjAddr: 0x7510, symBinAddr: 0x25848, symSize: 0xE4 }
  - { offsetInCU: 0x421A5, offset: 0x19050C, size: 0x8, addend: 0x0, symName: __ZN8firebase9firestore4util8StatusOrINS_9TimestampEEC2Ev, symObjAddr: 0x7310, symBinAddr: 0x25648, symSize: 0xA0 }
  - { offsetInCU: 0x4257C, offset: 0x1908E3, size: 0x8, addend: 0x0, symName: __ZN8firebase9firestore4util17internal_statusor12StatusOrDataINS_9TimestampEEaSEOS5_, symObjAddr: 0x7410, symBinAddr: 0x25748, symSize: 0x4C }
  - { offsetInCU: 0x42650, offset: 0x1909B7, size: 0x8, addend: 0x0, symName: __ZN8firebase9firestore4util10JsonReader11OptionalIntIxEET_PKcRKN8nlohmann10basic_jsonINSt3__13mapENS9_6vectorENS9_12basic_stringIcNS9_11char_traitsIcEENS9_9allocatorIcEEEEbxydSF_NS7_14adl_serializerENSB_IhNSF_IhEEEEEES4_, symObjAddr: 0x70B4, symBinAddr: 0x253EC, symSize: 0xC0 }
  - { offsetInCU: 0x42A30, offset: 0x190D97, size: 0x8, addend: 0x0, symName: __ZN8firebase9firestore4util10JsonReader11OptionalIntIiEET_PKcRKN8nlohmann10basic_jsonINSt3__13mapENS9_6vectorENS9_12basic_stringIcNS9_11char_traitsIcEENS9_9allocatorIcEEEEbxydSF_NS7_14adl_serializerENSB_IhNSF_IhEEEEEES4_, symObjAddr: 0x7174, symBinAddr: 0x254AC, symSize: 0xC0 }
  - { offsetInCU: 0x42E10, offset: 0x191177, size: 0x8, addend: 0x0, symName: __ZNK8firebase9firestore4util6Status13error_messageEv, symObjAddr: 0x72F0, symBinAddr: 0x25628, symSize: 0x20 }
  - { offsetInCU: 0x42E38, offset: 0x19119F, size: 0x8, addend: 0x0, symName: __ZNK8firebase9firestore4util6Status13error_messageEv, symObjAddr: 0x72F0, symBinAddr: 0x25628, symSize: 0x20 }
  - { offsetInCU: 0x42E53, offset: 0x1911BA, size: 0x8, addend: 0x0, symName: __ZNK8firebase9firestore4util6Status13error_messageEv, symObjAddr: 0x72F0, symBinAddr: 0x25628, symSize: 0x20 }
  - { offsetInCU: 0x42E75, offset: 0x1911DC, size: 0x8, addend: 0x0, symName: __ZNK8firebase9firestore4util6Status13error_messageEv, symObjAddr: 0x72F0, symBinAddr: 0x25628, symSize: 0x20 }
  - { offsetInCU: 0x42E92, offset: 0x1911F9, size: 0x8, addend: 0x0, symName: __ZN8firebase9firestore4util11ReadContext4FailIJNSt3__112basic_stringIcNS4_11char_traitsIcEENS4_9allocatorIcEEEEEEEvPKcDpRKT_, symObjAddr: 0x7234, symBinAddr: 0x2556C, symSize: 0xBC }
  - { offsetInCU: 0x434CB, offset: 0x191832, size: 0x8, addend: 0x0, symName: __ZN8nlohmann6detail15iteration_proxyINS0_9iter_implIKNS_10basic_jsonINSt3__13mapENS4_6vectorENS4_12basic_stringIcNS4_11char_traitsIcEENS4_9allocatorIcEEEEbxydSA_NS_14adl_serializerENS6_IhNSA_IhEEEEEEEEE5beginEv, symObjAddr: 0x4724, symBinAddr: 0x23C64, symSize: 0x44 }
  - { offsetInCU: 0x435C2, offset: 0x191929, size: 0x8, addend: 0x0, symName: __ZN8nlohmann6detail15iteration_proxyINS0_9iter_implIKNS_10basic_jsonINSt3__13mapENS4_6vectorENS4_12basic_stringIcNS4_11char_traitsIcEENS4_9allocatorIcEEEEbxydSA_NS_14adl_serializerENS6_IhNSA_IhEEEEEEEEE3endEv, symObjAddr: 0x4768, symBinAddr: 0x23CA8, symSize: 0x44 }
  - { offsetInCU: 0x436B9, offset: 0x191A20, size: 0x8, addend: 0x0, symName: __ZNK8nlohmann6detail9iter_implIKNS_10basic_jsonINSt3__13mapENS3_6vectorENS3_12basic_stringIcNS3_11char_traitsIcEENS3_9allocatorIcEEEEbxydS9_NS_14adl_serializerENS5_IhNS9_IhEEEEEEEeqERKSH_, symObjAddr: 0xAA80, symBinAddr: 0x26EF0, symSize: 0x104 }
  - { offsetInCU: 0x43932, offset: 0x191C99, size: 0x8, addend: 0x0, symName: __ZNK8nlohmann6detail21iteration_proxy_valueINS0_9iter_implIKNS_10basic_jsonINSt3__13mapENS4_6vectorENS4_12basic_stringIcNS4_11char_traitsIcEENS4_9allocatorIcEEEEbxydSA_NS_14adl_serializerENS6_IhNSA_IhEEEEEEEEE3keyEv, symObjAddr: 0x47AC, symBinAddr: 0x23CEC, symSize: 0x74 }
  - { offsetInCU: 0x4399F, offset: 0x191D06, size: 0x8, addend: 0x0, symName: __ZN8nlohmann6detail21iteration_proxy_valueINS0_9iter_implIKNS_10basic_jsonINSt3__13mapENS4_6vectorENS4_12basic_stringIcNS4_11char_traitsIcEENS4_9allocatorIcEEEEbxydSA_NS_14adl_serializerENS6_IhNSA_IhEEEEEEEEED1Ev, symObjAddr: 0x4820, symBinAddr: 0x23D60, symSize: 0x40 }
  - { offsetInCU: 0x439AB, offset: 0x191D12, size: 0x8, addend: 0x0, symName: __ZNK8nlohmann6detail9iter_implIKNS_10basic_jsonINSt3__13mapENS3_6vectorENS3_12basic_stringIcNS3_11char_traitsIcEENS3_9allocatorIcEEEEbxydS9_NS_14adl_serializerENS5_IhNS9_IhEEEEEEEdeEv, symObjAddr: 0xAEC8, symBinAddr: 0x27198, symSize: 0x164 }
  - { offsetInCU: 0x43BFF, offset: 0x191F66, size: 0x8, addend: 0x0, symName: __ZN8nlohmann6detail9iter_implIKNS_10basic_jsonINSt3__13mapENS3_6vectorENS3_12basic_stringIcNS3_11char_traitsIcEENS3_9allocatorIcEEEEbxydS9_NS_14adl_serializerENS5_IhNS9_IhEEEEEEEppEv, symObjAddr: 0xAD24, symBinAddr: 0x26FF4, symSize: 0x84 }
  - { offsetInCU: 0x43DA0, offset: 0x192107, size: 0x8, addend: 0x0, symName: __ZN8nlohmann6detail13int_to_stringINSt3__112basic_stringIcNS2_11char_traitsIcEENS2_9allocatorIcEEEEEEvRT_m, symObjAddr: 0xADA8, symBinAddr: 0x27078, symSize: 0x50 }
  - { offsetInCU: 0x43DAC, offset: 0x192113, size: 0x8, addend: 0x0, symName: __ZN8nlohmann6detail21iteration_proxy_valueINS0_9iter_implIKNS_10basic_jsonINSt3__13mapENS4_6vectorENS4_12basic_stringIcNS4_11char_traitsIcEENS4_9allocatorIcEEEEbxydSA_NS_14adl_serializerENS6_IhNSA_IhEEEEEEEEED1Ev, symObjAddr: 0x4820, symBinAddr: 0x23D60, symSize: 0x40 }
  - { offsetInCU: 0x440BE, offset: 0x192425, size: 0x8, addend: 0x0, symName: __ZN8nlohmann6detail9iter_implIKNS_10basic_jsonINSt3__13mapENS3_6vectorENS3_12basic_stringIcNS3_11char_traitsIcEENS3_9allocatorIcEEEEbxydS9_NS_14adl_serializerENS5_IhNS9_IhEEEEEEEC2EPSG_, symObjAddr: 0xA95C, symBinAddr: 0x26DCC, symSize: 0x48 }
  - { offsetInCU: 0x44135, offset: 0x19249C, size: 0x8, addend: 0x0, symName: __ZN8nlohmann6detail9iter_implIKNS_10basic_jsonINSt3__13mapENS3_6vectorENS3_12basic_stringIcNS3_11char_traitsIcEENS3_9allocatorIcEEEEbxydS9_NS_14adl_serializerENS5_IhNS9_IhEEEEEEE9set_beginEv, symObjAddr: 0xA8D4, symBinAddr: 0x26D44, symSize: 0x88 }
  - { offsetInCU: 0x441EF, offset: 0x192556, size: 0x8, addend: 0x0, symName: __ZN8nlohmann6detail21iteration_proxy_valueINS0_9iter_implIKNS_10basic_jsonINSt3__13mapENS4_6vectorENS4_12basic_stringIcNS4_11char_traitsIcEENS4_9allocatorIcEEEEbxydSA_NS_14adl_serializerENS6_IhNSA_IhEEEEEEEEEC2ESI_, symObjAddr: 0xA9A4, symBinAddr: 0x26E14, symSize: 0x60 }
  - { offsetInCU: 0x44304, offset: 0x19266B, size: 0x8, addend: 0x0, symName: __ZN8nlohmann6detail9iter_implIKNS_10basic_jsonINSt3__13mapENS3_6vectorENS3_12basic_stringIcNS3_11char_traitsIcEENS3_9allocatorIcEEEEbxydS9_NS_14adl_serializerENS5_IhNS9_IhEEEEEEE7set_endEv, symObjAddr: 0xAA04, symBinAddr: 0x26E74, symSize: 0x7C }
  - { offsetInCU: 0x443D0, offset: 0x192737, size: 0x8, addend: 0x0, symName: __ZNK8nlohmann6detail9iter_implIKNS_10basic_jsonINSt3__13mapENS3_6vectorENS3_12basic_stringIcNS3_11char_traitsIcEENS3_9allocatorIcEEEEbxydS9_NS_14adl_serializerENS5_IhNS9_IhEEEEEEE3keyEv, symObjAddr: 0xADF8, symBinAddr: 0x270C8, symSize: 0xD0 }
  - { offsetInCU: 0x445FF, offset: 0x192966, size: 0x8, addend: 0x0, symName: __ZNK8nlohmann6detail21iteration_proxy_valueINS0_9iter_implIKNS_10basic_jsonINSt3__13mapENS4_6vectorENS4_12basic_stringIcNS4_11char_traitsIcEENS4_9allocatorIcEEEEbxydSA_NS_14adl_serializerENS6_IhNSA_IhEEEEEEEEE3keyEv.cold.1, symObjAddr: 0xB150, symBinAddr: 0x176A80, symSize: 0x28 }
  - { offsetInCU: 0x44B60, offset: 0x192EC7, size: 0x8, addend: 0x0, symName: __ZNK8firebase9firestore6bundle16BundleSerializer22DecodeDocumentMetadataERNS0_4util10JsonReaderERKN8nlohmann10basic_jsonINSt3__13mapENS8_6vectorENS8_12basic_stringIcNS8_11char_traitsIcEENS8_9allocatorIcEEEEbxydSE_NS6_14adl_serializerENSA_IhNSE_IhEEEEEE, symObjAddr: 0x4860, symBinAddr: 0x23DA0, symSize: 0x3D8 }
  - { offsetInCU: 0x45BCE, offset: 0x193F35, size: 0x8, addend: 0x0, symName: __ZNK8nlohmann10basic_jsonINSt3__13mapENS1_6vectorENS1_12basic_stringIcNS1_11char_traitsIcEENS1_9allocatorIcEEEEbxydS7_NS_14adl_serializerENS3_IhNS7_IhEEEEE3getIS9_S9_Li0EEET0_v, symObjAddr: 0x4C38, symBinAddr: 0x24178, symSize: 0x48 }
  - { offsetInCU: 0x45DE3, offset: 0x19414A, size: 0x8, addend: 0x0, symName: __ZNSt3__114__split_bufferINS_12basic_stringIcNS_11char_traitsIcEENS_9allocatorIcEEEERNS4_IS6_EEED2Ev, symObjAddr: 0x5EA8, symBinAddr: 0x249DC, symSize: 0x34 }
  - { offsetInCU: 0x4617C, offset: 0x1944E3, size: 0x8, addend: 0x0, symName: __ZNK8firebase9firestore6bundle16BundleSerializer14DecodeDocumentERNS0_4util10JsonReaderERKN8nlohmann10basic_jsonINSt3__13mapENS8_6vectorENS8_12basic_stringIcNS8_11char_traitsIcEENS8_9allocatorIcEEEEbxydSE_NS6_14adl_serializerENSA_IhNSE_IhEEEEEE, symObjAddr: 0x4C80, symBinAddr: 0x241C0, symSize: 0x254 }
  - { offsetInCU: 0x4702D, offset: 0x195394, size: 0x8, addend: 0x0, symName: __ZNSt3__16vectorINS_12basic_stringIcNS_11char_traitsIcEENS_9allocatorIcEEEENS4_IS6_EEE9push_backB7v160006ERKS6_, symObjAddr: 0x5828, symBinAddr: 0x2473C, symSize: 0x118 }
  - { offsetInCU: 0x483F9, offset: 0x196760, size: 0x8, addend: 0x0, symName: __ZNSt3__128__exception_guard_exceptionsINS_29_AllocatorDestroyRangeReverseINS_9allocatorINS_12basic_stringIcNS_11char_traitsIcEENS2_IcEEEEEENS_16reverse_iteratorIPS7_EEEEED2B7v160006Ev, symObjAddr: 0x5E30, symBinAddr: 0x24964, symSize: 0x34 }
  - { offsetInCU: 0x48437, offset: 0x19679E, size: 0x8, addend: 0x0, symName: __ZNKSt3__129_AllocatorDestroyRangeReverseINS_9allocatorINS_12basic_stringIcNS_11char_traitsIcEENS1_IcEEEEEENS_16reverse_iteratorIPS6_EEEclB7v160006Ev, symObjAddr: 0x5E64, symBinAddr: 0x24998, symSize: 0x44 }
  - { offsetInCU: 0x48634, offset: 0x19699B, size: 0x8, addend: 0x0, symName: __ZNSt3__114__split_bufferINS_12basic_stringIcNS_11char_traitsIcEENS_9allocatorIcEEEERNS4_IS6_EEE17__destruct_at_endB7v160006EPS6_, symObjAddr: 0x5EDC, symBinAddr: 0x24A10, symSize: 0x54 }
  - { offsetInCU: 0x489BD, offset: 0x196D24, size: 0x8, addend: 0x0, symName: __ZNSt3__114__split_bufferIN8firebase9firestore4core7OrderByERNS_9allocatorIS4_EEED2Ev, symObjAddr: 0x6120, symBinAddr: 0x24C0C, symSize: 0x4C }
  - { offsetInCU: 0x491BA, offset: 0x197521, size: 0x8, addend: 0x0, symName: __ZNSt3__120__shared_ptr_emplaceIN8firebase9firestore4util18ThreadSafeMemoizerINS_6vectorINS2_4core7OrderByENS_9allocatorIS7_EEEEEENS8_ISB_EEED1Ev, symObjAddr: 0x6564, symBinAddr: 0x25050, symSize: 0x14 }
  - { offsetInCU: 0x491DC, offset: 0x197543, size: 0x8, addend: 0x0, symName: __ZNSt3__120__shared_ptr_emplaceIN8firebase9firestore4util18ThreadSafeMemoizerINS_6vectorINS2_4core7OrderByENS_9allocatorIS7_EEEEEENS8_ISB_EEED1Ev, symObjAddr: 0x6564, symBinAddr: 0x25050, symSize: 0x14 }
  - { offsetInCU: 0x49213, offset: 0x19757A, size: 0x8, addend: 0x0, symName: __ZNSt3__120__shared_ptr_emplaceIN8firebase9firestore4util18ThreadSafeMemoizerINS_6vectorINS2_4core7OrderByENS_9allocatorIS7_EEEEEENS8_ISB_EEED0Ev, symObjAddr: 0x6578, symBinAddr: 0x25064, symSize: 0x24 }
  - { offsetInCU: 0x492A5, offset: 0x19760C, size: 0x8, addend: 0x0, symName: __ZNSt3__120__shared_ptr_emplaceIN8firebase9firestore4util18ThreadSafeMemoizerINS_6vectorINS2_4core7OrderByENS_9allocatorIS7_EEEEEENS8_ISB_EEE16__on_zero_sharedEv, symObjAddr: 0x659C, symBinAddr: 0x25088, symSize: 0x8 }
  - { offsetInCU: 0x492CD, offset: 0x197634, size: 0x8, addend: 0x0, symName: __ZNSt3__120__shared_ptr_emplaceIN8firebase9firestore4util18ThreadSafeMemoizerINS_6vectorINS2_4core7OrderByENS_9allocatorIS7_EEEEEENS8_ISB_EEE16__on_zero_sharedEv, symObjAddr: 0x659C, symBinAddr: 0x25088, symSize: 0x8 }
  - { offsetInCU: 0x49367, offset: 0x1976CE, size: 0x8, addend: 0x0, symName: __ZNSt3__120__shared_ptr_emplaceIN8firebase9firestore4util18ThreadSafeMemoizerINS_6vectorINS2_4core7OrderByENS_9allocatorIS7_EEEEEENS8_ISB_EEE21__on_zero_shared_weakEv, symObjAddr: 0x65A4, symBinAddr: 0x25090, symSize: 0x4 }
  - { offsetInCU: 0x49399, offset: 0x197700, size: 0x8, addend: 0x0, symName: __ZNSt3__120__shared_ptr_emplaceIN8firebase9firestore4util18ThreadSafeMemoizerINS_6vectorINS2_4core7OrderByENS_9allocatorIS7_EEEEEENS8_ISB_EEE21__on_zero_shared_weakEv, symObjAddr: 0x65A4, symBinAddr: 0x25090, symSize: 0x4 }
  - { offsetInCU: 0x493BC, offset: 0x197723, size: 0x8, addend: 0x0, symName: __ZNSt3__120__shared_ptr_emplaceIN8firebase9firestore4util18ThreadSafeMemoizerINS_6vectorINS2_4core7OrderByENS_9allocatorIS7_EEEEEENS8_ISB_EEE21__on_zero_shared_weakEv, symObjAddr: 0x65A4, symBinAddr: 0x25090, symSize: 0x4 }
  - { offsetInCU: 0x493DF, offset: 0x197746, size: 0x8, addend: 0x0, symName: __ZNSt3__120__shared_ptr_emplaceIN8firebase9firestore4util18ThreadSafeMemoizerINS_6vectorINS2_4core7OrderByENS_9allocatorIS7_EEEEEENS8_ISB_EEE21__on_zero_shared_weakEv, symObjAddr: 0x65A4, symBinAddr: 0x25090, symSize: 0x4 }
  - { offsetInCU: 0x4940C, offset: 0x197773, size: 0x8, addend: 0x0, symName: __ZNSt3__120__shared_ptr_emplaceIN8firebase9firestore4util18ThreadSafeMemoizerINS_6vectorINS2_4core7OrderByENS_9allocatorIS7_EEEEEENS8_ISB_EEE21__on_zero_shared_weakEv, symObjAddr: 0x65A4, symBinAddr: 0x25090, symSize: 0x4 }
  - { offsetInCU: 0x49433, offset: 0x19779A, size: 0x8, addend: 0x0, symName: __ZNSt3__120__shared_ptr_emplaceIN8firebase9firestore4util18ThreadSafeMemoizerINS_6vectorINS2_4core7OrderByENS_9allocatorIS7_EEEEEENS8_ISB_EEE21__on_zero_shared_weakEv, symObjAddr: 0x65A4, symBinAddr: 0x25090, symSize: 0x4 }
  - { offsetInCU: 0x49660, offset: 0x1979C7, size: 0x8, addend: 0x0, symName: __ZNSt3__120__shared_ptr_emplaceIN8firebase9firestore4util18ThreadSafeMemoizerINS2_4core6TargetEEENS_9allocatorIS7_EEED1Ev, symObjAddr: 0x6610, symBinAddr: 0x250FC, symSize: 0x14 }
  - { offsetInCU: 0x49682, offset: 0x1979E9, size: 0x8, addend: 0x0, symName: __ZNSt3__120__shared_ptr_emplaceIN8firebase9firestore4util18ThreadSafeMemoizerINS2_4core6TargetEEENS_9allocatorIS7_EEED1Ev, symObjAddr: 0x6610, symBinAddr: 0x250FC, symSize: 0x14 }
  - { offsetInCU: 0x496B9, offset: 0x197A20, size: 0x8, addend: 0x0, symName: __ZNSt3__120__shared_ptr_emplaceIN8firebase9firestore4util18ThreadSafeMemoizerINS2_4core6TargetEEENS_9allocatorIS7_EEED0Ev, symObjAddr: 0x6624, symBinAddr: 0x25110, symSize: 0x24 }
  - { offsetInCU: 0x4974B, offset: 0x197AB2, size: 0x8, addend: 0x0, symName: __ZNSt3__120__shared_ptr_emplaceIN8firebase9firestore4util18ThreadSafeMemoizerINS2_4core6TargetEEENS_9allocatorIS7_EEE16__on_zero_sharedEv, symObjAddr: 0x6648, symBinAddr: 0x25134, symSize: 0x8 }
  - { offsetInCU: 0x49773, offset: 0x197ADA, size: 0x8, addend: 0x0, symName: __ZNSt3__120__shared_ptr_emplaceIN8firebase9firestore4util18ThreadSafeMemoizerINS2_4core6TargetEEENS_9allocatorIS7_EEE16__on_zero_sharedEv, symObjAddr: 0x6648, symBinAddr: 0x25134, symSize: 0x8 }
  - { offsetInCU: 0x4980D, offset: 0x197B74, size: 0x8, addend: 0x0, symName: __ZNSt3__120__shared_ptr_emplaceIN8firebase9firestore4util18ThreadSafeMemoizerINS2_4core6TargetEEENS_9allocatorIS7_EEE21__on_zero_shared_weakEv, symObjAddr: 0x6650, symBinAddr: 0x2513C, symSize: 0x4 }
  - { offsetInCU: 0x4983F, offset: 0x197BA6, size: 0x8, addend: 0x0, symName: __ZNSt3__120__shared_ptr_emplaceIN8firebase9firestore4util18ThreadSafeMemoizerINS2_4core6TargetEEENS_9allocatorIS7_EEE21__on_zero_shared_weakEv, symObjAddr: 0x6650, symBinAddr: 0x2513C, symSize: 0x4 }
  - { offsetInCU: 0x49862, offset: 0x197BC9, size: 0x8, addend: 0x0, symName: __ZNSt3__120__shared_ptr_emplaceIN8firebase9firestore4util18ThreadSafeMemoizerINS2_4core6TargetEEENS_9allocatorIS7_EEE21__on_zero_shared_weakEv, symObjAddr: 0x6650, symBinAddr: 0x2513C, symSize: 0x4 }
  - { offsetInCU: 0x49885, offset: 0x197BEC, size: 0x8, addend: 0x0, symName: __ZNSt3__120__shared_ptr_emplaceIN8firebase9firestore4util18ThreadSafeMemoizerINS2_4core6TargetEEENS_9allocatorIS7_EEE21__on_zero_shared_weakEv, symObjAddr: 0x6650, symBinAddr: 0x2513C, symSize: 0x4 }
  - { offsetInCU: 0x498B3, offset: 0x197C1A, size: 0x8, addend: 0x0, symName: __ZNSt3__120__shared_ptr_emplaceIN8firebase9firestore4util18ThreadSafeMemoizerINS2_4core6TargetEEENS_9allocatorIS7_EEE21__on_zero_shared_weakEv, symObjAddr: 0x6650, symBinAddr: 0x2513C, symSize: 0x4 }
  - { offsetInCU: 0x498DB, offset: 0x197C42, size: 0x8, addend: 0x0, symName: __ZNSt3__120__shared_ptr_emplaceIN8firebase9firestore4util18ThreadSafeMemoizerINS2_4core6TargetEEENS_9allocatorIS7_EEE21__on_zero_shared_weakEv, symObjAddr: 0x6650, symBinAddr: 0x2513C, symSize: 0x4 }
  - { offsetInCU: 0x4AB97, offset: 0x198EFE, size: 0x8, addend: 0x0, symName: __ZN8firebase9firestore4util10JsonReader8ParseIntIiEET_RKN8nlohmann10basic_jsonINSt3__13mapENS7_6vectorENS7_12basic_stringIcNS7_11char_traitsIcEENS7_9allocatorIcEEEEbxydSD_NS5_14adl_serializerENS9_IhNSD_IhEEEEEERS2_, symObjAddr: 0x77AC, symBinAddr: 0x25AE4, symSize: 0xE4 }
  - { offsetInCU: 0x4B045, offset: 0x1993AC, size: 0x8, addend: 0x0, symName: __ZN8firebase9firestore4util17internal_statusor12StatusOrDataINS_9TimestampEEC2EONS1_6StatusE, symObjAddr: 0x73B0, symBinAddr: 0x256E8, symSize: 0x60 }
  - { offsetInCU: 0x4B421, offset: 0x199788, size: 0x8, addend: 0x0, symName: __ZN8firebase9firestore4util17internal_statusor12StatusOrDataINS_9TimestampEE6AssignEONS1_6StatusE, symObjAddr: 0x74B4, symBinAddr: 0x257EC, symSize: 0x5C }
  - { offsetInCU: 0x4B55E, offset: 0x1998C5, size: 0x8, addend: 0x0, symName: __ZN8firebase9firestore4util17internal_statusor12StatusOrDataINS_9TimestampEE6AssignEOS4_, symObjAddr: 0x745C, symBinAddr: 0x25794, symSize: 0x58 }
  - { offsetInCU: 0x4D431, offset: 0x19B798, size: 0x8, addend: 0x0, symName: __ZNSt3__120__shared_ptr_emplaceIN8firebase9firestore6nanopb7MessageINS2_31_google_firestore_v1_ArrayValueEEENS_9allocatorIS6_EEED1Ev, symObjAddr: 0x8788, symBinAddr: 0x25BC8, symSize: 0x14 }
  - { offsetInCU: 0x4D453, offset: 0x19B7BA, size: 0x8, addend: 0x0, symName: __ZNSt3__120__shared_ptr_emplaceIN8firebase9firestore6nanopb7MessageINS2_31_google_firestore_v1_ArrayValueEEENS_9allocatorIS6_EEED1Ev, symObjAddr: 0x8788, symBinAddr: 0x25BC8, symSize: 0x14 }
  - { offsetInCU: 0x4D48A, offset: 0x19B7F1, size: 0x8, addend: 0x0, symName: __ZNSt3__120__shared_ptr_emplaceIN8firebase9firestore6nanopb7MessageINS2_31_google_firestore_v1_ArrayValueEEENS_9allocatorIS6_EEED0Ev, symObjAddr: 0x879C, symBinAddr: 0x25BDC, symSize: 0x24 }
  - { offsetInCU: 0x4D503, offset: 0x19B86A, size: 0x8, addend: 0x0, symName: __ZNSt3__120__shared_ptr_emplaceIN8firebase9firestore6nanopb7MessageINS2_31_google_firestore_v1_ArrayValueEEENS_9allocatorIS6_EEE16__on_zero_sharedEv, symObjAddr: 0x87C0, symBinAddr: 0x25C00, symSize: 0x8 }
  - { offsetInCU: 0x4D52B, offset: 0x19B892, size: 0x8, addend: 0x0, symName: __ZNSt3__120__shared_ptr_emplaceIN8firebase9firestore6nanopb7MessageINS2_31_google_firestore_v1_ArrayValueEEENS_9allocatorIS6_EEE16__on_zero_sharedEv, symObjAddr: 0x87C0, symBinAddr: 0x25C00, symSize: 0x8 }
  - { offsetInCU: 0x4D5C5, offset: 0x19B92C, size: 0x8, addend: 0x0, symName: __ZNSt3__120__shared_ptr_emplaceIN8firebase9firestore6nanopb7MessageINS2_31_google_firestore_v1_ArrayValueEEENS_9allocatorIS6_EEE21__on_zero_shared_weakEv, symObjAddr: 0x87C8, symBinAddr: 0x25C08, symSize: 0x4 }
  - { offsetInCU: 0x4D5F7, offset: 0x19B95E, size: 0x8, addend: 0x0, symName: __ZNSt3__120__shared_ptr_emplaceIN8firebase9firestore6nanopb7MessageINS2_31_google_firestore_v1_ArrayValueEEENS_9allocatorIS6_EEE21__on_zero_shared_weakEv, symObjAddr: 0x87C8, symBinAddr: 0x25C08, symSize: 0x4 }
  - { offsetInCU: 0x4D61A, offset: 0x19B981, size: 0x8, addend: 0x0, symName: __ZNSt3__120__shared_ptr_emplaceIN8firebase9firestore6nanopb7MessageINS2_31_google_firestore_v1_ArrayValueEEENS_9allocatorIS6_EEE21__on_zero_shared_weakEv, symObjAddr: 0x87C8, symBinAddr: 0x25C08, symSize: 0x4 }
  - { offsetInCU: 0x4D63D, offset: 0x19B9A4, size: 0x8, addend: 0x0, symName: __ZNSt3__120__shared_ptr_emplaceIN8firebase9firestore6nanopb7MessageINS2_31_google_firestore_v1_ArrayValueEEENS_9allocatorIS6_EEE21__on_zero_shared_weakEv, symObjAddr: 0x87C8, symBinAddr: 0x25C08, symSize: 0x4 }
  - { offsetInCU: 0x4D66A, offset: 0x19B9D1, size: 0x8, addend: 0x0, symName: __ZNSt3__120__shared_ptr_emplaceIN8firebase9firestore6nanopb7MessageINS2_31_google_firestore_v1_ArrayValueEEENS_9allocatorIS6_EEE21__on_zero_shared_weakEv, symObjAddr: 0x87C8, symBinAddr: 0x25C08, symSize: 0x4 }
  - { offsetInCU: 0x4D691, offset: 0x19B9F8, size: 0x8, addend: 0x0, symName: __ZNSt3__120__shared_ptr_emplaceIN8firebase9firestore6nanopb7MessageINS2_31_google_firestore_v1_ArrayValueEEENS_9allocatorIS6_EEE21__on_zero_shared_weakEv, symObjAddr: 0x87C8, symBinAddr: 0x25C08, symSize: 0x4 }
  - { offsetInCU: 0x4D857, offset: 0x19BBBE, size: 0x8, addend: 0x0, symName: __ZNSt3__120__shared_ptr_emplaceIN8firebase9firestore6nanopb7MessageINS2_26_google_firestore_v1_ValueEEENS_9allocatorIS6_EEED1Ev, symObjAddr: 0x89A4, symBinAddr: 0x25DA8, symSize: 0x14 }
  - { offsetInCU: 0x4D879, offset: 0x19BBE0, size: 0x8, addend: 0x0, symName: __ZNSt3__120__shared_ptr_emplaceIN8firebase9firestore6nanopb7MessageINS2_26_google_firestore_v1_ValueEEENS_9allocatorIS6_EEED1Ev, symObjAddr: 0x89A4, symBinAddr: 0x25DA8, symSize: 0x14 }
  - { offsetInCU: 0x4D8B0, offset: 0x19BC17, size: 0x8, addend: 0x0, symName: __ZNSt3__120__shared_ptr_emplaceIN8firebase9firestore6nanopb7MessageINS2_26_google_firestore_v1_ValueEEENS_9allocatorIS6_EEED0Ev, symObjAddr: 0x89B8, symBinAddr: 0x25DBC, symSize: 0x24 }
  - { offsetInCU: 0x4D929, offset: 0x19BC90, size: 0x8, addend: 0x0, symName: __ZNSt3__120__shared_ptr_emplaceIN8firebase9firestore6nanopb7MessageINS2_26_google_firestore_v1_ValueEEENS_9allocatorIS6_EEE16__on_zero_sharedEv, symObjAddr: 0x89DC, symBinAddr: 0x25DE0, symSize: 0x8 }
  - { offsetInCU: 0x4D951, offset: 0x19BCB8, size: 0x8, addend: 0x0, symName: __ZNSt3__120__shared_ptr_emplaceIN8firebase9firestore6nanopb7MessageINS2_26_google_firestore_v1_ValueEEENS_9allocatorIS6_EEE16__on_zero_sharedEv, symObjAddr: 0x89DC, symBinAddr: 0x25DE0, symSize: 0x8 }
  - { offsetInCU: 0x4D9EB, offset: 0x19BD52, size: 0x8, addend: 0x0, symName: __ZNSt3__120__shared_ptr_emplaceIN8firebase9firestore6nanopb7MessageINS2_26_google_firestore_v1_ValueEEENS_9allocatorIS6_EEE21__on_zero_shared_weakEv, symObjAddr: 0x89E4, symBinAddr: 0x25DE8, symSize: 0x4 }
  - { offsetInCU: 0x4DA1D, offset: 0x19BD84, size: 0x8, addend: 0x0, symName: __ZNSt3__120__shared_ptr_emplaceIN8firebase9firestore6nanopb7MessageINS2_26_google_firestore_v1_ValueEEENS_9allocatorIS6_EEE21__on_zero_shared_weakEv, symObjAddr: 0x89E4, symBinAddr: 0x25DE8, symSize: 0x4 }
  - { offsetInCU: 0x4DA40, offset: 0x19BDA7, size: 0x8, addend: 0x0, symName: __ZNSt3__120__shared_ptr_emplaceIN8firebase9firestore6nanopb7MessageINS2_26_google_firestore_v1_ValueEEENS_9allocatorIS6_EEE21__on_zero_shared_weakEv, symObjAddr: 0x89E4, symBinAddr: 0x25DE8, symSize: 0x4 }
  - { offsetInCU: 0x4DA63, offset: 0x19BDCA, size: 0x8, addend: 0x0, symName: __ZNSt3__120__shared_ptr_emplaceIN8firebase9firestore6nanopb7MessageINS2_26_google_firestore_v1_ValueEEENS_9allocatorIS6_EEE21__on_zero_shared_weakEv, symObjAddr: 0x89E4, symBinAddr: 0x25DE8, symSize: 0x4 }
  - { offsetInCU: 0x4DA90, offset: 0x19BDF7, size: 0x8, addend: 0x0, symName: __ZNSt3__120__shared_ptr_emplaceIN8firebase9firestore6nanopb7MessageINS2_26_google_firestore_v1_ValueEEENS_9allocatorIS6_EEE21__on_zero_shared_weakEv, symObjAddr: 0x89E4, symBinAddr: 0x25DE8, symSize: 0x4 }
  - { offsetInCU: 0x4DAB7, offset: 0x19BE1E, size: 0x8, addend: 0x0, symName: __ZNSt3__120__shared_ptr_emplaceIN8firebase9firestore6nanopb7MessageINS2_26_google_firestore_v1_ValueEEENS_9allocatorIS6_EEE21__on_zero_shared_weakEv, symObjAddr: 0x89E4, symBinAddr: 0x25DE8, symSize: 0x4 }
  - { offsetInCU: 0x4E51E, offset: 0x19C885, size: 0x8, addend: 0x0, symName: __ZNSt3__120__shared_ptr_emplaceINS_12basic_stringIcNS_11char_traitsIcEENS_9allocatorIcEEEENS4_IS6_EEEC2B7v160006IJRS6_EEES7_DpOT_, symObjAddr: 0x9420, symBinAddr: 0x26468, symSize: 0x4C }
  - { offsetInCU: 0x4E5C0, offset: 0x19C927, size: 0x8, addend: 0x0, symName: __ZNSt3__120__shared_ptr_emplaceINS_12basic_stringIcNS_11char_traitsIcEENS_9allocatorIcEEEENS4_IS6_EEED1Ev, symObjAddr: 0x946C, symBinAddr: 0x264B4, symSize: 0x14 }
  - { offsetInCU: 0x4E5E2, offset: 0x19C949, size: 0x8, addend: 0x0, symName: __ZNSt3__120__shared_ptr_emplaceINS_12basic_stringIcNS_11char_traitsIcEENS_9allocatorIcEEEENS4_IS6_EEED1Ev, symObjAddr: 0x946C, symBinAddr: 0x264B4, symSize: 0x14 }
  - { offsetInCU: 0x4E619, offset: 0x19C980, size: 0x8, addend: 0x0, symName: __ZNSt3__120__shared_ptr_emplaceINS_12basic_stringIcNS_11char_traitsIcEENS_9allocatorIcEEEENS4_IS6_EEED0Ev, symObjAddr: 0x9480, symBinAddr: 0x264C8, symSize: 0x24 }
  - { offsetInCU: 0x4E67E, offset: 0x19C9E5, size: 0x8, addend: 0x0, symName: __ZNSt3__120__shared_ptr_emplaceINS_12basic_stringIcNS_11char_traitsIcEENS_9allocatorIcEEEENS4_IS6_EEE16__on_zero_sharedEv, symObjAddr: 0x94A4, symBinAddr: 0x264EC, symSize: 0x14 }
  - { offsetInCU: 0x4E6D2, offset: 0x19CA39, size: 0x8, addend: 0x0, symName: __ZNSt3__120__shared_ptr_emplaceINS_12basic_stringIcNS_11char_traitsIcEENS_9allocatorIcEEEENS4_IS6_EEE16__on_zero_sharedEv, symObjAddr: 0x94A4, symBinAddr: 0x264EC, symSize: 0x14 }
  - { offsetInCU: 0x4E7A7, offset: 0x19CB0E, size: 0x8, addend: 0x0, symName: __ZNSt3__120__shared_ptr_emplaceINS_12basic_stringIcNS_11char_traitsIcEENS_9allocatorIcEEEENS4_IS6_EEE21__on_zero_shared_weakEv, symObjAddr: 0x94B8, symBinAddr: 0x26500, symSize: 0x4 }
  - { offsetInCU: 0x4E7D9, offset: 0x19CB40, size: 0x8, addend: 0x0, symName: __ZNSt3__120__shared_ptr_emplaceINS_12basic_stringIcNS_11char_traitsIcEENS_9allocatorIcEEEENS4_IS6_EEE21__on_zero_shared_weakEv, symObjAddr: 0x94B8, symBinAddr: 0x26500, symSize: 0x4 }
  - { offsetInCU: 0x4E7FC, offset: 0x19CB63, size: 0x8, addend: 0x0, symName: __ZNSt3__120__shared_ptr_emplaceINS_12basic_stringIcNS_11char_traitsIcEENS_9allocatorIcEEEENS4_IS6_EEE21__on_zero_shared_weakEv, symObjAddr: 0x94B8, symBinAddr: 0x26500, symSize: 0x4 }
  - { offsetInCU: 0x4E81F, offset: 0x19CB86, size: 0x8, addend: 0x0, symName: __ZNSt3__120__shared_ptr_emplaceINS_12basic_stringIcNS_11char_traitsIcEENS_9allocatorIcEEEENS4_IS6_EEE21__on_zero_shared_weakEv, symObjAddr: 0x94B8, symBinAddr: 0x26500, symSize: 0x4 }
  - { offsetInCU: 0x4E84C, offset: 0x19CBB3, size: 0x8, addend: 0x0, symName: __ZNSt3__120__shared_ptr_emplaceINS_12basic_stringIcNS_11char_traitsIcEENS_9allocatorIcEEEENS4_IS6_EEE21__on_zero_shared_weakEv, symObjAddr: 0x94B8, symBinAddr: 0x26500, symSize: 0x4 }
  - { offsetInCU: 0x4E873, offset: 0x19CBDA, size: 0x8, addend: 0x0, symName: __ZNSt3__120__shared_ptr_emplaceINS_12basic_stringIcNS_11char_traitsIcEENS_9allocatorIcEEEENS4_IS6_EEE21__on_zero_shared_weakEv, symObjAddr: 0x94B8, symBinAddr: 0x26500, symSize: 0x4 }
  - { offsetInCU: 0x4E8DB, offset: 0x19CC42, size: 0x8, addend: 0x0, symName: __ZNSt3__110shared_ptrIN8firebase9firestore6nanopb7MessageINS2_31_google_firestore_v1_ArrayValueEEEEaSB7v160006EOS7_, symObjAddr: 0x9510, symBinAddr: 0x26558, symSize: 0x64 }
  - { offsetInCU: 0x4EB0D, offset: 0x19CE74, size: 0x8, addend: 0x0, symName: __ZN4absl12lts_202206238AlphaNumC2Em, symObjAddr: 0x9610, symBinAddr: 0x26658, symSize: 0x44 }
  - { offsetInCU: 0x4EBF4, offset: 0x19CF5B, size: 0x8, addend: 0x0, symName: __ZNSt3__16vectorINS_12basic_stringIcNS_11char_traitsIcEENS_9allocatorIcEEEENS4_IS6_EEEC2INS_11__wrap_iterIPKS6_EELi0EEET_SE_, symObjAddr: 0x9654, symBinAddr: 0x2669C, symSize: 0xC0 }
  - { offsetInCU: 0x4ECB3, offset: 0x19D01A, size: 0x8, addend: 0x0, symName: __ZN4absl12lts_202206238AlphaNumC2Em.cold.1, symObjAddr: 0xB178, symBinAddr: 0x176AA8, symSize: 0x28 }
  - { offsetInCU: 0x51A25, offset: 0x19FD8C, size: 0x8, addend: 0x0, symName: __ZN8nlohmann6detail9from_jsonINS_10basic_jsonINSt3__13mapENS3_6vectorENS3_12basic_stringIcNS3_11char_traitsIcEENS3_9allocatorIcEEEEbxydS9_NS_14adl_serializerENS5_IhNS9_IhEEEEEEEEvRKT_RNSG_9boolean_tE, symObjAddr: 0xA54C, symBinAddr: 0x26AB4, symSize: 0x120 }
  - { offsetInCU: 0x5247E, offset: 0x1A07E5, size: 0x8, addend: 0x0, symName: __ZNK8nlohmann6detail9iter_implIKNS_10basic_jsonINSt3__13mapENS3_6vectorENS3_12basic_stringIcNS3_11char_traitsIcEENS3_9allocatorIcEEEEbxydS9_NS_14adl_serializerENS5_IhNS9_IhEEEEEEEeqERKSH_.cold.1, symObjAddr: 0xB1A0, symBinAddr: 0x176AD0, symSize: 0x28 }
  - { offsetInCU: 0x52530, offset: 0x1A0897, size: 0x8, addend: 0x0, symName: __ZN8nlohmann6detail9iter_implIKNS_10basic_jsonINSt3__13mapENS3_6vectorENS3_12basic_stringIcNS3_11char_traitsIcEENS3_9allocatorIcEEEEbxydS9_NS_14adl_serializerENS5_IhNS9_IhEEEEEEEppEv.cold.1, symObjAddr: 0xB1C8, symBinAddr: 0x176AF8, symSize: 0x28 }
  - { offsetInCU: 0x525D5, offset: 0x1A093C, size: 0x8, addend: 0x0, symName: __ZNK8nlohmann6detail9iter_implIKNS_10basic_jsonINSt3__13mapENS3_6vectorENS3_12basic_stringIcNS3_11char_traitsIcEENS3_9allocatorIcEEEEbxydS9_NS_14adl_serializerENS5_IhNS9_IhEEEEEEE3keyEv.cold.1, symObjAddr: 0xB1F0, symBinAddr: 0x176B20, symSize: 0x28 }
  - { offsetInCU: 0x52606, offset: 0x1A096D, size: 0x8, addend: 0x0, symName: __ZNK8nlohmann6detail9iter_implIKNS_10basic_jsonINSt3__13mapENS3_6vectorENS3_12basic_stringIcNS3_11char_traitsIcEENS3_9allocatorIcEEEEbxydS9_NS_14adl_serializerENS5_IhNS9_IhEEEEEEEdeEv.cold.3, symObjAddr: 0xB268, symBinAddr: 0x176B98, symSize: 0x28 }
  - { offsetInCU: 0x5261E, offset: 0x1A0985, size: 0x8, addend: 0x0, symName: __ZNK8nlohmann6detail9iter_implIKNS_10basic_jsonINSt3__13mapENS3_6vectorENS3_12basic_stringIcNS3_11char_traitsIcEENS3_9allocatorIcEEEEbxydS9_NS_14adl_serializerENS5_IhNS9_IhEEEEEEEdeEv.cold.1, symObjAddr: 0xB218, symBinAddr: 0x176B48, symSize: 0x28 }
  - { offsetInCU: 0x52636, offset: 0x1A099D, size: 0x8, addend: 0x0, symName: __ZNK8nlohmann6detail9iter_implIKNS_10basic_jsonINSt3__13mapENS3_6vectorENS3_12basic_stringIcNS3_11char_traitsIcEENS3_9allocatorIcEEEEbxydS9_NS_14adl_serializerENS5_IhNS9_IhEEEEEEEdeEv.cold.2, symObjAddr: 0xB240, symBinAddr: 0x176B70, symSize: 0x28 }
  - { offsetInCU: 0x2E6, offset: 0x1A0CD6, size: 0x8, addend: 0x0, symName: __ZN8firebase9firestore4util17internal_statusor12PlacementNewINS1_6StatusEJS4_EEEvPvDpOT0_, symObjAddr: 0x708, symBinAddr: 0x27BCC, symSize: 0x28 }
  - { offsetInCU: 0x54E8, offset: 0x1A5ED8, size: 0x8, addend: 0x0, symName: __ZN8firebase9firestore4util15ByteStreamApple9ReadUntilEcm, symObjAddr: 0x0, symBinAddr: 0x274D0, symSize: 0x1FC }
  - { offsetInCU: 0x5E98, offset: 0x1A6888, size: 0x8, addend: 0x0, symName: __ZN8firebase9firestore4util15ByteStreamApple12ReadToBufferEm, symObjAddr: 0x1FC, symBinAddr: 0x276CC, symSize: 0x104 }
  - { offsetInCU: 0x64EA, offset: 0x1A6EDA, size: 0x8, addend: 0x0, symName: __ZN8firebase9firestore4util15ByteStreamApple13ConsumeBufferEv, symObjAddr: 0x3F8, symBinAddr: 0x278C8, symSize: 0xCC }
  - { offsetInCU: 0x6A4F, offset: 0x1A743F, size: 0x8, addend: 0x0, symName: __ZN8firebase9firestore4util15ByteStreamApple11ErrorResultEv, symObjAddr: 0x300, symBinAddr: 0x277D0, symSize: 0xF8 }
  - { offsetInCU: 0x73D9, offset: 0x1A7DC9, size: 0x8, addend: 0x0, symName: __ZN8firebase9firestore4util17internal_statusor12StatusOrDataINSt3__112basic_stringIcNS4_11char_traitsIcEENS4_9allocatorIcEEEEEC2EONS1_6StatusE, symObjAddr: 0x8B8, symBinAddr: 0x27BF4, symSize: 0x60 }
  - { offsetInCU: 0x7711, offset: 0x1A8101, size: 0x8, addend: 0x0, symName: __ZNK8firebase9firestore4util15ByteStreamApple3eofEv, symObjAddr: 0x4C4, symBinAddr: 0x27994, symSize: 0x40 }
  - { offsetInCU: 0x77B3, offset: 0x1A81A3, size: 0x8, addend: 0x0, symName: __ZN8firebase9firestore4util15ByteStreamApple4ReadEm, symObjAddr: 0x504, symBinAddr: 0x279D4, symSize: 0x170 }
  - { offsetInCU: 0x80AC, offset: 0x1A8A9C, size: 0x8, addend: 0x0, symName: __ZN8firebase9firestore4util15ByteStreamAppleD1Ev, symObjAddr: 0x674, symBinAddr: 0x27B44, symSize: 0x44 }
  - { offsetInCU: 0x8229, offset: 0x1A8C19, size: 0x8, addend: 0x0, symName: __ZN8firebase9firestore4util15ByteStreamAppleD0Ev, symObjAddr: 0x6B8, symBinAddr: 0x27B88, symSize: 0x44 }
  - { offsetInCU: 0x6474, offset: 0x1AF507, size: 0x8, addend: 0x0, symName: __ZN8firebase9firestore4util13ByteStreamCpp9ReadUntilEcm, symObjAddr: 0x0, symBinAddr: 0x27C54, symSize: 0xB0 }
  - { offsetInCU: 0x6946, offset: 0x1AF9D9, size: 0x8, addend: 0x0, symName: __ZN8firebase9firestore4util13ByteStreamCpp12ToReadResultERKNSt3__112basic_stringIcNS3_11char_traitsIcEENS3_9allocatorIcEEEE, symObjAddr: 0xB0, symBinAddr: 0x27D04, symSize: 0x1CC }
  - { offsetInCU: 0x7FBE, offset: 0x1B1051, size: 0x8, addend: 0x0, symName: __ZN8firebase9firestore4util13ByteStreamCpp4ReadEm, symObjAddr: 0x27C, symBinAddr: 0x27ED0, symSize: 0xA0 }
  - { offsetInCU: 0x83D7, offset: 0x1B146A, size: 0x8, addend: 0x0, symName: __ZN8firebase9firestore4util13ByteStreamCppD1Ev, symObjAddr: 0x31C, symBinAddr: 0x27F70, symSize: 0x40 }
  - { offsetInCU: 0x84B4, offset: 0x1B1547, size: 0x8, addend: 0x0, symName: __ZN8firebase9firestore4util13ByteStreamCppD0Ev, symObjAddr: 0x35C, symBinAddr: 0x27FB0, symSize: 0x40 }
  - { offsetInCU: 0x5C, offset: 0x1B1A9B, size: 0x8, addend: 0x0, symName: __ZN8firebase9firestore6nanopb4swapERNS1_10ByteStringES3_, symObjAddr: 0x384, symBinAddr: 0x28368, symSize: 0x14 }
  - { offsetInCU: 0x94, offset: 0x1B1AD3, size: 0x8, addend: 0x0, symName: __ZN8firebase9firestore6nanopb4swapERNS1_10ByteStringES3_, symObjAddr: 0x384, symBinAddr: 0x28368, symSize: 0x14 }
  - { offsetInCU: 0xD2, offset: 0x1B1B11, size: 0x8, addend: 0x0, symName: __ZN8firebase9firestore6nanopblsERNSt3__113basic_ostreamIcNS2_11char_traitsIcEEEERKNS1_10ByteStringE, symObjAddr: 0x480, symBinAddr: 0x28464, symSize: 0x8C }
  - { offsetInCU: 0x3FD7, offset: 0x1B5A16, size: 0x8, addend: 0x0, symName: __ZNK8firebase9firestore6nanopb10ByteString4dataEv, symObjAddr: 0x1DC, symBinAddr: 0x281CC, symSize: 0x1C }
  - { offsetInCU: 0x3FFB, offset: 0x1B5A3A, size: 0x8, addend: 0x0, symName: __ZZNK8firebase9firestore6nanopb10ByteString4dataEvE6kEmpty, symObjAddr: 0xA34, symBinAddr: 0x17EA76, symSize: 0x0 }
  - { offsetInCU: 0x5E85, offset: 0x1B78C4, size: 0x8, addend: 0x0, symName: __ZN8firebase9firestore6nanopb10ByteStringC2EPK16pb_bytes_array_s, symObjAddr: 0x0, symBinAddr: 0x27FF0, symSize: 0x3C }
  - { offsetInCU: 0x5EE9, offset: 0x1B7928, size: 0x8, addend: 0x0, symName: __ZN8firebase9firestore6nanopb10ByteStringC1EPK16pb_bytes_array_s, symObjAddr: 0x3C, symBinAddr: 0x2802C, symSize: 0x3C }
  - { offsetInCU: 0x5F57, offset: 0x1B7996, size: 0x8, addend: 0x0, symName: __ZN8firebase9firestore6nanopb10ByteStringC2EPKvm, symObjAddr: 0x78, symBinAddr: 0x28068, symSize: 0x30 }
  - { offsetInCU: 0x5FD8, offset: 0x1B7A17, size: 0x8, addend: 0x0, symName: __ZN8firebase9firestore6nanopb10ByteStringC1EPKvm, symObjAddr: 0xA8, symBinAddr: 0x28098, symSize: 0x30 }
  - { offsetInCU: 0x6056, offset: 0x1B7A95, size: 0x8, addend: 0x0, symName: __ZN8firebase9firestore6nanopb10ByteStringC2EN4absl12lts_2022062311string_viewE, symObjAddr: 0xD8, symBinAddr: 0x280C8, symSize: 0x30 }
  - { offsetInCU: 0x610C, offset: 0x1B7B4B, size: 0x8, addend: 0x0, symName: __ZN8firebase9firestore6nanopb10ByteStringC1EN4absl12lts_2022062311string_viewE, symObjAddr: 0x108, symBinAddr: 0x280F8, symSize: 0x30 }
  - { offsetInCU: 0x61BF, offset: 0x1B7BFE, size: 0x8, addend: 0x0, symName: __ZN8firebase9firestore6nanopb10ByteStringC2ESt16initializer_listIhE, symObjAddr: 0x138, symBinAddr: 0x28128, symSize: 0x30 }
  - { offsetInCU: 0x6244, offset: 0x1B7C83, size: 0x8, addend: 0x0, symName: __ZN8firebase9firestore6nanopb10ByteStringC1ESt16initializer_listIhE, symObjAddr: 0x168, symBinAddr: 0x28158, symSize: 0x30 }
  - { offsetInCU: 0x6327, offset: 0x1B7D66, size: 0x8, addend: 0x0, symName: __ZN8firebase9firestore6nanopb10ByteStringC2ERKS2_, symObjAddr: 0x198, symBinAddr: 0x28188, symSize: 0x44 }
  - { offsetInCU: 0x63CE, offset: 0x1B7E0D, size: 0x8, addend: 0x0, symName: __ZN8firebase9firestore6nanopb10ByteStringC1ERKS2_, symObjAddr: 0x1F8, symBinAddr: 0x281E8, symSize: 0x44 }
  - { offsetInCU: 0x64A3, offset: 0x1B7EE2, size: 0x8, addend: 0x0, symName: __ZN8firebase9firestore6nanopb10ByteStringC2EOS2_, symObjAddr: 0x23C, symBinAddr: 0x2822C, symSize: 0x14 }
  - { offsetInCU: 0x64F0, offset: 0x1B7F2F, size: 0x8, addend: 0x0, symName: __ZN8firebase9firestore6nanopb10ByteStringC1EOS2_, symObjAddr: 0x250, symBinAddr: 0x28240, symSize: 0x14 }
  - { offsetInCU: 0x6529, offset: 0x1B7F68, size: 0x8, addend: 0x0, symName: __ZN8firebase9firestore6nanopb10ByteStringC1EOS2_, symObjAddr: 0x250, symBinAddr: 0x28240, symSize: 0x14 }
  - { offsetInCU: 0x654A, offset: 0x1B7F89, size: 0x8, addend: 0x0, symName: __ZN8firebase9firestore6nanopb10ByteStringD2Ev, symObjAddr: 0x264, symBinAddr: 0x28254, symSize: 0x28 }
  - { offsetInCU: 0x6587, offset: 0x1B7FC6, size: 0x8, addend: 0x0, symName: __ZN8firebase9firestore6nanopb10ByteStringD1Ev, symObjAddr: 0x298, symBinAddr: 0x2827C, symSize: 0x28 }
  - { offsetInCU: 0x65CF, offset: 0x1B800E, size: 0x8, addend: 0x0, symName: __ZN8firebase9firestore6nanopb10ByteStringaSERKS2_, symObjAddr: 0x2C0, symBinAddr: 0x282A4, symSize: 0x68 }
  - { offsetInCU: 0x6643, offset: 0x1B8082, size: 0x8, addend: 0x0, symName: __ZN8firebase9firestore6nanopb10ByteStringaSEOS2_, symObjAddr: 0x328, symBinAddr: 0x2830C, symSize: 0x44 }
  - { offsetInCU: 0x66CF, offset: 0x1B810E, size: 0x8, addend: 0x0, symName: __ZN8firebase9firestore6nanopb10ByteString4TakeEP16pb_bytes_array_s, symObjAddr: 0x36C, symBinAddr: 0x28350, symSize: 0x8 }
  - { offsetInCU: 0x66F5, offset: 0x1B8134, size: 0x8, addend: 0x0, symName: __ZN8firebase9firestore6nanopb10ByteString4TakeEP16pb_bytes_array_s, symObjAddr: 0x36C, symBinAddr: 0x28350, symSize: 0x8 }
  - { offsetInCU: 0x671D, offset: 0x1B815C, size: 0x8, addend: 0x0, symName: __ZN8firebase9firestore6nanopb10ByteString4TakeEP16pb_bytes_array_s, symObjAddr: 0x36C, symBinAddr: 0x28350, symSize: 0x8 }
  - { offsetInCU: 0x6745, offset: 0x1B8184, size: 0x8, addend: 0x0, symName: __ZN8firebase9firestore6nanopb10ByteString7releaseEv, symObjAddr: 0x374, symBinAddr: 0x28358, symSize: 0x10 }
  - { offsetInCU: 0x6799, offset: 0x1B81D8, size: 0x8, addend: 0x0, symName: __ZNK8firebase9firestore6nanopb10ByteString9CompareToERKS2_, symObjAddr: 0x398, symBinAddr: 0x2837C, symSize: 0x58 }
  - { offsetInCU: 0x685C, offset: 0x1B829B, size: 0x8, addend: 0x0, symName: __ZNK8firebase9firestore6nanopb10ByteString4HashEv, symObjAddr: 0x3F0, symBinAddr: 0x283D4, symSize: 0x6C }
  - { offsetInCU: 0x6885, offset: 0x1B82C4, size: 0x8, addend: 0x0, symName: __ZNK8firebase9firestore6nanopb10ByteString4HashEv, symObjAddr: 0x3F0, symBinAddr: 0x283D4, symSize: 0x6C }
  - { offsetInCU: 0x68A0, offset: 0x1B82DF, size: 0x8, addend: 0x0, symName: __ZNK8firebase9firestore6nanopb10ByteString4HashEv, symObjAddr: 0x3F0, symBinAddr: 0x283D4, symSize: 0x6C }
  - { offsetInCU: 0x6A11, offset: 0x1B8450, size: 0x8, addend: 0x0, symName: __ZNK8firebase9firestore6nanopb10ByteString8ToStringEv, symObjAddr: 0x45C, symBinAddr: 0x28440, symSize: 0x24 }
  - { offsetInCU: 0x6CBC, offset: 0x1B86FB, size: 0x8, addend: 0x0, symName: __ZNK8firebase9firestore6nanopb10ByteString11ToHexStringEv, symObjAddr: 0x50C, symBinAddr: 0x284F0, symSize: 0xD8 }
  - { offsetInCU: 0xAFE, offset: 0x1B9B93, size: 0x8, addend: 0x0, symName: __ZN8firebase9firestore4util20ThrowInvalidArgumentIJNSt3__112basic_stringIcNS3_11char_traitsIcEENS3_9allocatorIcEEEEmEEEvPKcDpRKT_, symObjAddr: 0xB0C, symBinAddr: 0x2905C, symSize: 0x50 }
  - { offsetInCU: 0xECD, offset: 0x1B9F62, size: 0x8, addend: 0x0, symName: __ZN8firebase9firestore4util12StringFormatIJNSt3__112basic_stringIcNS3_11char_traitsIcEENS3_9allocatorIcEEEEmEEES9_PKcDpRKT_, symObjAddr: 0xB5C, symBinAddr: 0x290AC, symSize: 0x98 }
  - { offsetInCU: 0x2D35, offset: 0x1BBDCA, size: 0x8, addend: 0x0, symName: __ZN8firebase9firestore3apieqERKNS1_19CollectionReferenceES4_, symObjAddr: 0x3B0, symBinAddr: 0x28900, symSize: 0x24 }
  - { offsetInCU: 0x2D75, offset: 0x1BBE0A, size: 0x8, addend: 0x0, symName: __ZN8firebase9firestore3apieqERKNS1_19CollectionReferenceES4_, symObjAddr: 0x3B0, symBinAddr: 0x28900, symSize: 0x24 }
  - { offsetInCU: 0x2D97, offset: 0x1BBE2C, size: 0x8, addend: 0x0, symName: __ZN8firebase9firestore3apieqERKNS1_19CollectionReferenceES4_, symObjAddr: 0x3B0, symBinAddr: 0x28900, symSize: 0x24 }
  - { offsetInCU: 0xB1A5, offset: 0x1C423A, size: 0x8, addend: 0x0, symName: __ZNSt3__121__unwrap_and_dispatchB7v160006INS_10__overloadINS_11__copy_loopINS_17_ClassicAlgPolicyEEENS_14__copy_trivialEEENS_11__wrap_iterIPKNS_12basic_stringIcNS_11char_traitsIcEENS_9allocatorIcEEEEEESG_PSD_Li0EEENS_4pairIT0_T2_EESJ_T1_SK_, symObjAddr: 0x1CF4, symBinAddr: 0x29718, symSize: 0x5C }
  - { offsetInCU: 0xB7B5, offset: 0x1C484A, size: 0x8, addend: 0x0, symName: __ZNSt3__142__uninitialized_allocator_move_if_noexceptB7v160006INS_9allocatorINS_12basic_stringIcNS_11char_traitsIcEENS1_IcEEEEEEPS6_S8_S8_EET2_RT_T0_T1_S9_, symObjAddr: 0x1DEC, symBinAddr: 0x29774, symSize: 0x7C }
  - { offsetInCU: 0xC304, offset: 0x1C5399, size: 0x8, addend: 0x0, symName: __ZNSt3__16vectorINS_12basic_stringIcNS_11char_traitsIcEENS_9allocatorIcEEEENS4_IS6_EEE26__swap_out_circular_bufferERNS_14__split_bufferIS6_RS7_EEPS6_, symObjAddr: 0x1BB8, symBinAddr: 0x295DC, symSize: 0xB0 }
  - { offsetInCU: 0xE99D, offset: 0x1C7A32, size: 0x8, addend: 0x0, symName: __ZN8firebase9firestore3api19CollectionReferenceC2ENS0_5model12ResourcePathENSt3__110shared_ptrINS1_9FirestoreEEE, symObjAddr: 0x0, symBinAddr: 0x285C8, symSize: 0x334 }
  - { offsetInCU: 0xF93B, offset: 0x1C89D0, size: 0x8, addend: 0x0, symName: __ZN8firebase9firestore4core5QueryC2ENS0_5model12ResourcePathENSt3__110shared_ptrIKNS5_12basic_stringIcNS5_11char_traitsIcEENS5_9allocatorIcEEEEEE, symObjAddr: 0xC38, symBinAddr: 0x29144, symSize: 0x21C }
  - { offsetInCU: 0x10CFE, offset: 0x1C9D93, size: 0x8, addend: 0x0, symName: __ZN8firebase9firestore3api19CollectionReferenceC1ENS0_5model12ResourcePathENSt3__110shared_ptrINS1_9FirestoreEEE, symObjAddr: 0x3AC, symBinAddr: 0x288FC, symSize: 0x4 }
  - { offsetInCU: 0x10D47, offset: 0x1C9DDC, size: 0x8, addend: 0x0, symName: __ZN8firebase9firestore3api19CollectionReferenceC1ENS0_5model12ResourcePathENSt3__110shared_ptrINS1_9FirestoreEEE, symObjAddr: 0x3AC, symBinAddr: 0x288FC, symSize: 0x4 }
  - { offsetInCU: 0x10F4D, offset: 0x1C9FE2, size: 0x8, addend: 0x0, symName: __ZNK8firebase9firestore3api19CollectionReference4HashEv, symObjAddr: 0x3D4, symBinAddr: 0x28924, symSize: 0x68 }
  - { offsetInCU: 0x11166, offset: 0x1CA1FB, size: 0x8, addend: 0x0, symName: __ZNK8firebase9firestore3api19CollectionReference13collection_idEv, symObjAddr: 0x43C, symBinAddr: 0x2898C, symSize: 0x8 }
  - { offsetInCU: 0x1118F, offset: 0x1CA224, size: 0x8, addend: 0x0, symName: __ZNK8firebase9firestore3api19CollectionReference13collection_idEv, symObjAddr: 0x43C, symBinAddr: 0x2898C, symSize: 0x8 }
  - { offsetInCU: 0x111B6, offset: 0x1CA24B, size: 0x8, addend: 0x0, symName: __ZNK8firebase9firestore5model4impl8BasePathINS1_12ResourcePathEE12last_segmentEv, symObjAddr: 0x444, symBinAddr: 0x28994, symSize: 0x8C }
  - { offsetInCU: 0x1173E, offset: 0x1CA7D3, size: 0x8, addend: 0x0, symName: __ZNK8firebase9firestore3api19CollectionReference6parentEv, symObjAddr: 0x4D0, symBinAddr: 0x28A20, symSize: 0xB0 }
  - { offsetInCU: 0x11C43, offset: 0x1CACD8, size: 0x8, addend: 0x0, symName: __ZNK8firebase9firestore5model4impl8BasePathINS1_12ResourcePathEE7PopLastEv, symObjAddr: 0x580, symBinAddr: 0x28AD0, symSize: 0x90 }
  - { offsetInCU: 0x1226F, offset: 0x1CB304, size: 0x8, addend: 0x0, symName: __ZNK8firebase9firestore3api19CollectionReference4pathEv, symObjAddr: 0x610, symBinAddr: 0x28B60, symSize: 0x8 }
  - { offsetInCU: 0x12298, offset: 0x1CB32D, size: 0x8, addend: 0x0, symName: __ZNK8firebase9firestore3api19CollectionReference4pathEv, symObjAddr: 0x610, symBinAddr: 0x28B60, symSize: 0x8 }
  - { offsetInCU: 0x122B2, offset: 0x1CB347, size: 0x8, addend: 0x0, symName: __ZNK8firebase9firestore3api19CollectionReference8DocumentERKNSt3__112basic_stringIcNS3_11char_traitsIcEENS3_9allocatorIcEEEE, symObjAddr: 0x618, symBinAddr: 0x28B68, symSize: 0x10C }
  - { offsetInCU: 0x128C9, offset: 0x1CB95E, size: 0x8, addend: 0x0, symName: __ZNK8firebase9firestore5model4impl8BasePathINS1_12ResourcePathEE6AppendERKS4_, symObjAddr: 0x724, symBinAddr: 0x28C74, symSize: 0x78 }
  - { offsetInCU: 0x12D2C, offset: 0x1CBDC1, size: 0x8, addend: 0x0, symName: __ZNSt3__16vectorINS_12basic_stringIcNS_11char_traitsIcEENS_9allocatorIcEEEENS4_IS6_EEE6insertINS_11__wrap_iterIPKS6_EELi0EEENSA_IPS6_EESD_T_SG_, symObjAddr: 0x17E8, symBinAddr: 0x29360, symSize: 0x210 }
  - { offsetInCU: 0x134AC, offset: 0x1CC541, size: 0x8, addend: 0x0, symName: __ZNK8firebase9firestore3api19CollectionReference11AddDocumentEONS0_4core13ParsedSetDataENSt3__18functionIFvNS0_4util6StatusEEEE, symObjAddr: 0x79C, symBinAddr: 0x28CEC, symSize: 0xFC }
  - { offsetInCU: 0x13784, offset: 0x1CC819, size: 0x8, addend: 0x0, symName: __ZNK8firebase9firestore3api19CollectionReference8DocumentEv, symObjAddr: 0x898, symBinAddr: 0x28DE8, symSize: 0x100 }
  - { offsetInCU: 0x13E24, offset: 0x1CCEB9, size: 0x8, addend: 0x0, symName: __ZNSt3__110__function12__value_funcIFvN8firebase9firestore4util6StatusEEEC2B7v160006EOS7_, symObjAddr: 0x1F68, symBinAddr: 0x297F0, symSize: 0x64 }
  - { offsetInCU: 0x13EDA, offset: 0x1CCF6F, size: 0x8, addend: 0x0, symName: __ZNK8firebase9firestore5model4impl8BasePathINS1_12ResourcePathEE6AppendEONSt3__112basic_stringIcNS6_11char_traitsIcEENS6_9allocatorIcEEEE, symObjAddr: 0x998, symBinAddr: 0x28EE8, symSize: 0x174 }
  - { offsetInCU: 0x14AD5, offset: 0x1CDB6A, size: 0x8, addend: 0x0, symName: __ZN8firebase9firestore4core5QueryC2ENS0_5model12ResourcePathENSt3__110shared_ptrIKNS5_12basic_stringIcNS5_11char_traitsIcEENS5_9allocatorIcEEEEEE, symObjAddr: 0xC38, symBinAddr: 0x29144, symSize: 0x21C }
  - { offsetInCU: 0x15E99, offset: 0x1CEF2E, size: 0x8, addend: 0x0, symName: __ZNSt3__16vectorINS_12basic_stringIcNS_11char_traitsIcEENS_9allocatorIcEEEENS4_IS6_EEE12__move_rangeEPS6_S9_S9_, symObjAddr: 0x1B4C, symBinAddr: 0x29570, symSize: 0x6C }
  - { offsetInCU: 0x1620D, offset: 0x1CF2A2, size: 0x8, addend: 0x0, symName: __ZNKSt3__120__move_backward_loopINS_17_ClassicAlgPolicyEEclB7v160006IPNS_12basic_stringIcNS_11char_traitsIcEENS_9allocatorIcEEEESA_SA_EENS_4pairIT_T1_EESC_T0_SD_, symObjAddr: 0x1C68, symBinAddr: 0x2968C, symSize: 0x8C }
  - { offsetInCU: 0x26, offset: 0x1CF881, size: 0x8, addend: 0x0, symName: __ZNK8firebase9firestore33_google_firestore_v1_DocumentMask8ToStringEi, symObjAddr: 0x0, symBinAddr: 0x29854, symSize: 0x220 }
  - { offsetInCU: 0x4A, offset: 0x1CF8A5, size: 0x8, addend: 0x0, symName: __ZN8firebase9firestore39google_firestore_v1_DocumentMask_fieldsE, symObjAddr: 0x1940, symBinAddr: 0x17EA80, symSize: 0x0 }
  - { offsetInCU: 0x64, offset: 0x1CF8BF, size: 0x8, addend: 0x0, symName: __ZN8firebase9firestore39google_firestore_v1_Precondition_fieldsE, symObjAddr: 0x19C0, symBinAddr: 0x22DC40, symSize: 0x0 }
  - { offsetInCU: 0x7E, offset: 0x1CF8D9, size: 0x8, addend: 0x0, symName: __ZN8firebase9firestore45google_firestore_v1_TransactionOptions_fieldsE, symObjAddr: 0x1A60, symBinAddr: 0x22DCE0, symSize: 0x0 }
  - { offsetInCU: 0x98, offset: 0x1CF8F3, size: 0x8, addend: 0x0, symName: __ZN8firebase9firestore55google_firestore_v1_TransactionOptions_ReadWrite_fieldsE, symObjAddr: 0x1980, symBinAddr: 0x17EAC0, symSize: 0x0 }
  - { offsetInCU: 0xB2, offset: 0x1CF90D, size: 0x8, addend: 0x0, symName: __ZN8firebase9firestore54google_firestore_v1_TransactionOptions_ReadOnly_fieldsE, symObjAddr: 0x1A20, symBinAddr: 0x22DCA0, symSize: 0x0 }
  - { offsetInCU: 0x1222, offset: 0x1D0A7D, size: 0x8, addend: 0x0, symName: __ZN8firebase9firestore6nanopb17PrintMessageFieldINS0_48_google_firestore_v1_TransactionOptions_ReadOnlyEEENSt3__112basic_stringIcNS4_11char_traitsIcEENS4_9allocatorIcEEEEN4absl12lts_2022062311string_viewERKT_ib, symObjAddr: 0xCE0, symBinAddr: 0x29EF4, symSize: 0x274 }
  - { offsetInCU: 0x1EC1, offset: 0x1D171C, size: 0x8, addend: 0x0, symName: __ZN8firebase9firestore6nanopb17PrintMessageFieldINS0_49_google_firestore_v1_TransactionOptions_ReadWriteEEENSt3__112basic_stringIcNS4_11char_traitsIcEENS4_9allocatorIcEEEEN4absl12lts_2022062311string_viewERKT_ib, symObjAddr: 0xF54, symBinAddr: 0x2A168, symSize: 0x274 }
  - { offsetInCU: 0x7694, offset: 0x1D6EEF, size: 0x8, addend: 0x0, symName: __ZNK8firebase9firestore33_google_firestore_v1_DocumentMask8ToStringEi, symObjAddr: 0x0, symBinAddr: 0x29854, symSize: 0x220 }
  - { offsetInCU: 0x8915, offset: 0x1D8170, size: 0x8, addend: 0x0, symName: __ZNK8firebase9firestore33_google_firestore_v1_Precondition8ToStringEi, symObjAddr: 0x460, symBinAddr: 0x29A74, symSize: 0x240 }
  - { offsetInCU: 0x9599, offset: 0x1D8DF4, size: 0x8, addend: 0x0, symName: __ZNK8firebase9firestore39_google_firestore_v1_TransactionOptions8ToStringEi, symObjAddr: 0xAA0, symBinAddr: 0x29CB4, symSize: 0x240 }
  - { offsetInCU: 0xA205, offset: 0x1D9A60, size: 0x8, addend: 0x0, symName: __ZNK8firebase9firestore48_google_firestore_v1_TransactionOptions_ReadOnly8ToStringEi, symObjAddr: 0x13A4, symBinAddr: 0x2A5B8, symSize: 0x200 }
  - { offsetInCU: 0xAEB5, offset: 0x1DA710, size: 0x8, addend: 0x0, symName: __ZNK8firebase9firestore49_google_firestore_v1_TransactionOptions_ReadWrite8ToStringEi, symObjAddr: 0x11C8, symBinAddr: 0x2A3DC, symSize: 0x1DC }
  - { offsetInCU: 0x26, offset: 0x1DB5C9, size: 0x8, addend: 0x0, symName: __ZNK8firebase9firestore4util10ComparatorIN4absl12lts_2022062311string_viewEE7CompareES5_S5_, symObjAddr: 0x0, symBinAddr: 0x2A7B8, symSize: 0x38 }
  - { offsetInCU: 0x196, offset: 0x1DB739, size: 0x8, addend: 0x0, symName: __ZN8firebase9firestore4util18CompareMixedNumberEdx, symObjAddr: 0x140, symBinAddr: 0x2A8F8, symSize: 0x74 }
  - { offsetInCU: 0x254, offset: 0x1DB7F7, size: 0x8, addend: 0x0, symName: __ZN8firebase9firestore4util10DoubleBitsEd, symObjAddr: 0x1B4, symBinAddr: 0x2A96C, symSize: 0x18 }
  - { offsetInCU: 0x2A2, offset: 0x1DB845, size: 0x8, addend: 0x0, symName: __ZN8firebase9firestore4util19DoubleBitwiseEqualsEdd, symObjAddr: 0x1CC, symBinAddr: 0x2A984, symSize: 0x2C }
  - { offsetInCU: 0x2E1, offset: 0x1DB884, size: 0x8, addend: 0x0, symName: __ZN8firebase9firestore4util19DoubleBitwiseEqualsEdd, symObjAddr: 0x1CC, symBinAddr: 0x2A984, symSize: 0x2C }
  - { offsetInCU: 0x341, offset: 0x1DB8E4, size: 0x8, addend: 0x0, symName: __ZN8firebase9firestore4util17DoubleBitwiseHashEd, symObjAddr: 0x1F8, symBinAddr: 0x2A9B0, symSize: 0x1C }
  - { offsetInCU: 0x381, offset: 0x1DB924, size: 0x8, addend: 0x0, symName: __ZN8firebase9firestore4util17DoubleBitwiseHashEd, symObjAddr: 0x1F8, symBinAddr: 0x2A9B0, symSize: 0x1C }
  - { offsetInCU: 0x4400, offset: 0x1DF9A3, size: 0x8, addend: 0x0, symName: __ZNK8firebase9firestore4util10ComparatorIN4absl12lts_2022062311string_viewEE7CompareES5_S5_, symObjAddr: 0x0, symBinAddr: 0x2A7B8, symSize: 0x38 }
  - { offsetInCU: 0x447E, offset: 0x1DFA21, size: 0x8, addend: 0x0, symName: __ZNK4absl12lts_2022062311string_view7compareES1_, symObjAddr: 0x38, symBinAddr: 0x2A7F0, symSize: 0x54 }
  - { offsetInCU: 0x46AF, offset: 0x1DFC52, size: 0x8, addend: 0x0, symName: __ZNK8firebase9firestore4util10ComparatorINSt3__112basic_stringIcNS3_11char_traitsIcEENS3_9allocatorIcEEEEE7CompareERKS9_SC_, symObjAddr: 0x8C, symBinAddr: 0x2A844, symSize: 0x84 }
  - { offsetInCU: 0x48C6, offset: 0x1DFE69, size: 0x8, addend: 0x0, symName: __ZNK8firebase9firestore4util10ComparatorIdE7CompareEdd, symObjAddr: 0x110, symBinAddr: 0x2A8C8, symSize: 0x30 }
  - { offsetInCU: 0x77F8, offset: 0x1E7748, size: 0x8, addend: 0x0, symName: __ZNSt3__115allocate_sharedB7v160006IKN8firebase9firestore4core15CompositeFilter3RepENS_9allocatorIS6_EEJS5_EvEENS_10shared_ptrIT_EERKT0_DpOT1_, symObjAddr: 0x1080, symBinAddr: 0x2B6A8, symSize: 0x58 }
  - { offsetInCU: 0x8D81, offset: 0x1E8CD1, size: 0x8, addend: 0x0, symName: __ZNSt3__117__call_once_proxyB7v160006INS_5tupleIJOZN8firebase9firestore4util18ThreadSafeMemoizerINS_6vectorINS3_4core11FieldFilterENS_9allocatorIS8_EEEEE7memoizeENS_8functionIFSB_vEEEEUlvE_EEEEEvPv, symObjAddr: 0x146C, symBinAddr: 0x2B9FC, symSize: 0x4 }
  - { offsetInCU: 0x8DBD, offset: 0x1E8D0D, size: 0x8, addend: 0x0, symName: __ZNSt3__117__call_once_proxyB7v160006INS_5tupleIJOZN8firebase9firestore4util18ThreadSafeMemoizerINS_6vectorINS3_4core11FieldFilterENS_9allocatorIS8_EEEEE7memoizeENS_8functionIFSB_vEEEEUlvE_EEEEEvPv, symObjAddr: 0x146C, symBinAddr: 0x2B9FC, symSize: 0x4 }
  - { offsetInCU: 0x8DDB, offset: 0x1E8D2B, size: 0x8, addend: 0x0, symName: __ZNSt3__117__call_once_proxyB7v160006INS_5tupleIJOZN8firebase9firestore4util18ThreadSafeMemoizerINS_6vectorINS3_4core11FieldFilterENS_9allocatorIS8_EEEEE7memoizeENS_8functionIFSB_vEEEEUlvE_EEEEEvPv, symObjAddr: 0x146C, symBinAddr: 0x2B9FC, symSize: 0x4 }
  - { offsetInCU: 0x9063, offset: 0x1E8FB3, size: 0x8, addend: 0x0, symName: __ZNSt3__121__unwrap_and_dispatchB7v160006INS_10__overloadINS_11__copy_loopINS_17_ClassicAlgPolicyEEENS_14__copy_trivialEEENS_11__wrap_iterIPKN8firebase9firestore4core11FieldFilterEEESE_NS_20back_insert_iteratorINS_6vectorISB_NS_9allocatorISB_EEEEEELi0EEENS_4pairIT0_T2_EESM_T1_SN_, symObjAddr: 0x1714, symBinAddr: 0x2BCA4, symSize: 0x60 }
  - { offsetInCU: 0x937C, offset: 0x1E92CC, size: 0x8, addend: 0x0, symName: __ZNSt3__119__allocate_at_leastB7v160006INS_9allocatorIN8firebase9firestore4core11FieldFilterEEEEENS_19__allocation_resultINS_16allocator_traitsIT_E7pointerEEERS9_m, symObjAddr: 0x1918, symBinAddr: 0x2BEA8, symSize: 0x34 }
  - { offsetInCU: 0x941A, offset: 0x1E936A, size: 0x8, addend: 0x0, symName: __ZNSt3__114__split_bufferIN8firebase9firestore4core11FieldFilterERNS_9allocatorIS4_EEED2Ev, symObjAddr: 0x194C, symBinAddr: 0x2BEDC, symSize: 0x4C }
  - { offsetInCU: 0x9AD8, offset: 0x1E9A28, size: 0x8, addend: 0x0, symName: __ZN8firebase9firestore4util12StringFormatIJPKcNSt3__112basic_stringIcNS5_11char_traitsIcEENS5_9allocatorIcEEEEEEESB_S4_DpRKT_, symObjAddr: 0x6EC, symBinAddr: 0x2B0B8, symSize: 0xB0 }
  - { offsetInCU: 0xAFE3, offset: 0x1EAF33, size: 0x8, addend: 0x0, symName: __ZNSt3__16vectorIN8firebase9firestore4core6FilterENS_9allocatorIS4_EEE26__swap_out_circular_bufferERNS_14__split_bufferIS4_RS6_EEPS4_, symObjAddr: 0x1254, symBinAddr: 0x2B87C, symSize: 0xA4 }
  - { offsetInCU: 0xB349, offset: 0x1EB299, size: 0x8, addend: 0x0, symName: __ZN8firebase9firestore4util18ThreadSafeMemoizerINSt3__16vectorINS0_4core11FieldFilterENS3_9allocatorIS6_EEEEE7memoizeENS3_8functionIFS9_vEEE, symObjAddr: 0xC00, symBinAddr: 0x2B5CC, symSize: 0x5C }
  - { offsetInCU: 0xB590, offset: 0x1EB4E0, size: 0x8, addend: 0x0, symName: __ZNK8firebase9firestore4core15CompositeFilter3Rep19GetFlattenedFiltersEv, symObjAddr: 0xB24, symBinAddr: 0x2B4F0, symSize: 0xDC }
  - { offsetInCU: 0xDAC1, offset: 0x1EDA11, size: 0x8, addend: 0x0, symName: __ZN8firebase9firestore4core15CompositeFilter6CreateEONSt3__16vectorINS1_6FilterENS3_9allocatorIS5_EEEENS2_8OperatorE, symObjAddr: 0x0, symBinAddr: 0x2A9CC, symSize: 0x174 }
  - { offsetInCU: 0xDF92, offset: 0x1EDEE2, size: 0x8, addend: 0x0, symName: __ZN8firebase9firestore4core15CompositeFilter3RepD1Ev, symObjAddr: 0x1EC, symBinAddr: 0x2ABB8, symSize: 0x48 }
  - { offsetInCU: 0xE040, offset: 0x1EDF90, size: 0x8, addend: 0x0, symName: __ZN8firebase9firestore4core15CompositeFilter3RepC1EONSt3__16vectorINS1_6FilterENS4_9allocatorIS6_EEEENS2_8OperatorE, symObjAddr: 0x174, symBinAddr: 0x2AB40, symSize: 0x54 }
  - { offsetInCU: 0xE0E7, offset: 0x1EE037, size: 0x8, addend: 0x0, symName: __ZN8firebase9firestore4core15CompositeFilterC1EONSt3__110shared_ptrIKNS1_6Filter3RepEEE, symObjAddr: 0x1C8, symBinAddr: 0x2AB94, symSize: 0x24 }
  - { offsetInCU: 0xE110, offset: 0x1EE060, size: 0x8, addend: 0x0, symName: __ZN8firebase9firestore4core15CompositeFilterC1EONSt3__110shared_ptrIKNS1_6Filter3RepEEE, symObjAddr: 0x1C8, symBinAddr: 0x2AB94, symSize: 0x24 }
  - { offsetInCU: 0xE132, offset: 0x1EE082, size: 0x8, addend: 0x0, symName: __ZN8firebase9firestore4core15CompositeFilterC1EONSt3__110shared_ptrIKNS1_6Filter3RepEEE, symObjAddr: 0x1C8, symBinAddr: 0x2AB94, symSize: 0x24 }
  - { offsetInCU: 0xE154, offset: 0x1EE0A4, size: 0x8, addend: 0x0, symName: __ZN8firebase9firestore4core15CompositeFilterC1EONSt3__110shared_ptrIKNS1_6Filter3RepEEE, symObjAddr: 0x1C8, symBinAddr: 0x2AB94, symSize: 0x24 }
  - { offsetInCU: 0xE176, offset: 0x1EE0C6, size: 0x8, addend: 0x0, symName: __ZN8firebase9firestore4core15CompositeFilterC1EONSt3__110shared_ptrIKNS1_6Filter3RepEEE, symObjAddr: 0x1C8, symBinAddr: 0x2AB94, symSize: 0x24 }
  - { offsetInCU: 0xE244, offset: 0x1EE194, size: 0x8, addend: 0x0, symName: __ZN8firebase9firestore4core15CompositeFilterC2EONSt3__110shared_ptrIKNS1_6Filter3RepEEE, symObjAddr: 0x234, symBinAddr: 0x2AC00, symSize: 0x24 }
  - { offsetInCU: 0xE26D, offset: 0x1EE1BD, size: 0x8, addend: 0x0, symName: __ZN8firebase9firestore4core15CompositeFilterC2EONSt3__110shared_ptrIKNS1_6Filter3RepEEE, symObjAddr: 0x234, symBinAddr: 0x2AC00, symSize: 0x24 }
  - { offsetInCU: 0xE28F, offset: 0x1EE1DF, size: 0x8, addend: 0x0, symName: __ZN8firebase9firestore4core15CompositeFilterC2EONSt3__110shared_ptrIKNS1_6Filter3RepEEE, symObjAddr: 0x234, symBinAddr: 0x2AC00, symSize: 0x24 }
  - { offsetInCU: 0xE2B1, offset: 0x1EE201, size: 0x8, addend: 0x0, symName: __ZN8firebase9firestore4core15CompositeFilterC2EONSt3__110shared_ptrIKNS1_6Filter3RepEEE, symObjAddr: 0x234, symBinAddr: 0x2AC00, symSize: 0x24 }
  - { offsetInCU: 0xE32E, offset: 0x1EE27E, size: 0x8, addend: 0x0, symName: __ZN8firebase9firestore4core15CompositeFilter3RepC2EONSt3__16vectorINS1_6FilterENS4_9allocatorIS6_EEEENS2_8OperatorE, symObjAddr: 0x258, symBinAddr: 0x2AC24, symSize: 0x54 }
  - { offsetInCU: 0xE511, offset: 0x1EE461, size: 0x8, addend: 0x0, symName: __ZN8firebase9firestore4core15CompositeFilterC2ERKNS1_6FilterE, symObjAddr: 0x2AC, symBinAddr: 0x2AC78, symSize: 0xC0 }
  - { offsetInCU: 0xE8BB, offset: 0x1EE80B, size: 0x8, addend: 0x0, symName: __ZN8firebase9firestore4core15CompositeFilterC1ERKNS1_6FilterE, symObjAddr: 0x36C, symBinAddr: 0x2AD38, symSize: 0x4 }
  - { offsetInCU: 0xE8F5, offset: 0x1EE845, size: 0x8, addend: 0x0, symName: __ZN8firebase9firestore4core15CompositeFilterC1ERKNS1_6FilterE, symObjAddr: 0x36C, symBinAddr: 0x2AD38, symSize: 0x4 }
  - { offsetInCU: 0xE90F, offset: 0x1EE85F, size: 0x8, addend: 0x0, symName: __ZNK8firebase9firestore4core15CompositeFilter3Rep13IsConjunctionEv, symObjAddr: 0x370, symBinAddr: 0x2AD3C, symSize: 0x10 }
  - { offsetInCU: 0xE931, offset: 0x1EE881, size: 0x8, addend: 0x0, symName: __ZNK8firebase9firestore4core15CompositeFilter3Rep13IsDisjunctionEv, symObjAddr: 0x380, symBinAddr: 0x2AD4C, symSize: 0x10 }
  - { offsetInCU: 0xE988, offset: 0x1EE8D8, size: 0x8, addend: 0x0, symName: __ZNK8firebase9firestore4core15CompositeFilter3Rep6IsFlatEv, symObjAddr: 0x390, symBinAddr: 0x2AD5C, symSize: 0x50 }
  - { offsetInCU: 0xEAEF, offset: 0x1EEA3F, size: 0x8, addend: 0x0, symName: __ZNK8firebase9firestore4core15CompositeFilter3Rep7MatchesERKNS0_5model8DocumentE, symObjAddr: 0x3E0, symBinAddr: 0x2ADAC, symSize: 0xA4 }
  - { offsetInCU: 0xED8F, offset: 0x1EECDF, size: 0x8, addend: 0x0, symName: __ZNK8firebase9firestore4core15CompositeFilter3Rep11CanonicalIdEv, symObjAddr: 0x484, symBinAddr: 0x2AE50, symSize: 0x268 }
  - { offsetInCU: 0xFEBF, offset: 0x1EFE0F, size: 0x8, addend: 0x0, symName: __ZNK8firebase9firestore4core15CompositeFilter3Rep6EqualsERKNS1_6Filter3RepE, symObjAddr: 0x79C, symBinAddr: 0x2B168, symSize: 0x9C }
  - { offsetInCU: 0x100EF, offset: 0x1F003F, size: 0x8, addend: 0x0, symName: __ZN8firebase9firestore4core15CompositeFilter16WithAddedFiltersERKNSt3__16vectorINS1_6FilterENS3_9allocatorIS5_EEEE, symObjAddr: 0x838, symBinAddr: 0x2B204, symSize: 0x88 }
  - { offsetInCU: 0x1057F, offset: 0x1F04CF, size: 0x8, addend: 0x0, symName: __ZNSt3__16vectorIN8firebase9firestore4core6FilterENS_9allocatorIS4_EEE6insertINS_11__wrap_iterIPKS4_EELi0EEENS9_IPS4_EESC_T_SF_, symObjAddr: 0x8C0, symBinAddr: 0x2B28C, symSize: 0x1F8 }
  - { offsetInCU: 0x11275, offset: 0x1F11C5, size: 0x8, addend: 0x0, symName: __ZNSt3__16vectorIN8firebase9firestore4core6FilterENS_9allocatorIS4_EEE12__move_rangeEPS4_S8_S8_, symObjAddr: 0x11D8, symBinAddr: 0x2B800, symSize: 0x7C }
  - { offsetInCU: 0x11524, offset: 0x1F1474, size: 0x8, addend: 0x0, symName: __ZNSt3__110shared_ptrIKN8firebase9firestore4core6Filter3RepEEaSB7v160006ERKS7_, symObjAddr: 0x135C, symBinAddr: 0x2B984, symSize: 0x78 }
  - { offsetInCU: 0x1188E, offset: 0x1F17DE, size: 0x8, addend: 0x0, symName: __ZNK8firebase9firestore4core15CompositeFilter3Rep23FindFirstMatchingFilterERKNSt3__18functionIFbRKNS1_11FieldFilterEEEE, symObjAddr: 0xAB8, symBinAddr: 0x2B484, symSize: 0x6C }
  - { offsetInCU: 0x119A4, offset: 0x1F18F4, size: 0x8, addend: 0x0, symName: __ZNK8firebase9firestore4core15CompositeFilter3Rep19GetFlattenedFiltersEv, symObjAddr: 0xB24, symBinAddr: 0x2B4F0, symSize: 0xDC }
  - { offsetInCU: 0x11DE2, offset: 0x1F1D32, size: 0x8, addend: 0x0, symName: __ZN8firebase9firestore4core15CompositeFilter3RepD0Ev, symObjAddr: 0xC5C, symBinAddr: 0x2B628, symSize: 0x48 }
  - { offsetInCU: 0x11EB6, offset: 0x1F1E06, size: 0x8, addend: 0x0, symName: __ZNK8firebase9firestore4core15CompositeFilter3Rep4typeEv, symObjAddr: 0xCA4, symBinAddr: 0x2B670, symSize: 0x8 }
  - { offsetInCU: 0x11EDC, offset: 0x1F1E2C, size: 0x8, addend: 0x0, symName: __ZNK8firebase9firestore4core15CompositeFilter3Rep18IsACompositeFilterEv, symObjAddr: 0xCB4, symBinAddr: 0x2B678, symSize: 0x8 }
  - { offsetInCU: 0x11F02, offset: 0x1F1E52, size: 0x8, addend: 0x0, symName: __ZNK8firebase9firestore4core15CompositeFilter3Rep8ToStringEv, symObjAddr: 0xCC4, symBinAddr: 0x2B680, symSize: 0xC }
  - { offsetInCU: 0x11F55, offset: 0x1F1EA5, size: 0x8, addend: 0x0, symName: __ZNK8firebase9firestore4core15CompositeFilter3Rep7IsEmptyEv, symObjAddr: 0xCD0, symBinAddr: 0x2B68C, symSize: 0x10 }
  - { offsetInCU: 0x11F7D, offset: 0x1F1ECD, size: 0x8, addend: 0x0, symName: __ZNK8firebase9firestore4core15CompositeFilter3Rep7IsEmptyEv, symObjAddr: 0xCD0, symBinAddr: 0x2B68C, symSize: 0x10 }
  - { offsetInCU: 0x11F99, offset: 0x1F1EE9, size: 0x8, addend: 0x0, symName: __ZNK8firebase9firestore4core15CompositeFilter3Rep10GetFiltersEv, symObjAddr: 0xCE0, symBinAddr: 0x2B69C, symSize: 0xC }
  - { offsetInCU: 0x11FC1, offset: 0x1F1F11, size: 0x8, addend: 0x0, symName: __ZNK8firebase9firestore4core15CompositeFilter3Rep10GetFiltersEv, symObjAddr: 0xCE0, symBinAddr: 0x2B69C, symSize: 0xC }
  - { offsetInCU: 0x12744, offset: 0x1F2694, size: 0x8, addend: 0x0, symName: __ZNSt3__120__shared_ptr_emplaceIKN8firebase9firestore4core15CompositeFilter3RepENS_9allocatorIS6_EEEC2B7v160006IJS5_EEES8_DpOT_, symObjAddr: 0x10D8, symBinAddr: 0x2B700, symSize: 0xB8 }
  - { offsetInCU: 0x12A5E, offset: 0x1F29AE, size: 0x8, addend: 0x0, symName: __ZNSt3__120__shared_ptr_emplaceIKN8firebase9firestore4core15CompositeFilter3RepENS_9allocatorIS6_EEED1Ev, symObjAddr: 0x1190, symBinAddr: 0x2B7B8, symSize: 0x14 }
  - { offsetInCU: 0x12A80, offset: 0x1F29D0, size: 0x8, addend: 0x0, symName: __ZNSt3__120__shared_ptr_emplaceIKN8firebase9firestore4core15CompositeFilter3RepENS_9allocatorIS6_EEED1Ev, symObjAddr: 0x1190, symBinAddr: 0x2B7B8, symSize: 0x14 }
  - { offsetInCU: 0x12AB7, offset: 0x1F2A07, size: 0x8, addend: 0x0, symName: __ZNSt3__120__shared_ptr_emplaceIKN8firebase9firestore4core15CompositeFilter3RepENS_9allocatorIS6_EEED0Ev, symObjAddr: 0x11A4, symBinAddr: 0x2B7CC, symSize: 0x24 }
  - { offsetInCU: 0x12B1C, offset: 0x1F2A6C, size: 0x8, addend: 0x0, symName: __ZNSt3__120__shared_ptr_emplaceIKN8firebase9firestore4core15CompositeFilter3RepENS_9allocatorIS6_EEE16__on_zero_sharedEv, symObjAddr: 0x11C8, symBinAddr: 0x2B7F0, symSize: 0xC }
  - { offsetInCU: 0x12B4E, offset: 0x1F2A9E, size: 0x8, addend: 0x0, symName: __ZNSt3__120__shared_ptr_emplaceIKN8firebase9firestore4core15CompositeFilter3RepENS_9allocatorIS6_EEE21__on_zero_shared_weakEv, symObjAddr: 0x11D4, symBinAddr: 0x2B7FC, symSize: 0x4 }
  - { offsetInCU: 0x12B80, offset: 0x1F2AD0, size: 0x8, addend: 0x0, symName: __ZNSt3__120__shared_ptr_emplaceIKN8firebase9firestore4core15CompositeFilter3RepENS_9allocatorIS6_EEE21__on_zero_shared_weakEv, symObjAddr: 0x11D4, symBinAddr: 0x2B7FC, symSize: 0x4 }
  - { offsetInCU: 0x12BA3, offset: 0x1F2AF3, size: 0x8, addend: 0x0, symName: __ZNSt3__120__shared_ptr_emplaceIKN8firebase9firestore4core15CompositeFilter3RepENS_9allocatorIS6_EEE21__on_zero_shared_weakEv, symObjAddr: 0x11D4, symBinAddr: 0x2B7FC, symSize: 0x4 }
  - { offsetInCU: 0x12BC6, offset: 0x1F2B16, size: 0x8, addend: 0x0, symName: __ZNSt3__120__shared_ptr_emplaceIKN8firebase9firestore4core15CompositeFilter3RepENS_9allocatorIS6_EEE21__on_zero_shared_weakEv, symObjAddr: 0x11D4, symBinAddr: 0x2B7FC, symSize: 0x4 }
  - { offsetInCU: 0x12BF3, offset: 0x1F2B43, size: 0x8, addend: 0x0, symName: __ZNSt3__120__shared_ptr_emplaceIKN8firebase9firestore4core15CompositeFilter3RepENS_9allocatorIS6_EEE21__on_zero_shared_weakEv, symObjAddr: 0x11D4, symBinAddr: 0x2B7FC, symSize: 0x4 }
  - { offsetInCU: 0x12C1A, offset: 0x1F2B6A, size: 0x8, addend: 0x0, symName: __ZNSt3__120__shared_ptr_emplaceIKN8firebase9firestore4core15CompositeFilter3RepENS_9allocatorIS6_EEE21__on_zero_shared_weakEv, symObjAddr: 0x11D4, symBinAddr: 0x2B7FC, symSize: 0x4 }
  - { offsetInCU: 0x12DFD, offset: 0x1F2D4D, size: 0x8, addend: 0x0, symName: __ZNSt3__110shared_ptrIKN8firebase9firestore4core6Filter3RepEEaSB7v160006EOS7_, symObjAddr: 0x12F8, symBinAddr: 0x2B920, symSize: 0x64 }
  - { offsetInCU: 0x13036, offset: 0x1F2F86, size: 0x8, addend: 0x0, symName: __ZNSt3__117__call_once_paramINS_5tupleIJOZN8firebase9firestore4util18ThreadSafeMemoizerINS_6vectorINS3_4core11FieldFilterENS_9allocatorIS8_EEEEE7memoizeENS_8functionIFSB_vEEEEUlvE_EEEE9__executeB7v160006IJEEEvNS_15__tuple_indicesIJXspT_EEEE, symObjAddr: 0x1470, symBinAddr: 0x2BA00, symSize: 0x74 }
  - { offsetInCU: 0x131A4, offset: 0x1F30F4, size: 0x8, addend: 0x0, symName: __ZNSt3__16vectorIN8firebase9firestore4core11FieldFilterENS_9allocatorIS4_EEE13__vdeallocateEv, symObjAddr: 0x14E4, symBinAddr: 0x2BA74, symSize: 0x5C }
  - { offsetInCU: 0x1328D, offset: 0x1F31DD, size: 0x8, addend: 0x0, symName: __ZNSt3__16vectorIN8firebase9firestore4core11FieldFilterENS_9allocatorIS4_EEE13__vdeallocateEv, symObjAddr: 0x14E4, symBinAddr: 0x2BA74, symSize: 0x5C }
  - { offsetInCU: 0x134B9, offset: 0x1F3409, size: 0x8, addend: 0x0, symName: __ZNSt3__16vectorIN8firebase9firestore4core11FieldFilterENS_9allocatorIS4_EEED2B7v160006Ev, symObjAddr: 0x1540, symBinAddr: 0x2BAD0, symSize: 0x38 }
  - { offsetInCU: 0x136DF, offset: 0x1F362F, size: 0x8, addend: 0x0, symName: __ZNSt3__16vectorIN8firebase9firestore4core11FieldFilterENS_9allocatorIS4_EEE16__destroy_vectorclB7v160006Ev, symObjAddr: 0x1578, symBinAddr: 0x2BB08, symSize: 0x70 }
  - { offsetInCU: 0x138B9, offset: 0x1F3809, size: 0x8, addend: 0x0, symName: '__ZNSt3__110__function6__funcIZNK8firebase9firestore4core15CompositeFilter3Rep19GetFlattenedFiltersEvE3$_5NS_9allocatorIS7_EEFNS_6vectorINS4_11FieldFilterENS8_ISB_EEEEvEED1Ev', symObjAddr: 0x15E8, symBinAddr: 0x2BB78, symSize: 0x4 }
  - { offsetInCU: 0x138E4, offset: 0x1F3834, size: 0x8, addend: 0x0, symName: '__ZNSt3__110__function6__funcIZNK8firebase9firestore4core15CompositeFilter3Rep19GetFlattenedFiltersEvE3$_5NS_9allocatorIS7_EEFNS_6vectorINS4_11FieldFilterENS8_ISB_EEEEvEED0Ev', symObjAddr: 0x15EC, symBinAddr: 0x2BB7C, symSize: 0x4 }
  - { offsetInCU: 0x13ADC, offset: 0x1F3A2C, size: 0x8, addend: 0x0, symName: '__ZNKSt3__110__function6__funcIZNK8firebase9firestore4core15CompositeFilter3Rep19GetFlattenedFiltersEvE3$_5NS_9allocatorIS7_EEFNS_6vectorINS4_11FieldFilterENS8_ISB_EEEEvEE7__cloneEv', symObjAddr: 0x15F0, symBinAddr: 0x2BB80, symSize: 0x34 }
  - { offsetInCU: 0x13DCD, offset: 0x1F3D1D, size: 0x8, addend: 0x0, symName: '__ZNKSt3__110__function6__funcIZNK8firebase9firestore4core15CompositeFilter3Rep19GetFlattenedFiltersEvE3$_5NS_9allocatorIS7_EEFNS_6vectorINS4_11FieldFilterENS8_ISB_EEEEvEE7__cloneEPNS0_6__baseISE_EE', symObjAddr: 0x1624, symBinAddr: 0x2BBB4, symSize: 0x14 }
  - { offsetInCU: 0x13E04, offset: 0x1F3D54, size: 0x8, addend: 0x0, symName: '__ZNKSt3__110__function6__funcIZNK8firebase9firestore4core15CompositeFilter3Rep19GetFlattenedFiltersEvE3$_5NS_9allocatorIS7_EEFNS_6vectorINS4_11FieldFilterENS8_ISB_EEEEvEE7__cloneEPNS0_6__baseISE_EE', symObjAddr: 0x1624, symBinAddr: 0x2BBB4, symSize: 0x14 }
  - { offsetInCU: 0x13E32, offset: 0x1F3D82, size: 0x8, addend: 0x0, symName: '__ZNKSt3__110__function6__funcIZNK8firebase9firestore4core15CompositeFilter3Rep19GetFlattenedFiltersEvE3$_5NS_9allocatorIS7_EEFNS_6vectorINS4_11FieldFilterENS8_ISB_EEEEvEE7__cloneEPNS0_6__baseISE_EE', symObjAddr: 0x1624, symBinAddr: 0x2BBB4, symSize: 0x14 }
  - { offsetInCU: 0x13E60, offset: 0x1F3DB0, size: 0x8, addend: 0x0, symName: '__ZNKSt3__110__function6__funcIZNK8firebase9firestore4core15CompositeFilter3Rep19GetFlattenedFiltersEvE3$_5NS_9allocatorIS7_EEFNS_6vectorINS4_11FieldFilterENS8_ISB_EEEEvEE7__cloneEPNS0_6__baseISE_EE', symObjAddr: 0x1624, symBinAddr: 0x2BBB4, symSize: 0x14 }
  - { offsetInCU: 0x13E75, offset: 0x1F3DC5, size: 0x8, addend: 0x0, symName: '__ZNKSt3__110__function6__funcIZNK8firebase9firestore4core15CompositeFilter3Rep19GetFlattenedFiltersEvE3$_5NS_9allocatorIS7_EEFNS_6vectorINS4_11FieldFilterENS8_ISB_EEEEvEE7__cloneEPNS0_6__baseISE_EE', symObjAddr: 0x1624, symBinAddr: 0x2BBB4, symSize: 0x14 }
  - { offsetInCU: 0x13E89, offset: 0x1F3DD9, size: 0x8, addend: 0x0, symName: '__ZNKSt3__110__function6__funcIZNK8firebase9firestore4core15CompositeFilter3Rep19GetFlattenedFiltersEvE3$_5NS_9allocatorIS7_EEFNS_6vectorINS4_11FieldFilterENS8_ISB_EEEEvEE7__cloneEPNS0_6__baseISE_EE', symObjAddr: 0x1624, symBinAddr: 0x2BBB4, symSize: 0x14 }
  - { offsetInCU: 0x13E9D, offset: 0x1F3DED, size: 0x8, addend: 0x0, symName: '__ZNKSt3__110__function6__funcIZNK8firebase9firestore4core15CompositeFilter3Rep19GetFlattenedFiltersEvE3$_5NS_9allocatorIS7_EEFNS_6vectorINS4_11FieldFilterENS8_ISB_EEEEvEE7__cloneEPNS0_6__baseISE_EE', symObjAddr: 0x1624, symBinAddr: 0x2BBB4, symSize: 0x14 }
  - { offsetInCU: 0x13EB2, offset: 0x1F3E02, size: 0x8, addend: 0x0, symName: '__ZNKSt3__110__function6__funcIZNK8firebase9firestore4core15CompositeFilter3Rep19GetFlattenedFiltersEvE3$_5NS_9allocatorIS7_EEFNS_6vectorINS4_11FieldFilterENS8_ISB_EEEEvEE7__cloneEPNS0_6__baseISE_EE', symObjAddr: 0x1624, symBinAddr: 0x2BBB4, symSize: 0x14 }
  - { offsetInCU: 0x13EC9, offset: 0x1F3E19, size: 0x8, addend: 0x0, symName: '__ZNSt3__110__function6__funcIZNK8firebase9firestore4core15CompositeFilter3Rep19GetFlattenedFiltersEvE3$_5NS_9allocatorIS7_EEFNS_6vectorINS4_11FieldFilterENS8_ISB_EEEEvEE7destroyEv', symObjAddr: 0x1638, symBinAddr: 0x2BBC8, symSize: 0x4 }
  - { offsetInCU: 0x13F17, offset: 0x1F3E67, size: 0x8, addend: 0x0, symName: '__ZNSt3__110__function6__funcIZNK8firebase9firestore4core15CompositeFilter3Rep19GetFlattenedFiltersEvE3$_5NS_9allocatorIS7_EEFNS_6vectorINS4_11FieldFilterENS8_ISB_EEEEvEE18destroy_deallocateEv', symObjAddr: 0x163C, symBinAddr: 0x2BBCC, symSize: 0x4 }
  - { offsetInCU: 0x13F4B, offset: 0x1F3E9B, size: 0x8, addend: 0x0, symName: '__ZNSt3__110__function6__funcIZNK8firebase9firestore4core15CompositeFilter3Rep19GetFlattenedFiltersEvE3$_5NS_9allocatorIS7_EEFNS_6vectorINS4_11FieldFilterENS8_ISB_EEEEvEE18destroy_deallocateEv', symObjAddr: 0x163C, symBinAddr: 0x2BBCC, symSize: 0x4 }
  - { offsetInCU: 0x13F6E, offset: 0x1F3EBE, size: 0x8, addend: 0x0, symName: '__ZNSt3__110__function6__funcIZNK8firebase9firestore4core15CompositeFilter3Rep19GetFlattenedFiltersEvE3$_5NS_9allocatorIS7_EEFNS_6vectorINS4_11FieldFilterENS8_ISB_EEEEvEE18destroy_deallocateEv', symObjAddr: 0x163C, symBinAddr: 0x2BBCC, symSize: 0x4 }
  - { offsetInCU: 0x13F9A, offset: 0x1F3EEA, size: 0x8, addend: 0x0, symName: '__ZNSt3__110__function6__funcIZNK8firebase9firestore4core15CompositeFilter3Rep19GetFlattenedFiltersEvE3$_5NS_9allocatorIS7_EEFNS_6vectorINS4_11FieldFilterENS8_ISB_EEEEvEE18destroy_deallocateEv', symObjAddr: 0x163C, symBinAddr: 0x2BBCC, symSize: 0x4 }
  - { offsetInCU: 0x13FC0, offset: 0x1F3F10, size: 0x8, addend: 0x0, symName: '__ZNSt3__110__function6__funcIZNK8firebase9firestore4core15CompositeFilter3Rep19GetFlattenedFiltersEvE3$_5NS_9allocatorIS7_EEFNS_6vectorINS4_11FieldFilterENS8_ISB_EEEEvEE18destroy_deallocateEv', symObjAddr: 0x163C, symBinAddr: 0x2BBCC, symSize: 0x4 }
  - { offsetInCU: 0x140EA, offset: 0x1F403A, size: 0x8, addend: 0x0, symName: '__ZNSt3__110__function6__funcIZNK8firebase9firestore4core15CompositeFilter3Rep19GetFlattenedFiltersEvE3$_5NS_9allocatorIS7_EEFNS_6vectorINS4_11FieldFilterENS8_ISB_EEEEvEEclEv', symObjAddr: 0x1640, symBinAddr: 0x2BBD0, symSize: 0x8C }
  - { offsetInCU: 0x143A8, offset: 0x1F42F8, size: 0x8, addend: 0x0, symName: '__ZNKSt3__110__function6__funcIZNK8firebase9firestore4core15CompositeFilter3Rep19GetFlattenedFiltersEvE3$_5NS_9allocatorIS7_EEFNS_6vectorINS4_11FieldFilterENS8_ISB_EEEEvEE6targetERKSt9type_info', symObjAddr: 0x16CC, symBinAddr: 0x2BC5C, symSize: 0x3C }
  - { offsetInCU: 0x1443E, offset: 0x1F438E, size: 0x8, addend: 0x0, symName: '__ZNKSt3__110__function6__funcIZNK8firebase9firestore4core15CompositeFilter3Rep19GetFlattenedFiltersEvE3$_5NS_9allocatorIS7_EEFNS_6vectorINS4_11FieldFilterENS8_ISB_EEEEvEE11target_typeEv', symObjAddr: 0x1708, symBinAddr: 0x2BC98, symSize: 0xC }
  - { offsetInCU: 0x14568, offset: 0x1F44B8, size: 0x8, addend: 0x0, symName: __ZNSt3__120back_insert_iteratorINS_6vectorIN8firebase9firestore4core11FieldFilterENS_9allocatorIS5_EEEEEaSB7v160006ERKS5_, symObjAddr: 0x1774, symBinAddr: 0x2BD04, symSize: 0x60 }
  - { offsetInCU: 0x148EA, offset: 0x1F483A, size: 0x8, addend: 0x0, symName: __ZNSt3__16vectorIN8firebase9firestore4core11FieldFilterENS_9allocatorIS4_EEE21__push_back_slow_pathIRKS4_EEvOT_, symObjAddr: 0x17D4, symBinAddr: 0x2BD64, symSize: 0x130 }
  - { offsetInCU: 0x14E26, offset: 0x1F4D76, size: 0x8, addend: 0x0, symName: __ZNKSt3__16vectorIN8firebase9firestore4core11FieldFilterENS_9allocatorIS4_EEE20__throw_length_errorB7v160006Ev, symObjAddr: 0x1904, symBinAddr: 0x2BE94, symSize: 0x14 }
  - { offsetInCU: 0x150D4, offset: 0x1F5024, size: 0x8, addend: 0x0, symName: __ZNSt3__114__split_bufferIN8firebase9firestore4core11FieldFilterERNS_9allocatorIS4_EEED2Ev, symObjAddr: 0x194C, symBinAddr: 0x2BEDC, symSize: 0x4C }
  - { offsetInCU: 0x152C6, offset: 0x1F5216, size: 0x8, addend: 0x0, symName: __ZNKSt3__16vectorIN8firebase9firestore4core11FieldFilterENS_9allocatorIS4_EEE20__throw_length_errorB7v160006Ev, symObjAddr: 0x1904, symBinAddr: 0x2BE94, symSize: 0x14 }
  - { offsetInCU: 0x152EE, offset: 0x1F523E, size: 0x8, addend: 0x0, symName: __ZNSt3__119__allocate_at_leastB7v160006INS_9allocatorIN8firebase9firestore4core11FieldFilterEEEEENS_19__allocation_resultINS_16allocator_traitsIT_E7pointerEEERS9_m, symObjAddr: 0x1918, symBinAddr: 0x2BEA8, symSize: 0x34 }
  - { offsetInCU: 0x26, offset: 0x1F53D3, size: 0x8, addend: 0x0, symName: __ZN8firebase9firestore6remote19ConnectivityMonitor16SetInitialStatusENS2_13NetworkStatusE, symObjAddr: 0x0, symBinAddr: 0x2BF28, symSize: 0x90 }
  - { offsetInCU: 0x7119, offset: 0x1FC4C6, size: 0x8, addend: 0x0, symName: __ZN8firebase9firestore6remote19ConnectivityMonitor16SetInitialStatusENS2_13NetworkStatusE, symObjAddr: 0x0, symBinAddr: 0x2BF28, symSize: 0x90 }
  - { offsetInCU: 0x7321, offset: 0x1FC6CE, size: 0x8, addend: 0x0, symName: __ZN8firebase9firestore6remote19ConnectivityMonitor20MaybeInvokeCallbacksENS2_13NetworkStatusE, symObjAddr: 0x90, symBinAddr: 0x2BFB8, symSize: 0x1C }
  - { offsetInCU: 0x7355, offset: 0x1FC702, size: 0x8, addend: 0x0, symName: __ZN8firebase9firestore6remote19ConnectivityMonitor20MaybeInvokeCallbacksENS2_13NetworkStatusE, symObjAddr: 0x90, symBinAddr: 0x2BFB8, symSize: 0x1C }
  - { offsetInCU: 0x7373, offset: 0x1FC720, size: 0x8, addend: 0x0, symName: __ZN8firebase9firestore6remote19ConnectivityMonitor20MaybeInvokeCallbacksENS2_13NetworkStatusE, symObjAddr: 0x90, symBinAddr: 0x2BFB8, symSize: 0x1C }
  - { offsetInCU: 0x739D, offset: 0x1FC74A, size: 0x8, addend: 0x0, symName: __ZN8firebase9firestore6remote19ConnectivityMonitor15InvokeCallbacksENS2_13NetworkStatusE, symObjAddr: 0xAC, symBinAddr: 0x2BFD4, symSize: 0x80 }
  - { offsetInCU: 0x7383, offset: 0x203CEF, size: 0x8, addend: 0x0, symName: __ZN8firebase9firestore6remote12_GLOBAL__N_129OnReachabilityChangedCallbackEPK23__SCNetworkReachabilityjPv, symObjAddr: 0x39C, symBinAddr: 0x2C3F0, symSize: 0x80 }
  - { offsetInCU: 0x79FE, offset: 0x20436A, size: 0x8, addend: 0x0, symName: __ZN8firebase9firestore6remote24ConnectivityMonitorApple21OnReachabilityChangedEj, symObjAddr: 0x5C0, symBinAddr: 0x2C608, symSize: 0xDC }
  - { offsetInCU: 0x7ED8, offset: 0x204844, size: 0x8, addend: 0x0, symName: __ZN8firebase9firestore6remote24ConnectivityMonitorApple19OnEnteredForegroundEv, symObjAddr: 0x424, symBinAddr: 0x2C478, symSize: 0xF0 }
  - { offsetInCU: 0xA254, offset: 0x206BC0, size: 0x8, addend: 0x0, symName: __ZN8firebase9firestore6remote19ConnectivityMonitor6CreateERKNSt3__110shared_ptrINS0_4util10AsyncQueueEEE, symObjAddr: 0x0, symBinAddr: 0x2C054, symSize: 0x54 }
  - { offsetInCU: 0xA354, offset: 0x206CC0, size: 0x8, addend: 0x0, symName: __ZN8firebase9firestore6remote24ConnectivityMonitorAppleC2ERKNSt3__110shared_ptrINS0_4util10AsyncQueueEEE, symObjAddr: 0x54, symBinAddr: 0x2C0A8, symSize: 0x348 }
  - { offsetInCU: 0xAD14, offset: 0x207680, size: 0x8, addend: 0x0, symName: __ZNSt3__16vectorINS_8functionIFvN8firebase9firestore6remote19ConnectivityMonitor13NetworkStatusEEEENS_9allocatorIS8_EEED2B7v160006Ev, symObjAddr: 0x894, symBinAddr: 0x2C894, symSize: 0x38 }
  - { offsetInCU: 0xAD9E, offset: 0x20770A, size: 0x8, addend: 0x0, symName: __ZNSt3__110shared_ptrIN8firebase9firestore4util10AsyncQueueEED2B7v160006Ev, symObjAddr: 0x964, symBinAddr: 0x2C964, symSize: 0x58 }
  - { offsetInCU: 0xAE8A, offset: 0x2077F6, size: 0x8, addend: 0x0, symName: ____ZN8firebase9firestore6remote24ConnectivityMonitorAppleC2ERKNSt3__110shared_ptrINS0_4util10AsyncQueueEEE_block_invoke, symObjAddr: 0x41C, symBinAddr: 0x2C470, symSize: 0x8 }
  - { offsetInCU: 0xB261, offset: 0x207BCD, size: 0x8, addend: 0x0, symName: __ZN8firebase9firestore6remote24ConnectivityMonitorAppleD1Ev, symObjAddr: 0x514, symBinAddr: 0x2C568, symSize: 0x4 }
  - { offsetInCU: 0xB284, offset: 0x207BF0, size: 0x8, addend: 0x0, symName: __ZN8firebase9firestore6remote24ConnectivityMonitorAppleD1Ev, symObjAddr: 0x514, symBinAddr: 0x2C568, symSize: 0x4 }
  - { offsetInCU: 0xB297, offset: 0x207C03, size: 0x8, addend: 0x0, symName: __ZN8firebase9firestore6remote24ConnectivityMonitorAppleD2Ev, symObjAddr: 0x9BC, symBinAddr: 0x2C9BC, symSize: 0xE4 }
  - { offsetInCU: 0xB54E, offset: 0x207EBA, size: 0x8, addend: 0x0, symName: __ZN8firebase9firestore6remote24ConnectivityMonitorAppleD0Ev, symObjAddr: 0x518, symBinAddr: 0x2C56C, symSize: 0x14 }
  - { offsetInCU: 0xB5A7, offset: 0x207F13, size: 0x8, addend: 0x0, symName: __ZN8firebase9firestore6remote19ConnectivityMonitorD1Ev, symObjAddr: 0x52C, symBinAddr: 0x2C580, symSize: 0x44 }
  - { offsetInCU: 0xB658, offset: 0x207FC4, size: 0x8, addend: 0x0, symName: __ZN8firebase9firestore6remote19ConnectivityMonitorD0Ev, symObjAddr: 0x570, symBinAddr: 0x2C5C4, symSize: 0x44 }
  - { offsetInCU: 0xBA1D, offset: 0x208389, size: 0x8, addend: 0x0, symName: __ZNSt3__110__function6__funcIZN8firebase9firestore6remote24ConnectivityMonitorApple21OnReachabilityChangedEjEUlvE_NS_9allocatorIS6_EEFvvEED1Ev, symObjAddr: 0x69C, symBinAddr: 0x2C6E4, symSize: 0x4 }
  - { offsetInCU: 0xBA48, offset: 0x2083B4, size: 0x8, addend: 0x0, symName: __ZNSt3__110__function6__funcIZN8firebase9firestore6remote24ConnectivityMonitorApple21OnReachabilityChangedEjEUlvE_NS_9allocatorIS6_EEFvvEED0Ev, symObjAddr: 0x6A0, symBinAddr: 0x2C6E8, symSize: 0x4 }
  - { offsetInCU: 0xBC40, offset: 0x2085AC, size: 0x8, addend: 0x0, symName: __ZNKSt3__110__function6__funcIZN8firebase9firestore6remote24ConnectivityMonitorApple21OnReachabilityChangedEjEUlvE_NS_9allocatorIS6_EEFvvEE7__cloneEv, symObjAddr: 0x6A4, symBinAddr: 0x2C6EC, symSize: 0x38 }
  - { offsetInCU: 0xBF5E, offset: 0x2088CA, size: 0x8, addend: 0x0, symName: __ZNKSt3__110__function6__funcIZN8firebase9firestore6remote24ConnectivityMonitorApple21OnReachabilityChangedEjEUlvE_NS_9allocatorIS6_EEFvvEE7__cloneEPNS0_6__baseIS9_EE, symObjAddr: 0x6DC, symBinAddr: 0x2C724, symSize: 0x18 }
  - { offsetInCU: 0xBF95, offset: 0x208901, size: 0x8, addend: 0x0, symName: __ZNKSt3__110__function6__funcIZN8firebase9firestore6remote24ConnectivityMonitorApple21OnReachabilityChangedEjEUlvE_NS_9allocatorIS6_EEFvvEE7__cloneEPNS0_6__baseIS9_EE, symObjAddr: 0x6DC, symBinAddr: 0x2C724, symSize: 0x18 }
  - { offsetInCU: 0xBFC3, offset: 0x20892F, size: 0x8, addend: 0x0, symName: __ZNKSt3__110__function6__funcIZN8firebase9firestore6remote24ConnectivityMonitorApple21OnReachabilityChangedEjEUlvE_NS_9allocatorIS6_EEFvvEE7__cloneEPNS0_6__baseIS9_EE, symObjAddr: 0x6DC, symBinAddr: 0x2C724, symSize: 0x18 }
  - { offsetInCU: 0xC0D9, offset: 0x208A45, size: 0x8, addend: 0x0, symName: __ZNSt3__110__function6__funcIZN8firebase9firestore6remote24ConnectivityMonitorApple21OnReachabilityChangedEjEUlvE_NS_9allocatorIS6_EEFvvEE7destroyEv, symObjAddr: 0x6F4, symBinAddr: 0x2C73C, symSize: 0x4 }
  - { offsetInCU: 0xC129, offset: 0x208A95, size: 0x8, addend: 0x0, symName: __ZNSt3__110__function6__funcIZN8firebase9firestore6remote24ConnectivityMonitorApple21OnReachabilityChangedEjEUlvE_NS_9allocatorIS6_EEFvvEE18destroy_deallocateEv, symObjAddr: 0x6F8, symBinAddr: 0x2C740, symSize: 0x4 }
  - { offsetInCU: 0xC15D, offset: 0x208AC9, size: 0x8, addend: 0x0, symName: __ZNSt3__110__function6__funcIZN8firebase9firestore6remote24ConnectivityMonitorApple21OnReachabilityChangedEjEUlvE_NS_9allocatorIS6_EEFvvEE18destroy_deallocateEv, symObjAddr: 0x6F8, symBinAddr: 0x2C740, symSize: 0x4 }
  - { offsetInCU: 0xC180, offset: 0x208AEC, size: 0x8, addend: 0x0, symName: __ZNSt3__110__function6__funcIZN8firebase9firestore6remote24ConnectivityMonitorApple21OnReachabilityChangedEjEUlvE_NS_9allocatorIS6_EEFvvEE18destroy_deallocateEv, symObjAddr: 0x6F8, symBinAddr: 0x2C740, symSize: 0x4 }
  - { offsetInCU: 0xC1AC, offset: 0x208B18, size: 0x8, addend: 0x0, symName: __ZNSt3__110__function6__funcIZN8firebase9firestore6remote24ConnectivityMonitorApple21OnReachabilityChangedEjEUlvE_NS_9allocatorIS6_EEFvvEE18destroy_deallocateEv, symObjAddr: 0x6F8, symBinAddr: 0x2C740, symSize: 0x4 }
  - { offsetInCU: 0xC1D2, offset: 0x208B3E, size: 0x8, addend: 0x0, symName: __ZNSt3__110__function6__funcIZN8firebase9firestore6remote24ConnectivityMonitorApple21OnReachabilityChangedEjEUlvE_NS_9allocatorIS6_EEFvvEE18destroy_deallocateEv, symObjAddr: 0x6F8, symBinAddr: 0x2C740, symSize: 0x4 }
  - { offsetInCU: 0xC24C, offset: 0x208BB8, size: 0x8, addend: 0x0, symName: __ZNSt3__110__function6__funcIZN8firebase9firestore6remote24ConnectivityMonitorApple21OnReachabilityChangedEjEUlvE_NS_9allocatorIS6_EEFvvEEclEv, symObjAddr: 0x6FC, symBinAddr: 0x2C744, symSize: 0x28 }
  - { offsetInCU: 0xC30D, offset: 0x208C79, size: 0x8, addend: 0x0, symName: __ZNKSt3__110__function6__funcIZN8firebase9firestore6remote24ConnectivityMonitorApple21OnReachabilityChangedEjEUlvE_NS_9allocatorIS6_EEFvvEE6targetERKSt9type_info, symObjAddr: 0x724, symBinAddr: 0x2C76C, symSize: 0x3C }
  - { offsetInCU: 0xC3A3, offset: 0x208D0F, size: 0x8, addend: 0x0, symName: __ZNKSt3__110__function6__funcIZN8firebase9firestore6remote24ConnectivityMonitorApple21OnReachabilityChangedEjEUlvE_NS_9allocatorIS6_EEFvvEE11target_typeEv, symObjAddr: 0x760, symBinAddr: 0x2C7A8, symSize: 0xC }
  - { offsetInCU: 0xC3FC, offset: 0x208D68, size: 0x8, addend: 0x0, symName: __ZNSt3__110__function6__funcIZN8firebase9firestore6remote24ConnectivityMonitorApple19OnEnteredForegroundEvEUlvE_NS_9allocatorIS6_EEFvvEED1Ev, symObjAddr: 0x7B4, symBinAddr: 0x2C7B4, symSize: 0x4 }
  - { offsetInCU: 0xC427, offset: 0x208D93, size: 0x8, addend: 0x0, symName: __ZNSt3__110__function6__funcIZN8firebase9firestore6remote24ConnectivityMonitorApple19OnEnteredForegroundEvEUlvE_NS_9allocatorIS6_EEFvvEED0Ev, symObjAddr: 0x7B8, symBinAddr: 0x2C7B8, symSize: 0x4 }
  - { offsetInCU: 0xC61F, offset: 0x208F8B, size: 0x8, addend: 0x0, symName: __ZNKSt3__110__function6__funcIZN8firebase9firestore6remote24ConnectivityMonitorApple19OnEnteredForegroundEvEUlvE_NS_9allocatorIS6_EEFvvEE7__cloneEv, symObjAddr: 0x7BC, symBinAddr: 0x2C7BC, symSize: 0x38 }
  - { offsetInCU: 0xC93D, offset: 0x2092A9, size: 0x8, addend: 0x0, symName: __ZNKSt3__110__function6__funcIZN8firebase9firestore6remote24ConnectivityMonitorApple19OnEnteredForegroundEvEUlvE_NS_9allocatorIS6_EEFvvEE7__cloneEPNS0_6__baseIS9_EE, symObjAddr: 0x7F4, symBinAddr: 0x2C7F4, symSize: 0x18 }
  - { offsetInCU: 0xC974, offset: 0x2092E0, size: 0x8, addend: 0x0, symName: __ZNKSt3__110__function6__funcIZN8firebase9firestore6remote24ConnectivityMonitorApple19OnEnteredForegroundEvEUlvE_NS_9allocatorIS6_EEFvvEE7__cloneEPNS0_6__baseIS9_EE, symObjAddr: 0x7F4, symBinAddr: 0x2C7F4, symSize: 0x18 }
  - { offsetInCU: 0xC9A2, offset: 0x20930E, size: 0x8, addend: 0x0, symName: __ZNKSt3__110__function6__funcIZN8firebase9firestore6remote24ConnectivityMonitorApple19OnEnteredForegroundEvEUlvE_NS_9allocatorIS6_EEFvvEE7__cloneEPNS0_6__baseIS9_EE, symObjAddr: 0x7F4, symBinAddr: 0x2C7F4, symSize: 0x18 }
  - { offsetInCU: 0xCAB8, offset: 0x209424, size: 0x8, addend: 0x0, symName: __ZNSt3__110__function6__funcIZN8firebase9firestore6remote24ConnectivityMonitorApple19OnEnteredForegroundEvEUlvE_NS_9allocatorIS6_EEFvvEE7destroyEv, symObjAddr: 0x80C, symBinAddr: 0x2C80C, symSize: 0x4 }
  - { offsetInCU: 0xCB08, offset: 0x209474, size: 0x8, addend: 0x0, symName: __ZNSt3__110__function6__funcIZN8firebase9firestore6remote24ConnectivityMonitorApple19OnEnteredForegroundEvEUlvE_NS_9allocatorIS6_EEFvvEE18destroy_deallocateEv, symObjAddr: 0x810, symBinAddr: 0x2C810, symSize: 0x4 }
  - { offsetInCU: 0xCB3C, offset: 0x2094A8, size: 0x8, addend: 0x0, symName: __ZNSt3__110__function6__funcIZN8firebase9firestore6remote24ConnectivityMonitorApple19OnEnteredForegroundEvEUlvE_NS_9allocatorIS6_EEFvvEE18destroy_deallocateEv, symObjAddr: 0x810, symBinAddr: 0x2C810, symSize: 0x4 }
  - { offsetInCU: 0xCB5F, offset: 0x2094CB, size: 0x8, addend: 0x0, symName: __ZNSt3__110__function6__funcIZN8firebase9firestore6remote24ConnectivityMonitorApple19OnEnteredForegroundEvEUlvE_NS_9allocatorIS6_EEFvvEE18destroy_deallocateEv, symObjAddr: 0x810, symBinAddr: 0x2C810, symSize: 0x4 }
  - { offsetInCU: 0xCB8B, offset: 0x2094F7, size: 0x8, addend: 0x0, symName: __ZNSt3__110__function6__funcIZN8firebase9firestore6remote24ConnectivityMonitorApple19OnEnteredForegroundEvEUlvE_NS_9allocatorIS6_EEFvvEE18destroy_deallocateEv, symObjAddr: 0x810, symBinAddr: 0x2C810, symSize: 0x4 }
  - { offsetInCU: 0xCBB1, offset: 0x20951D, size: 0x8, addend: 0x0, symName: __ZNSt3__110__function6__funcIZN8firebase9firestore6remote24ConnectivityMonitorApple19OnEnteredForegroundEvEUlvE_NS_9allocatorIS6_EEFvvEE18destroy_deallocateEv, symObjAddr: 0x810, symBinAddr: 0x2C810, symSize: 0x4 }
  - { offsetInCU: 0xCBEF, offset: 0x20955B, size: 0x8, addend: 0x0, symName: __ZNSt3__110__function6__funcIZN8firebase9firestore6remote24ConnectivityMonitorApple19OnEnteredForegroundEvEUlvE_NS_9allocatorIS6_EEFvvEEclEv, symObjAddr: 0x814, symBinAddr: 0x2C814, symSize: 0x8 }
  - { offsetInCU: 0xCC41, offset: 0x2095AD, size: 0x8, addend: 0x0, symName: __ZNSt3__128__invoke_void_return_wrapperIvLb1EE6__callIJRZN8firebase9firestore6remote24ConnectivityMonitorApple19OnEnteredForegroundEvEUlvE_EEEvDpOT_, symObjAddr: 0x864, symBinAddr: 0x2C864, symSize: 0x30 }
  - { offsetInCU: 0xCCCD, offset: 0x209639, size: 0x8, addend: 0x0, symName: __ZNKSt3__110__function6__funcIZN8firebase9firestore6remote24ConnectivityMonitorApple19OnEnteredForegroundEvEUlvE_NS_9allocatorIS6_EEFvvEE6targetERKSt9type_info, symObjAddr: 0x81C, symBinAddr: 0x2C81C, symSize: 0x3C }
  - { offsetInCU: 0xCD1A, offset: 0x209686, size: 0x8, addend: 0x0, symName: __ZNKSt3__110__function6__funcIZN8firebase9firestore6remote24ConnectivityMonitorApple19OnEnteredForegroundEvEUlvE_NS_9allocatorIS6_EEFvvEE11target_typeEv, symObjAddr: 0x858, symBinAddr: 0x2C858, symSize: 0xC }
  - { offsetInCU: 0xCDBA, offset: 0x209726, size: 0x8, addend: 0x0, symName: __ZNSt3__16vectorINS_8functionIFvN8firebase9firestore6remote19ConnectivityMonitor13NetworkStatusEEEENS_9allocatorIS8_EEE16__destroy_vectorclB7v160006Ev, symObjAddr: 0x8CC, symBinAddr: 0x2C8CC, symSize: 0x98 }
  - { offsetInCU: 0x27, offset: 0x209CD0, size: 0x8, addend: 0x0, symName: __ZN8firebase9firestore3api12MakeGeoPointEP11FIRGeoPoint, symObjAddr: 0x0, symBinAddr: 0x2CAA0, symSize: 0x70 }
  - { offsetInCU: 0x128, offset: 0x209DD1, size: 0x8, addend: 0x0, symName: __ZN8firebase9firestore3api12MakeGeoPointEP11FIRGeoPoint, symObjAddr: 0x0, symBinAddr: 0x2CAA0, symSize: 0x70 }
  - { offsetInCU: 0x155, offset: 0x209DFE, size: 0x8, addend: 0x0, symName: __ZN8firebase9firestore3api15MakeFIRGeoPointERKNS0_8GeoPointE, symObjAddr: 0x70, symBinAddr: 0x2CB10, symSize: 0x30 }
  - { offsetInCU: 0x19E, offset: 0x209E47, size: 0x8, addend: 0x0, symName: __ZN8firebase9firestore3api13MakeTimestampEP12FIRTimestamp, symObjAddr: 0xA0, symBinAddr: 0x2CB40, symSize: 0x68 }
  - { offsetInCU: 0x1CB, offset: 0x209E74, size: 0x8, addend: 0x0, symName: __ZN8firebase9firestore3api13MakeTimestampEP6NSDate, symObjAddr: 0x108, symBinAddr: 0x2CBA8, symSize: 0x6C }
  - { offsetInCU: 0x215, offset: 0x209EBE, size: 0x8, addend: 0x0, symName: __ZN8firebase9firestore3api16MakeFIRTimestampERKNS_9TimestampE, symObjAddr: 0x174, symBinAddr: 0x2CC14, symSize: 0x34 }
  - { offsetInCU: 0x82A, offset: 0x20A4D3, size: 0x8, addend: 0x0, symName: __ZN8firebase9firestore3api24MakeFIRDocumentReferenceERKNS0_5model11DocumentKeyENSt3__110shared_ptrINS1_9FirestoreEEE, symObjAddr: 0x1A8, symBinAddr: 0x2CC48, symSize: 0x100 }
  - { offsetInCU: 0x5B, offset: 0x20FC59, size: 0x8, addend: 0x0, symName: __ZN8firebase9firestore5model10DatabaseId8kDefaultE, symObjAddr: 0x1710, symBinAddr: 0x22E038, symSize: 0x0 }
  - { offsetInCU: 0x443, offset: 0x210041, size: 0x8, addend: 0x0, symName: __ZN8firebase9firestore5modellsERNSt3__113basic_ostreamIcNS2_11char_traitsIcEEEERKNS1_10DatabaseIdE, symObjAddr: 0x618, symBinAddr: 0x2D2F4, symSize: 0x88 }
  - { offsetInCU: 0x8A5, offset: 0x2104A3, size: 0x8, addend: 0x0, symName: __ZN8firebase9firestore4util12StringFormatIJmEEENSt3__112basic_stringIcNS3_11char_traitsIcEENS3_9allocatorIcEEEEPKcDpRKT_, symObjAddr: 0x89C, symBinAddr: 0x2D4A0, symSize: 0x7C }
  - { offsetInCU: 0x8129, offset: 0x217D27, size: 0x8, addend: 0x0, symName: __ZN8firebase9firestore5model10DatabaseIdC2ENSt3__112basic_stringIcNS3_11char_traitsIcEENS3_9allocatorIcEEEES9_, symObjAddr: 0x0, symBinAddr: 0x2CD48, symSize: 0xE8 }
  - { offsetInCU: 0x8562, offset: 0x218160, size: 0x8, addend: 0x0, symName: __ZNSt3__110shared_ptrIKN8firebase9firestore5model10DatabaseId3RepEEaSB7v160006IS5_vEERS7_ONS0_IT_EE, symObjAddr: 0xE8, symBinAddr: 0x2CE30, symSize: 0x64 }
  - { offsetInCU: 0x86C7, offset: 0x2182C5, size: 0x8, addend: 0x0, symName: __ZNSt3__110shared_ptrIKN8firebase9firestore5model10DatabaseId3RepEED2B7v160006Ev, symObjAddr: 0x7C4, symBinAddr: 0x2D3C8, symSize: 0x58 }
  - { offsetInCU: 0x87F4, offset: 0x2183F2, size: 0x8, addend: 0x0, symName: __ZN8firebase9firestore5model10DatabaseIdC1ENSt3__112basic_stringIcNS3_11char_traitsIcEENS3_9allocatorIcEEEES9_, symObjAddr: 0x14C, symBinAddr: 0x2CE94, symSize: 0x4 }
  - { offsetInCU: 0x8827, offset: 0x218425, size: 0x8, addend: 0x0, symName: __ZN8firebase9firestore5model10DatabaseIdC1ENSt3__112basic_stringIcNS3_11char_traitsIcEENS3_9allocatorIcEEEES9_, symObjAddr: 0x14C, symBinAddr: 0x2CE94, symSize: 0x4 }
  - { offsetInCU: 0x8B5C, offset: 0x21875A, size: 0x8, addend: 0x0, symName: __ZN8firebase9firestore5model10DatabaseId8FromNameERKNSt3__112basic_stringIcNS3_11char_traitsIcEENS3_9allocatorIcEEEE, symObjAddr: 0x150, symBinAddr: 0x2CE98, symSize: 0x2A8 }
  - { offsetInCU: 0x9693, offset: 0x219291, size: 0x8, addend: 0x0, symName: __ZNK8firebase9firestore5model4impl8BasePathINS1_12ResourcePathEEixEm, symObjAddr: 0x3F8, symBinAddr: 0x2D140, symSize: 0xA4 }
  - { offsetInCU: 0x9A39, offset: 0x219637, size: 0x8, addend: 0x0, symName: __ZNK8firebase9firestore5model10DatabaseId9CompareToERKS2_, symObjAddr: 0x508, symBinAddr: 0x2D1E4, symSize: 0x54 }
  - { offsetInCU: 0x9BE2, offset: 0x2197E0, size: 0x8, addend: 0x0, symName: __ZNK8firebase9firestore5model10DatabaseId8ToStringEv, symObjAddr: 0x55C, symBinAddr: 0x2D238, symSize: 0xBC }
  - { offsetInCU: 0x9DD4, offset: 0x2199D2, size: 0x8, addend: 0x0, symName: __ZNK8firebase9firestore5model10DatabaseId4HashEv, symObjAddr: 0x6A0, symBinAddr: 0x2D37C, symSize: 0x4C }
  - { offsetInCU: 0xA2BA, offset: 0x219EB8, size: 0x8, addend: 0x0, symName: __ZNSt3__120__shared_ptr_emplaceIN8firebase9firestore5model10DatabaseId3RepENS_9allocatorIS5_EEED1Ev, symObjAddr: 0x81C, symBinAddr: 0x2D420, symSize: 0x14 }
  - { offsetInCU: 0xA2DC, offset: 0x219EDA, size: 0x8, addend: 0x0, symName: __ZNSt3__120__shared_ptr_emplaceIN8firebase9firestore5model10DatabaseId3RepENS_9allocatorIS5_EEED1Ev, symObjAddr: 0x81C, symBinAddr: 0x2D420, symSize: 0x14 }
  - { offsetInCU: 0xA313, offset: 0x219F11, size: 0x8, addend: 0x0, symName: __ZNSt3__120__shared_ptr_emplaceIN8firebase9firestore5model10DatabaseId3RepENS_9allocatorIS5_EEED0Ev, symObjAddr: 0x830, symBinAddr: 0x2D434, symSize: 0x24 }
  - { offsetInCU: 0xA3AE, offset: 0x219FAC, size: 0x8, addend: 0x0, symName: __ZNSt3__120__shared_ptr_emplaceIN8firebase9firestore5model10DatabaseId3RepENS_9allocatorIS5_EEE16__on_zero_sharedEv, symObjAddr: 0x854, symBinAddr: 0x2D458, symSize: 0x44 }
  - { offsetInCU: 0xA683, offset: 0x21A281, size: 0x8, addend: 0x0, symName: __ZNSt3__120__shared_ptr_emplaceIN8firebase9firestore5model10DatabaseId3RepENS_9allocatorIS5_EEE21__on_zero_shared_weakEv, symObjAddr: 0x898, symBinAddr: 0x2D49C, symSize: 0x4 }
  - { offsetInCU: 0xA6B5, offset: 0x21A2B3, size: 0x8, addend: 0x0, symName: __ZNSt3__120__shared_ptr_emplaceIN8firebase9firestore5model10DatabaseId3RepENS_9allocatorIS5_EEE21__on_zero_shared_weakEv, symObjAddr: 0x898, symBinAddr: 0x2D49C, symSize: 0x4 }
  - { offsetInCU: 0xA6D8, offset: 0x21A2D6, size: 0x8, addend: 0x0, symName: __ZNSt3__120__shared_ptr_emplaceIN8firebase9firestore5model10DatabaseId3RepENS_9allocatorIS5_EEE21__on_zero_shared_weakEv, symObjAddr: 0x898, symBinAddr: 0x2D49C, symSize: 0x4 }
  - { offsetInCU: 0xA6FB, offset: 0x21A2F9, size: 0x8, addend: 0x0, symName: __ZNSt3__120__shared_ptr_emplaceIN8firebase9firestore5model10DatabaseId3RepENS_9allocatorIS5_EEE21__on_zero_shared_weakEv, symObjAddr: 0x898, symBinAddr: 0x2D49C, symSize: 0x4 }
  - { offsetInCU: 0xA728, offset: 0x21A326, size: 0x8, addend: 0x0, symName: __ZNSt3__120__shared_ptr_emplaceIN8firebase9firestore5model10DatabaseId3RepENS_9allocatorIS5_EEE21__on_zero_shared_weakEv, symObjAddr: 0x898, symBinAddr: 0x2D49C, symSize: 0x4 }
  - { offsetInCU: 0xA74F, offset: 0x21A34D, size: 0x8, addend: 0x0, symName: __ZNSt3__120__shared_ptr_emplaceIN8firebase9firestore5model10DatabaseId3RepENS_9allocatorIS5_EEE21__on_zero_shared_weakEv, symObjAddr: 0x898, symBinAddr: 0x2D49C, symSize: 0x4 }
  - { offsetInCU: 0x26, offset: 0x21B2A7, size: 0x8, addend: 0x0, symName: __ZN8firebase9firestore4core12DatabaseInfoC2ENS0_5model10DatabaseIdENSt3__112basic_stringIcNS5_11char_traitsIcEENS5_9allocatorIcEEEESB_b, symObjAddr: 0x0, symBinAddr: 0x2D51C, symSize: 0x44 }
  - { offsetInCU: 0x42B1, offset: 0x21F532, size: 0x8, addend: 0x0, symName: __ZN8firebase9firestore4core12DatabaseInfoC2ENS0_5model10DatabaseIdENSt3__112basic_stringIcNS5_11char_traitsIcEENS5_9allocatorIcEEEESB_b, symObjAddr: 0x0, symBinAddr: 0x2D51C, symSize: 0x44 }
  - { offsetInCU: 0x42F1, offset: 0x21F572, size: 0x8, addend: 0x0, symName: __ZN8firebase9firestore4core12DatabaseInfoC2ENS0_5model10DatabaseIdENSt3__112basic_stringIcNS5_11char_traitsIcEENS5_9allocatorIcEEEESB_b, symObjAddr: 0x0, symBinAddr: 0x2D51C, symSize: 0x44 }
  - { offsetInCU: 0x4313, offset: 0x21F594, size: 0x8, addend: 0x0, symName: __ZN8firebase9firestore4core12DatabaseInfoC2ENS0_5model10DatabaseIdENSt3__112basic_stringIcNS5_11char_traitsIcEENS5_9allocatorIcEEEESB_b, symObjAddr: 0x0, symBinAddr: 0x2D51C, symSize: 0x44 }
  - { offsetInCU: 0x4335, offset: 0x21F5B6, size: 0x8, addend: 0x0, symName: __ZN8firebase9firestore4core12DatabaseInfoC2ENS0_5model10DatabaseIdENSt3__112basic_stringIcNS5_11char_traitsIcEENS5_9allocatorIcEEEESB_b, symObjAddr: 0x0, symBinAddr: 0x2D51C, symSize: 0x44 }
  - { offsetInCU: 0x4357, offset: 0x21F5D8, size: 0x8, addend: 0x0, symName: __ZN8firebase9firestore4core12DatabaseInfoC2ENS0_5model10DatabaseIdENSt3__112basic_stringIcNS5_11char_traitsIcEENS5_9allocatorIcEEEESB_b, symObjAddr: 0x0, symBinAddr: 0x2D51C, symSize: 0x44 }
  - { offsetInCU: 0x4497, offset: 0x21F718, size: 0x8, addend: 0x0, symName: __ZN8firebase9firestore4core12DatabaseInfoC1ENS0_5model10DatabaseIdENSt3__112basic_stringIcNS5_11char_traitsIcEENS5_9allocatorIcEEEESB_b, symObjAddr: 0x44, symBinAddr: 0x2D560, symSize: 0x44 }
  - { offsetInCU: 0x4500, offset: 0x21F781, size: 0x8, addend: 0x0, symName: __ZN8firebase9firestore4core12DatabaseInfoC1ENS0_5model10DatabaseIdENSt3__112basic_stringIcNS5_11char_traitsIcEENS5_9allocatorIcEEEESB_b, symObjAddr: 0x44, symBinAddr: 0x2D560, symSize: 0x44 }
  - { offsetInCU: 0x4533, offset: 0x21F7B4, size: 0x8, addend: 0x0, symName: __ZN8firebase9firestore4core12DatabaseInfoC1ENS0_5model10DatabaseIdENSt3__112basic_stringIcNS5_11char_traitsIcEENS5_9allocatorIcEEEESB_b, symObjAddr: 0x44, symBinAddr: 0x2D560, symSize: 0x44 }
  - { offsetInCU: 0x4555, offset: 0x21F7D6, size: 0x8, addend: 0x0, symName: __ZN8firebase9firestore4core12DatabaseInfoC1ENS0_5model10DatabaseIdENSt3__112basic_stringIcNS5_11char_traitsIcEENS5_9allocatorIcEEEESB_b, symObjAddr: 0x44, symBinAddr: 0x2D560, symSize: 0x44 }
  - { offsetInCU: 0x4577, offset: 0x21F7F8, size: 0x8, addend: 0x0, symName: __ZN8firebase9firestore4core12DatabaseInfoC1ENS0_5model10DatabaseIdENSt3__112basic_stringIcNS5_11char_traitsIcEENS5_9allocatorIcEEEESB_b, symObjAddr: 0x44, symBinAddr: 0x2D560, symSize: 0x44 }
  - { offsetInCU: 0x4599, offset: 0x21F81A, size: 0x8, addend: 0x0, symName: __ZN8firebase9firestore4core12DatabaseInfoC1ENS0_5model10DatabaseIdENSt3__112basic_stringIcNS5_11char_traitsIcEENS5_9allocatorIcEEEESB_b, symObjAddr: 0x44, symBinAddr: 0x2D560, symSize: 0x44 }
  - { offsetInCU: 0xE8, offset: 0x21F9F7, size: 0x8, addend: 0x0, symName: __ZN8firebase9firestore6remote12_GLOBAL__N_119LogGrpcCallFinishedEN4absl12lts_2022062311string_viewEPNS1_8GrpcCallERKNS0_4util6StatusE, symObjAddr: 0x536C, symBinAddr: 0x31C04, symSize: 0x1D4 }
  - { offsetInCU: 0x30C4, offset: 0x2229D3, size: 0x8, addend: 0x0, symName: __ZN8firebase9firestore6remote14MakeByteBufferINS0_34_google_firestore_v1_CommitRequestEEEN4grpc10ByteBufferERKNS0_6nanopb7MessageIT_EE, symObjAddr: 0x12BC, symBinAddr: 0x2E860, symSize: 0x84 }
  - { offsetInCU: 0x3262, offset: 0x222B71, size: 0x8, addend: 0x0, symName: __ZN8firebase9firestore6remote14MakeByteBufferINS0_45_google_firestore_v1_BatchGetDocumentsRequestEEEN4grpc10ByteBufferERKNS0_6nanopb7MessageIT_EE, symObjAddr: 0x1B30, symBinAddr: 0x2F0D4, symSize: 0x84 }
  - { offsetInCU: 0x33AA, offset: 0x222CB9, size: 0x8, addend: 0x0, symName: __ZN8firebase9firestore6remote14MakeByteBufferINS0_47_google_firestore_v1_RunAggregationQueryRequestEEEN4grpc10ByteBufferERKNS0_6nanopb7MessageIT_EE, symObjAddr: 0x22A0, symBinAddr: 0x2F7CC, symSize: 0x84 }
  - { offsetInCU: 0x40B8, offset: 0x2239C7, size: 0x8, addend: 0x0, symName: __ZN8firebase9firestore4util17internal_statusor12PlacementNewINS0_11credentials9AuthTokenEJRKS5_EEEvPvDpOT0_, symObjAddr: 0x8A60, symBinAddr: 0x34FEC, symSize: 0x54 }
  - { offsetInCU: 0x52FA, offset: 0x224C09, size: 0x8, addend: 0x0, symName: __ZN8firebase9firestore4util12StringFormatIJNS0_5ErrorEEEENSt3__112basic_stringIcNS4_11char_traitsIcEENS4_9allocatorIcEEEEPKcDpRKT_, symObjAddr: 0x271C, symBinAddr: 0x2FC48, symSize: 0x7C }
  - { offsetInCU: 0x5588, offset: 0x224E97, size: 0x8, addend: 0x0, symName: __ZN8firebase9firestore4util12StringFormatIJN4absl12lts_2022062311string_viewENS0_5ErrorENSt3__112basic_stringIcNS7_11char_traitsIcEENS7_9allocatorIcEEEEEEESD_PKcDpRKT_, symObjAddr: 0x5540, symBinAddr: 0x31DD8, symSize: 0xAC }
  - { offsetInCU: 0x35DCE, offset: 0x2556DD, size: 0x8, addend: 0x0, symName: __ZNSt3__1L19piecewise_constructE, symObjAddr: 0xC3E4, symBinAddr: 0x17F09E, symSize: 0x0 }
  - { offsetInCU: 0x423C8, offset: 0x261CD7, size: 0x8, addend: 0x0, symName: __ZNSt3__115allocate_sharedB7v160006IN8firebase9firestore6remote11WatchStreamENS_9allocatorIS4_EEJRNS_10shared_ptrINS2_4util10AsyncQueueEEERNS7_INS2_11credentials19CredentialsProviderINSC_9AuthTokenENSC_4UserEEEEERNS7_INSD_INS_12basic_stringIcNS_11char_traitsIcEENS5_IcEEEESN_EEEERKNS3_10SerializerEPNS3_14GrpcConnectionERPNS3_19WatchStreamCallbackEEvEENS7_IT_EERKT0_DpOT1_, symObjAddr: 0x422C, symBinAddr: 0x30B10, symSize: 0x98 }
  - { offsetInCU: 0x427A4, offset: 0x2620B3, size: 0x8, addend: 0x0, symName: __ZNSt3__115allocate_sharedB7v160006IN8firebase9firestore6remote11WriteStreamENS_9allocatorIS4_EEJRNS_10shared_ptrINS2_4util10AsyncQueueEEERNS7_INS2_11credentials19CredentialsProviderINSC_9AuthTokenENSC_4UserEEEEERNS7_INSD_INS_12basic_stringIcNS_11char_traitsIcEENS5_IcEEEESN_EEEERKNS3_10SerializerEPNS3_14GrpcConnectionERPNS3_19WriteStreamCallbackEEvEENS7_IT_EERKT0_DpOT1_, symObjAddr: 0x4548, symBinAddr: 0x30E2C, symSize: 0x98 }
  - { offsetInCU: 0x43DD7, offset: 0x2636E6, size: 0x8, addend: 0x0, symName: __ZNSt3__115allocate_sharedB7v160006IN8firebase9firestore6remote9Datastore15CallCredentialsENS_9allocatorIS5_EEJEvEENS_10shared_ptrIT_EERKT0_DpOT1_, symObjAddr: 0x7E18, symBinAddr: 0x343A4, symSize: 0x48 }
  - { offsetInCU: 0x4474C, offset: 0x26405B, size: 0x8, addend: 0x0, symName: __ZNSt3__119__allocate_at_leastB7v160006INS_9allocatorINS_10unique_ptrIN8firebase9firestore6remote8GrpcCallENS_14default_deleteIS6_EEEEEEEENS_19__allocation_resultINS_16allocator_traitsIT_E7pointerEEERSD_m, symObjAddr: 0x5034, symBinAddr: 0x318CC, symSize: 0x34 }
  - { offsetInCU: 0x447F5, offset: 0x264104, size: 0x8, addend: 0x0, symName: __ZNSt3__114__split_bufferINS_10unique_ptrIN8firebase9firestore6remote8GrpcCallENS_14default_deleteIS5_EEEERNS_9allocatorIS8_EEED2Ev, symObjAddr: 0x5068, symBinAddr: 0x31900, symSize: 0x60 }
  - { offsetInCU: 0x468E5, offset: 0x2661F4, size: 0x8, addend: 0x0, symName: __ZNSt3__121__unwrap_and_dispatchB7v160006INS_10__overloadINS_11__move_loopINS_17_ClassicAlgPolicyEEENS_14__move_trivialEEEPNS_10unique_ptrIN8firebase9firestore6remote8GrpcCallENS_14default_deleteISB_EEEESF_SF_Li0EEENS_4pairIT0_T2_EESH_T1_SI_, symObjAddr: 0x92C8, symBinAddr: 0x35854, symSize: 0x70 }
  - { offsetInCU: 0x47DDB, offset: 0x2676EA, size: 0x8, addend: 0x0, symName: __ZNSt3__119__allocate_at_leastB7v160006INS_9allocatorIN8firebase9firestore5model8MutationEEEEENS_19__allocation_resultINS_16allocator_traitsIT_E7pointerEEERS9_m, symObjAddr: 0x4978, symBinAddr: 0x3125C, symSize: 0x34 }
  - { offsetInCU: 0x47E84, offset: 0x267793, size: 0x8, addend: 0x0, symName: __ZNSt3__110shared_ptrIN8firebase9firestore5model8Mutation3RepEED2B7v160006Ev, symObjAddr: 0x49AC, symBinAddr: 0x31290, symSize: 0x58 }
  - { offsetInCU: 0x4831E, offset: 0x267C2D, size: 0x8, addend: 0x0, symName: __ZNSt3__119__allocate_at_leastB7v160006INS_9allocatorIN8firebase9firestore5model11DocumentKeyEEEEENS_19__allocation_resultINS_16allocator_traitsIT_E7pointerEEERS9_m, symObjAddr: 0x57A4, symBinAddr: 0x31FD8, symSize: 0x34 }
  - { offsetInCU: 0x48981, offset: 0x268290, size: 0x8, addend: 0x0, symName: __ZNSt3__130__uninitialized_allocator_copyB7v160006INS_9allocatorIN8firebase9firestore5model14AggregateFieldEEEPS5_S7_S7_EET2_RT_T0_T1_S8_, symObjAddr: 0x669C, symBinAddr: 0x32D5C, symSize: 0xA8 }
  - { offsetInCU: 0x48B3D, offset: 0x26844C, size: 0x8, addend: 0x0, symName: __ZNSt3__119__allocate_at_leastB7v160006INS_9allocatorIN8firebase9firestore5model14AggregateFieldEEEEENS_19__allocation_resultINS_16allocator_traitsIT_E7pointerEEERS9_m, symObjAddr: 0x6654, symBinAddr: 0x32D14, symSize: 0x48 }
  - { offsetInCU: 0x48BE6, offset: 0x2684F5, size: 0x8, addend: 0x0, symName: __ZNSt3__130__uninitialized_allocator_copyB7v160006INS_9allocatorIN8firebase9firestore5model14AggregateFieldEEEPS5_S7_S7_EET2_RT_T0_T1_S8_, symObjAddr: 0x669C, symBinAddr: 0x32D5C, symSize: 0xA8 }
  - { offsetInCU: 0x49132, offset: 0x268A41, size: 0x8, addend: 0x0, symName: __ZNSt3__120__throw_bad_weak_ptrB7v160006Ev, symObjAddr: 0x7D8C, symBinAddr: 0x34318, symSize: 0x34 }
  - { offsetInCU: 0x4DA13, offset: 0x26D322, size: 0x8, addend: 0x0, symName: __ZN4absl12lts_2022062318container_internal10DeallocateILm8ENSt3__19allocatorINS3_4pairIKNS3_12basic_stringIcNS3_11char_traitsIcEENS4_IcEEEESA_EEEEEEvPT0_Pvm, symObjAddr: 0x3C78, symBinAddr: 0x306AC, symSize: 0x18 }
  - { offsetInCU: 0x4DB0F, offset: 0x26D41E, size: 0x8, addend: 0x0, symName: __ZN4absl12lts_2022062316allocator_traitsINSt3__19allocatorINS2_4pairIKNS2_12basic_stringIcNS2_11char_traitsIcEENS3_IcEEEES9_EEEEE12destroy_implINS4_IS9_S9_EEEEvcRSC_PT_, symObjAddr: 0x3C90, symBinAddr: 0x306C4, symSize: 0x44 }
  - { offsetInCU: 0x4E20A, offset: 0x26DB19, size: 0x8, addend: 0x0, symName: __ZN4absl12lts_2022062318container_internaleqERKNS1_12raw_hash_setINS1_17FlatHashMapPolicyINSt3__112basic_stringIcNS4_11char_traitsIcEENS4_9allocatorIcEEEESA_EENS1_10StringHashENS1_8StringEqENS8_INS4_4pairIKSA_SA_EEEEE8iteratorESL_, symObjAddr: 0x79D0, symBinAddr: 0x33F5C, symSize: 0x40 }
  - { offsetInCU: 0x4E2B3, offset: 0x26DBC2, size: 0x8, addend: 0x0, symName: __ZNSt3__14pairINS_12basic_stringIcNS_11char_traitsIcEENS_9allocatorIcEEEES6_EC2B7v160006IKS6_S6_LPv0EEERKNS0_IT_T0_EE, symObjAddr: 0x7A10, symBinAddr: 0x33F9C, symSize: 0x50 }
  - { offsetInCU: 0x4E3D0, offset: 0x26DCDF, size: 0x8, addend: 0x0, symName: __ZN4absl12lts_2022062318container_internal8AllocateILm8ENSt3__19allocatorINS3_4pairIKNS3_12basic_stringIcNS3_11char_traitsIcEENS4_IcEEEESA_EEEEEEPvPT0_m, symObjAddr: 0x7544, symBinAddr: 0x33AD0, symSize: 0x30 }
  - { offsetInCU: 0x4E4A4, offset: 0x26DDB3, size: 0x8, addend: 0x0, symName: __ZN4absl12lts_2022062318container_internal12raw_hash_setINS1_17FlatHashMapPolicyINSt3__112basic_stringIcNS4_11char_traitsIcEENS4_9allocatorIcEEEESA_EENS1_10StringHashENS1_8StringEqENS8_INS4_4pairIKSA_SA_EEEEE17reset_growth_leftEv, symObjAddr: 0x7574, symBinAddr: 0x33B00, symSize: 0x48 }
  - { offsetInCU: 0x5D1F7, offset: 0x27CB06, size: 0x8, addend: 0x0, symName: __ZN8firebase9firestore6remote9Datastore29GetAllowlistedHeadersAsStringERKNSt3__18multimapIN4grpc10string_refES6_NS3_4lessIS6_EENS3_9allocatorINS3_4pairIKS6_S6_EEEEEE, symObjAddr: 0x27DC, symBinAddr: 0x2FD08, symSize: 0x320 }
  - { offsetInCU: 0x5D21B, offset: 0x27CB2A, size: 0x8, addend: 0x0, symName: __ZZN8firebase9firestore6remote9Datastore29GetAllowlistedHeadersAsStringERKNSt3__18multimapIN4grpc10string_refES6_NS3_4lessIS6_EENS3_9allocatorINS3_4pairIKS6_S6_EEEEEEE9allowlist, symObjAddr: 0x305C90, symBinAddr: 0x242C50, symSize: 0x0 }
  - { offsetInCU: 0x5E4BD, offset: 0x27DDCC, size: 0x8, addend: 0x0, symName: __ZN8firebase9firestore6remote9Datastore5StartEv, symObjAddr: 0x348, symBinAddr: 0x2D8EC, symSize: 0xE0 }
  - { offsetInCU: 0x5E8DA, offset: 0x27E1E9, size: 0x8, addend: 0x0, symName: __ZN8firebase9firestore6remote9Datastore8ShutdownEv, symObjAddr: 0x428, symBinAddr: 0x2D9CC, symSize: 0xF8 }
  - { offsetInCU: 0x5EC2B, offset: 0x27E53A, size: 0x8, addend: 0x0, symName: __ZNSt3__110shared_ptrIN8firebase9firestore6remote11WatchStreamEE18__enable_weak_thisB7v160006INS3_6StreamES4_vEEvPKNS_23enable_shared_from_thisIT_EEPT0_, symObjAddr: 0x4498, symBinAddr: 0x30D7C, symSize: 0xB0 }
  - { offsetInCU: 0x5EFC8, offset: 0x27E8D7, size: 0x8, addend: 0x0, symName: __ZNSt3__110shared_ptrIN8firebase9firestore6remote11WriteStreamEE18__enable_weak_thisB7v160006INS3_6StreamES4_vEEvPKNS_23enable_shared_from_thisIT_EEPT0_, symObjAddr: 0x47B4, symBinAddr: 0x31098, symSize: 0xB0 }
  - { offsetInCU: 0x5F316, offset: 0x27EC25, size: 0x8, addend: 0x0, symName: __ZN8firebase9firestore6remote9Datastore15CommitMutationsERKNSt3__16vectorINS0_5model8MutationENS3_9allocatorIS6_EEEEONS3_8functionIFvRKNS0_4util6StatusEEEE, symObjAddr: 0x6DC, symBinAddr: 0x2DC80, symSize: 0x194 }
  - { offsetInCU: 0x5FD40, offset: 0x27F64F, size: 0x8, addend: 0x0, symName: __ZN8firebase9firestore6remote9Datastore30CommitMutationsWithCredentialsERKNS0_11credentials9AuthTokenERKNSt3__112basic_stringIcNS7_11char_traitsIcEENS7_9allocatorIcEEEERKNS7_6vectorINS0_5model8MutationENSB_ISI_EEEEONS7_8functionIFvRKNS0_4util6StatusEEEE, symObjAddr: 0xF70, symBinAddr: 0x2E514, symSize: 0x34C }
  - { offsetInCU: 0x60ECD, offset: 0x2807DC, size: 0x8, addend: 0x0, symName: __ZN8firebase9firestore6remote9Datastore15LookupDocumentsERKNSt3__16vectorINS0_5model11DocumentKeyENS3_9allocatorIS6_EEEEONS3_8functionIFvRKNS0_4util8StatusOrINS4_INS5_8DocumentENS7_ISF_EEEEEEEEE, symObjAddr: 0x1340, symBinAddr: 0x2E8E4, symSize: 0x194 }
  - { offsetInCU: 0x618BB, offset: 0x2811CA, size: 0x8, addend: 0x0, symName: __ZN8firebase9firestore6remote9Datastore30LookupDocumentsWithCredentialsERKNS0_11credentials9AuthTokenERKNSt3__112basic_stringIcNS7_11char_traitsIcEENS7_9allocatorIcEEEERKNS7_6vectorINS0_5model11DocumentKeyENSB_ISI_EEEEONS7_8functionIFvRKNS0_4util8StatusOrINSG_INSH_8DocumentENSB_ISQ_EEEEEEEEE, symObjAddr: 0x152C, symBinAddr: 0x2EAD0, symSize: 0x604 }
  - { offsetInCU: 0x637E6, offset: 0x2830F5, size: 0x8, addend: 0x0, symName: __ZN8firebase9firestore6remote9Datastore17RunAggregateQueryERKNS0_4core5QueryERKNSt3__16vectorINS0_5model14AggregateFieldENS7_9allocatorISA_EEEEONS7_8functionIFvRKNS0_4util8StatusOrINS9_11ObjectValueEEEEEE, symObjAddr: 0x1BB4, symBinAddr: 0x2F158, symSize: 0x1EC }
  - { offsetInCU: 0x643E3, offset: 0x283CF2, size: 0x8, addend: 0x0, symName: __ZN8firebase9firestore6remote9Datastore32RunAggregateQueryWithCredentialsERKNS0_11credentials9AuthTokenERKNSt3__112basic_stringIcNS7_11char_traitsIcEENS7_9allocatorIcEEEERKNS0_4core5QueryERKNS7_6vectorINS0_5model14AggregateFieldENSB_ISM_EEEEONS7_8functionIFvRKNS0_4util8StatusOrINSL_11ObjectValueEEEEEE, symObjAddr: 0x1ED4, symBinAddr: 0x2F400, symSize: 0x3CC }
  - { offsetInCU: 0x65ABB, offset: 0x2853CA, size: 0x8, addend: 0x0, symName: __ZN8firebase9firestore6remote9Datastore24ResumeRpcWithCredentialsERKNSt3__18functionIFvRKNS0_4util8StatusOrINS0_11credentials9AuthTokenEEERKNS3_12basic_stringIcNS3_11char_traitsIcEENS3_9allocatorIcEEEEEEE, symObjAddr: 0x870, symBinAddr: 0x2DE14, symSize: 0x6A8 }
  - { offsetInCU: 0x67AD9, offset: 0x2873E8, size: 0x8, addend: 0x0, symName: '__ZZN8firebase9firestore6remote9Datastore24ResumeRpcWithCredentialsERKNSt3__18functionIFvRKNS0_4util8StatusOrINS0_11credentials9AuthTokenEEERKNS3_12basic_stringIcNS3_11char_traitsIcEENS3_9allocatorIcEEEEEEEENK3$_9clERKN4absl12lts_202206238optionalIS9_EERKNSR_ISH_EE', symObjAddr: 0x84FC, symBinAddr: 0x34A88, symSize: 0x39C }
  - { offsetInCU: 0x6B551, offset: 0x28AE60, size: 0x8, addend: 0x0, symName: __ZN8firebase9firestore6remote9DatastoreC2ERKNS0_4core12DatabaseInfoERKNSt3__110shared_ptrINS0_4util10AsyncQueueEEENS8_INS0_11credentials19CredentialsProviderINSE_9AuthTokenENSE_4UserEEEEENS8_INSF_INS7_12basic_stringIcNS7_11char_traitsIcEENS7_9allocatorIcEEEESP_EEEEPNS1_19ConnectivityMonitorEPNS1_24FirebaseMetadataProviderE, symObjAddr: 0x0, symBinAddr: 0x2D5A4, symSize: 0x2B4 }
  - { offsetInCU: 0x6BF33, offset: 0x28B842, size: 0x8, addend: 0x0, symName: __ZN4grpc15CompletionQueueC2ERK32grpc_completion_queue_attributes, symObjAddr: 0x2B14, symBinAddr: 0x30040, symSize: 0xF8 }
  - { offsetInCU: 0x6C3BA, offset: 0x28BCC9, size: 0x8, addend: 0x0, symName: __ZNSt3__110shared_ptrIN8firebase9firestore11credentials19CredentialsProviderINS_12basic_stringIcNS_11char_traitsIcEENS_9allocatorIcEEEESA_EEED2B7v160006Ev, symObjAddr: 0x3F48, symBinAddr: 0x30874, symSize: 0x58 }
  - { offsetInCU: 0x6C420, offset: 0x28BD2F, size: 0x8, addend: 0x0, symName: __ZNSt3__16vectorINS_10unique_ptrIN8firebase9firestore6remote8GrpcCallENS_14default_deleteIS5_EEEENS_9allocatorIS8_EEED2B7v160006Ev, symObjAddr: 0x3FF8, symBinAddr: 0x30924, symSize: 0x38 }
  - { offsetInCU: 0x6C4AA, offset: 0x28BDB9, size: 0x8, addend: 0x0, symName: __ZN8firebase9firestore6remote14GrpcConnectionD1Ev, symObjAddr: 0x2B4, symBinAddr: 0x2D858, symSize: 0x4C }
  - { offsetInCU: 0x6C6DB, offset: 0x28BFEA, size: 0x8, addend: 0x0, symName: __ZN8firebase9firestore4core12DatabaseInfoD1Ev, symObjAddr: 0x300, symBinAddr: 0x2D8A4, symSize: 0x40 }
  - { offsetInCU: 0x6C9DA, offset: 0x28C2E9, size: 0x8, addend: 0x0, symName: __ZN4grpc15CompletionQueueD2Ev, symObjAddr: 0x2EF4, symBinAddr: 0x303BC, symSize: 0x70 }
  - { offsetInCU: 0x6CACF, offset: 0x28C3DE, size: 0x8, addend: 0x0, symName: __ZNSt3__110shared_ptrIN8firebase9firestore11credentials19CredentialsProviderINS3_9AuthTokenENS3_4UserEEEED2B7v160006Ev, symObjAddr: 0x3FA0, symBinAddr: 0x308CC, symSize: 0x58 }
  - { offsetInCU: 0x6CB59, offset: 0x28C468, size: 0x8, addend: 0x0, symName: __ZNSt3__110shared_ptrIN8firebase9firestore11credentials19CredentialsProviderINS_12basic_stringIcNS_11char_traitsIcEENS_9allocatorIcEEEESA_EEED2B7v160006Ev, symObjAddr: 0x3F48, symBinAddr: 0x30874, symSize: 0x58 }
  - { offsetInCU: 0x6CD95, offset: 0x28C6A4, size: 0x8, addend: 0x0, symName: __ZNSt3__110unique_ptrIN4grpc20TemplatedGenericStubINS1_10ByteBufferES3_EENS_14default_deleteIS4_EEE5resetB7v160006EPS4_, symObjAddr: 0x2E18, symBinAddr: 0x302E0, symSize: 0x2C }
  - { offsetInCU: 0x6CE5A, offset: 0x28C769, size: 0x8, addend: 0x0, symName: __ZNSt3__110shared_ptrIN4grpc7ChannelEED2B7v160006Ev, symObjAddr: 0x2E9C, symBinAddr: 0x30364, symSize: 0x58 }
  - { offsetInCU: 0x6CF07, offset: 0x28C816, size: 0x8, addend: 0x0, symName: __ZN4grpc15CompletionQueueD1Ev, symObjAddr: 0x340, symBinAddr: 0x2D8E4, symSize: 0x4 }
  - { offsetInCU: 0x6CF2A, offset: 0x28C839, size: 0x8, addend: 0x0, symName: __ZN4grpc15CompletionQueueD1Ev, symObjAddr: 0x340, symBinAddr: 0x2D8E4, symSize: 0x4 }
  - { offsetInCU: 0x6CF3D, offset: 0x28C84C, size: 0x8, addend: 0x0, symName: __ZN8firebase9firestore6remote9DatastoreC1ERKNS0_4core12DatabaseInfoERKNSt3__110shared_ptrINS0_4util10AsyncQueueEEENS8_INS0_11credentials19CredentialsProviderINSE_9AuthTokenENSE_4UserEEEEENS8_INSF_INS7_12basic_stringIcNS7_11char_traitsIcEENS7_9allocatorIcEEEESP_EEEEPNS1_19ConnectivityMonitorEPNS1_24FirebaseMetadataProviderE, symObjAddr: 0x344, symBinAddr: 0x2D8E8, symSize: 0x4 }
  - { offsetInCU: 0x6CFBA, offset: 0x28C8C9, size: 0x8, addend: 0x0, symName: __ZN8firebase9firestore6remote9DatastoreC1ERKNS0_4core12DatabaseInfoERKNSt3__110shared_ptrINS0_4util10AsyncQueueEEENS8_INS0_11credentials19CredentialsProviderINSE_9AuthTokenENSE_4UserEEEEENS8_INSF_INS7_12basic_stringIcNS7_11char_traitsIcEENS7_9allocatorIcEEEESP_EEEEPNS1_19ConnectivityMonitorEPNS1_24FirebaseMetadataProviderE, symObjAddr: 0x344, symBinAddr: 0x2D8E8, symSize: 0x4 }
  - { offsetInCU: 0x6D430, offset: 0x28CD3F, size: 0x8, addend: 0x0, symName: __ZN8firebase9firestore6remote9Datastore13PollGrpcQueueEv, symObjAddr: 0x520, symBinAddr: 0x2DAC4, symSize: 0x134 }
  - { offsetInCU: 0x6D5E8, offset: 0x28CEF7, size: 0x8, addend: 0x0, symName: __ZN8firebase9firestore6remote9Datastore17CreateWatchStreamEPNS1_19WatchStreamCallbackE, symObjAddr: 0x654, symBinAddr: 0x2DBF8, symSize: 0x44 }
  - { offsetInCU: 0x6D68D, offset: 0x28CF9C, size: 0x8, addend: 0x0, symName: __ZN8firebase9firestore6remote9Datastore17CreateWriteStreamEPNS1_19WriteStreamCallbackE, symObjAddr: 0x698, symBinAddr: 0x2DC3C, symSize: 0x44 }
  - { offsetInCU: 0x6DE65, offset: 0x28D774, size: 0x8, addend: 0x0, symName: __ZNSt3__16vectorIN8firebase9firestore5model8MutationENS_9allocatorIS4_EEEC2ERKS7_, symObjAddr: 0x4864, symBinAddr: 0x31148, symSize: 0xC0 }
  - { offsetInCU: 0x6E204, offset: 0x28DB13, size: 0x8, addend: 0x0, symName: __ZNSt3__110__function12__value_funcIFvRKN8firebase9firestore4util6StatusEEEC2B7v160006ERKS9_, symObjAddr: 0x4AA8, symBinAddr: 0x3138C, symSize: 0x64 }
  - { offsetInCU: 0x6E25D, offset: 0x28DB6C, size: 0x8, addend: 0x0, symName: __ZNSt3__110__function12__value_funcIFvRKN8firebase9firestore4util6StatusEEEC2B7v160006EOS9_, symObjAddr: 0x4DB4, symBinAddr: 0x31698, symSize: 0x64 }
  - { offsetInCU: 0x6E2AA, offset: 0x28DBB9, size: 0x8, addend: 0x0, symName: __ZNSt3__16vectorIN8firebase9firestore5model8MutationENS_9allocatorIS4_EEED2B7v160006Ev, symObjAddr: 0x4B0C, symBinAddr: 0x313F0, symSize: 0x38 }
  - { offsetInCU: 0x6E334, offset: 0x28DC43, size: 0x8, addend: 0x0, symName: '__ZZN8firebase9firestore6remote9Datastore15CommitMutationsERKNSt3__16vectorINS0_5model8MutationENS3_9allocatorIS6_EEEEONS3_8functionIFvRKNS0_4util6StatusEEEEEN3$_2D1Ev', symObjAddr: 0xF18, symBinAddr: 0x2E4BC, symSize: 0x58 }
  - { offsetInCU: 0x6F391, offset: 0x28ECA0, size: 0x8, addend: 0x0, symName: __ZNSt3__110shared_ptrIN8firebase9firestore6remote9DatastoreEEC2B7v160006IS4_vEERKNS_8weak_ptrIT_EE, symObjAddr: 0x7D4C, symBinAddr: 0x342D8, symSize: 0x40 }
  - { offsetInCU: 0x6F3CE, offset: 0x28ECDD, size: 0x8, addend: 0x0, symName: __ZNSt3__120__throw_bad_weak_ptrB7v160006Ev, symObjAddr: 0x7D8C, symBinAddr: 0x34318, symSize: 0x34 }
  - { offsetInCU: 0x6F3E4, offset: 0x28ECF3, size: 0x8, addend: 0x0, symName: __ZNSt3__110__function12__value_funcIFvRKN8firebase9firestore4util8StatusOrINS3_11credentials9AuthTokenEEERKNS_12basic_stringIcNS_11char_traitsIcEENS_9allocatorIcEEEEEEC2B7v160006ERKSK_, symObjAddr: 0x811C, symBinAddr: 0x346A8, symSize: 0x64 }
  - { offsetInCU: 0x6F42E, offset: 0x28ED3D, size: 0x8, addend: 0x0, symName: __ZNSt3__110shared_ptrIN8firebase9firestore6remote9Datastore15CallCredentialsEED2B7v160006Ev, symObjAddr: 0x80C4, symBinAddr: 0x34650, symSize: 0x58 }
  - { offsetInCU: 0x6F4B8, offset: 0x28EDC7, size: 0x8, addend: 0x0, symName: '__ZZN8firebase9firestore6remote9Datastore24ResumeRpcWithCredentialsERKNSt3__18functionIFvRKNS0_4util8StatusOrINS0_11credentials9AuthTokenEEERKNS3_12basic_stringIcNS3_11char_traitsIcEENS3_9allocatorIcEEEEEEEEN4$_11D1Ev', symObjAddr: 0x23E4, symBinAddr: 0x2F910, symSize: 0x64 }
  - { offsetInCU: 0x6F624, offset: 0x28EF33, size: 0x8, addend: 0x0, symName: '__ZZN8firebase9firestore6remote9Datastore24ResumeRpcWithCredentialsERKNSt3__18functionIFvRKNS0_4util8StatusOrINS0_11credentials9AuthTokenEEERKNS3_12basic_stringIcNS3_11char_traitsIcEENS3_9allocatorIcEEEEEEEEN4$_10D1Ev', symObjAddr: 0x2380, symBinAddr: 0x2F8AC, symSize: 0x64 }
  - { offsetInCU: 0x6F790, offset: 0x28F09F, size: 0x8, addend: 0x0, symName: '__ZZN8firebase9firestore6remote9Datastore24ResumeRpcWithCredentialsERKNSt3__18functionIFvRKNS0_4util8StatusOrINS0_11credentials9AuthTokenEEERKNS3_12basic_stringIcNS3_11char_traitsIcEENS3_9allocatorIcEEEEEEEEN3$_9D1Ev', symObjAddr: 0x2448, symBinAddr: 0x2F974, symSize: 0x64 }
  - { offsetInCU: 0x70409, offset: 0x28FD18, size: 0x8, addend: 0x0, symName: __ZN8firebase9firestore6nanopb7MessageINS0_34_google_firestore_v1_CommitRequestEED2Ev, symObjAddr: 0x4ECC, symBinAddr: 0x31764, symSize: 0x3C }
  - { offsetInCU: 0x70463, offset: 0x28FD72, size: 0x8, addend: 0x0, symName: __ZNSt3__114__split_bufferINS_10unique_ptrIN8firebase9firestore6remote8GrpcCallENS_14default_deleteIS5_EEEERNS_9allocatorIS8_EEED2Ev, symObjAddr: 0x5068, symBinAddr: 0x31900, symSize: 0x60 }
  - { offsetInCU: 0x70647, offset: 0x28FF56, size: 0x8, addend: 0x0, symName: __ZNKSt3__16vectorINS_10unique_ptrIN8firebase9firestore6remote8GrpcCallENS_14default_deleteIS5_EEEENS_9allocatorIS8_EEE20__throw_length_errorB7v160006Ev, symObjAddr: 0x5020, symBinAddr: 0x318B8, symSize: 0x14 }
  - { offsetInCU: 0x7066F, offset: 0x28FF7E, size: 0x8, addend: 0x0, symName: __ZNSt3__119__allocate_at_leastB7v160006INS_9allocatorINS_10unique_ptrIN8firebase9firestore6remote8GrpcCallENS_14default_deleteIS6_EEEEEEEENS_19__allocation_resultINS_16allocator_traitsIT_E7pointerEEERSD_m, symObjAddr: 0x5034, symBinAddr: 0x318CC, symSize: 0x34 }
  - { offsetInCU: 0x7067A, offset: 0x28FF89, size: 0x8, addend: 0x0, symName: __ZN4grpc10ByteBufferD2Ev, symObjAddr: 0x2F64, symBinAddr: 0x3042C, symSize: 0x44 }
  - { offsetInCU: 0x707A8, offset: 0x2900B7, size: 0x8, addend: 0x0, symName: __ZNSt3__16vectorIN4grpc5SliceENS_9allocatorIS2_EEED2B7v160006Ev, symObjAddr: 0x4F08, symBinAddr: 0x317A0, symSize: 0x38 }
  - { offsetInCU: 0x70EF8, offset: 0x290807, size: 0x8, addend: 0x0, symName: __ZNSt3__16vectorIN8firebase9firestore5model11DocumentKeyENS_9allocatorIS4_EEEC2ERKS7_, symObjAddr: 0x5690, symBinAddr: 0x31EC4, symSize: 0xC0 }
  - { offsetInCU: 0x71297, offset: 0x290BA6, size: 0x8, addend: 0x0, symName: __ZNSt3__110__function12__value_funcIFvRKN8firebase9firestore4util8StatusOrINS_6vectorINS3_5model8DocumentENS_9allocatorIS8_EEEEEEEEC2B7v160006ERKSG_, symObjAddr: 0x58D4, symBinAddr: 0x320B0, symSize: 0x64 }
  - { offsetInCU: 0x712E1, offset: 0x290BF0, size: 0x8, addend: 0x0, symName: __ZNSt3__110__function12__value_funcIFvRKN8firebase9firestore4util8StatusOrINS_6vectorINS3_5model8DocumentENS_9allocatorIS8_EEEEEEEEC2B7v160006EOSG_, symObjAddr: 0x5C28, symBinAddr: 0x32404, symSize: 0x64 }
  - { offsetInCU: 0x7132E, offset: 0x290C3D, size: 0x8, addend: 0x0, symName: __ZNSt3__16vectorIN8firebase9firestore5model11DocumentKeyENS_9allocatorIS4_EEED2B7v160006Ev, symObjAddr: 0x5938, symBinAddr: 0x32114, symSize: 0x38 }
  - { offsetInCU: 0x713B8, offset: 0x290CC7, size: 0x8, addend: 0x0, symName: '__ZZN8firebase9firestore6remote9Datastore15LookupDocumentsERKNSt3__16vectorINS0_5model11DocumentKeyENS3_9allocatorIS6_EEEEONS3_8functionIFvRKNS0_4util8StatusOrINS4_INS5_8DocumentENS7_ISF_EEEEEEEEEEN3$_4D1Ev', symObjAddr: 0x14D4, symBinAddr: 0x2EA78, symSize: 0x58 }
  - { offsetInCU: 0x7203B, offset: 0x29194A, size: 0x8, addend: 0x0, symName: __ZN8firebase9firestore6nanopb7MessageINS0_45_google_firestore_v1_BatchGetDocumentsRequestEED2Ev, symObjAddr: 0x5F78, symBinAddr: 0x32638, symSize: 0x3C }
  - { offsetInCU: 0x728AC, offset: 0x2921BB, size: 0x8, addend: 0x0, symName: __ZN8firebase9firestore4core5QueryC2ERKS2_, symObjAddr: 0x2FA8, symBinAddr: 0x30470, symSize: 0x180 }
  - { offsetInCU: 0x731F8, offset: 0x292B07, size: 0x8, addend: 0x0, symName: __ZNSt3__16vectorIN8firebase9firestore5model14AggregateFieldENS_9allocatorIS4_EEEC2ERKS7_, symObjAddr: 0x6530, symBinAddr: 0x32BF0, symSize: 0xBC }
  - { offsetInCU: 0x73454, offset: 0x292D63, size: 0x8, addend: 0x0, symName: __ZNSt3__110__function12__value_funcIFvRKN8firebase9firestore4util8StatusOrINS3_5model11ObjectValueEEEEEC2B7v160006ERKSC_, symObjAddr: 0x6928, symBinAddr: 0x32F28, symSize: 0x64 }
  - { offsetInCU: 0x734AD, offset: 0x292DBC, size: 0x8, addend: 0x0, symName: __ZNSt3__110__function12__value_funcIFvRKN8firebase9firestore4util8StatusOrINS3_5model11ObjectValueEEEEEC2B7v160006EOSC_, symObjAddr: 0x6BA0, symBinAddr: 0x33168, symSize: 0x64 }
  - { offsetInCU: 0x734FA, offset: 0x292E09, size: 0x8, addend: 0x0, symName: '__ZZN8firebase9firestore6remote9Datastore17RunAggregateQueryERKNS0_4core5QueryERKNSt3__16vectorINS0_5model14AggregateFieldENS7_9allocatorISA_EEEEONS7_8functionIFvRKNS0_4util8StatusOrINS9_11ObjectValueEEEEEEEN3$_7D1Ev', symObjAddr: 0x1E18, symBinAddr: 0x2F344, symSize: 0xBC }
  - { offsetInCU: 0x73B9D, offset: 0x2934AC, size: 0x8, addend: 0x0, symName: __ZN8firebase9firestore6remote9Datastore17RunAggregateQueryERKNS0_4core5QueryERKNSt3__16vectorINS0_5model14AggregateFieldENS7_9allocatorISA_EEEEONS7_8functionIFvRKNS0_4util8StatusOrINS9_11ObjectValueEEEEEE.cold.1, symObjAddr: 0xA0BC, symBinAddr: 0x176C0C, symSize: 0x54 }
  - { offsetInCU: 0x74C41, offset: 0x294550, size: 0x8, addend: 0x0, symName: __ZN8firebase9firestore6nanopb7MessageINS0_47_google_firestore_v1_RunAggregationQueryRequestEED2Ev, symObjAddr: 0x6D8C, symBinAddr: 0x33318, symSize: 0x3C }
  - { offsetInCU: 0x74C9B, offset: 0x2945AA, size: 0x8, addend: 0x0, symName: __ZN4absl12lts_2022062318container_internal12raw_hash_setINS1_17FlatHashMapPolicyINSt3__112basic_stringIcNS4_11char_traitsIcEENS4_9allocatorIcEEEESA_EENS1_10StringHashENS1_8StringEqENS8_INS4_4pairIKSA_SA_EEEEE13destroy_slotsEv, symObjAddr: 0x3BBC, symBinAddr: 0x305F0, symSize: 0xBC }
  - { offsetInCU: 0x74E0E, offset: 0x29471D, size: 0x8, addend: 0x0, symName: __ZN4absl12lts_2022062318container_internal10DeallocateILm8ENSt3__19allocatorINS3_4pairIKNS3_12basic_stringIcNS3_11char_traitsIcEENS4_IcEEEESA_EEEEEEvPT0_Pvm, symObjAddr: 0x3C78, symBinAddr: 0x306AC, symSize: 0x18 }
  - { offsetInCU: 0x74E19, offset: 0x294728, size: 0x8, addend: 0x0, symName: '__ZZN8firebase9firestore6remote9Datastore32RunAggregateQueryWithCredentialsERKNS0_11credentials9AuthTokenERKNSt3__112basic_stringIcNS7_11char_traitsIcEENS7_9allocatorIcEEEERKNS0_4core5QueryERKNS7_6vectorINS0_5model14AggregateFieldENSB_ISM_EEEEONS7_8functionIFvRKNS0_4util8StatusOrINSL_11ObjectValueEEEEEEEN3$_8D1Ev', symObjAddr: 0x2324, symBinAddr: 0x2F850, symSize: 0x5C }
  - { offsetInCU: 0x74FA5, offset: 0x2948B4, size: 0x8, addend: 0x0, symName: __ZN8firebase9firestore6remote9Datastore16HandleCallStatusERKNS0_4util6StatusE, symObjAddr: 0x24AC, symBinAddr: 0x2F9D8, symSize: 0x5C }
  - { offsetInCU: 0x750B7, offset: 0x2949C6, size: 0x8, addend: 0x0, symName: __ZN8firebase9firestore6remote9Datastore14RemoveGrpcCallEPNS1_8GrpcCallE, symObjAddr: 0x2508, symBinAddr: 0x2FA34, symSize: 0xF4 }
  - { offsetInCU: 0x756E8, offset: 0x294FF7, size: 0x8, addend: 0x0, symName: __ZN8firebase9firestore6remote9Datastore14IsAbortedErrorERKNS0_4util6StatusE, symObjAddr: 0x25FC, symBinAddr: 0x2FB28, symSize: 0x24 }
  - { offsetInCU: 0x7571E, offset: 0x29502D, size: 0x8, addend: 0x0, symName: __ZN8firebase9firestore6remote9Datastore14IsAbortedErrorERKNS0_4util6StatusE, symObjAddr: 0x25FC, symBinAddr: 0x2FB28, symSize: 0x24 }
  - { offsetInCU: 0x75739, offset: 0x295048, size: 0x8, addend: 0x0, symName: __ZN8firebase9firestore6remote9Datastore14IsAbortedErrorERKNS0_4util6StatusE, symObjAddr: 0x25FC, symBinAddr: 0x2FB28, symSize: 0x24 }
  - { offsetInCU: 0x7575B, offset: 0x29506A, size: 0x8, addend: 0x0, symName: __ZN8firebase9firestore6remote9Datastore14IsAbortedErrorERKNS0_4util6StatusE, symObjAddr: 0x25FC, symBinAddr: 0x2FB28, symSize: 0x24 }
  - { offsetInCU: 0x75779, offset: 0x295088, size: 0x8, addend: 0x0, symName: __ZN8firebase9firestore6remote9Datastore16IsPermanentErrorERKNS0_4util6StatusE, symObjAddr: 0x2620, symBinAddr: 0x2FB4C, symSize: 0xFC }
  - { offsetInCU: 0x75A34, offset: 0x295343, size: 0x8, addend: 0x0, symName: __ZNSt3__16__treeINS_12__value_typeIN4grpc10string_refES3_EENS_19__map_value_compareIS3_S4_NS_4lessIS3_EELb1EEENS_9allocatorIS4_EEE7destroyEPNS_11__tree_nodeIS4_PvEE, symObjAddr: 0x5650, symBinAddr: 0x31E84, symSize: 0x40 }
  - { offsetInCU: 0x75A56, offset: 0x295365, size: 0x8, addend: 0x0, symName: __ZN8firebase9firestore6remote9Datastore21IsPermanentWriteErrorERKNS0_4util6StatusE, symObjAddr: 0x2798, symBinAddr: 0x2FCC4, symSize: 0x44 }
  - { offsetInCU: 0x75EF6, offset: 0x295805, size: 0x8, addend: 0x0, symName: __ZNSt3__112basic_stringIcNS_11char_traitsIcEENS_9allocatorIcEEEC2B7v160006EPKcm, symObjAddr: 0x3CD4, symBinAddr: 0x30708, symSize: 0x94 }
  - { offsetInCU: 0x76255, offset: 0x295B64, size: 0x8, addend: 0x0, symName: __ZNKSt3__112__hash_tableINS_12basic_stringIcNS_11char_traitsIcEENS_9allocatorIcEEEENS_4hashIS6_EENS_8equal_toIS6_EENS4_IS6_EEE4findIS6_EENS_21__hash_const_iteratorIPNS_11__hash_nodeIS6_PvEEEERKT_, symObjAddr: 0x9FBC, symBinAddr: 0x35FA0, symSize: 0x100 }
  - { offsetInCU: 0x763FA, offset: 0x295D09, size: 0x8, addend: 0x0, symName: __ZNSt3__113unordered_setINS_12basic_stringIcNS_11char_traitsIcEENS_9allocatorIcEEEENS_4hashIS6_EENS_8equal_toIS6_EENS4_IS6_EEEC2ESt16initializer_listIS6_E, symObjAddr: 0x9338, symBinAddr: 0x358C4, symSize: 0x78 }
  - { offsetInCU: 0x76606, offset: 0x295F15, size: 0x8, addend: 0x0, symName: __ZNSt3__112__hash_tableINS_12basic_stringIcNS_11char_traitsIcEENS_9allocatorIcEEEENS_4hashIS6_EENS_8equal_toIS6_EENS4_IS6_EEEC2EOSC_, symObjAddr: 0x9F4C, symBinAddr: 0x35F30, symSize: 0x70 }
  - { offsetInCU: 0x76642, offset: 0x295F51, size: 0x8, addend: 0x0, symName: __ZNSt3__112__hash_tableINS_12basic_stringIcNS_11char_traitsIcEENS_9allocatorIcEEEENS_4hashIS6_EENS_8equal_toIS6_EENS4_IS6_EEEC2EOSC_, symObjAddr: 0x9F4C, symBinAddr: 0x35F30, symSize: 0x70 }
  - { offsetInCU: 0x76665, offset: 0x295F74, size: 0x8, addend: 0x0, symName: __ZNSt3__112__hash_tableINS_12basic_stringIcNS_11char_traitsIcEENS_9allocatorIcEEEENS_4hashIS6_EENS_8equal_toIS6_EENS4_IS6_EEEC2EOSC_, symObjAddr: 0x9F4C, symBinAddr: 0x35F30, symSize: 0x70 }
  - { offsetInCU: 0x76688, offset: 0x295F97, size: 0x8, addend: 0x0, symName: __ZNSt3__112__hash_tableINS_12basic_stringIcNS_11char_traitsIcEENS_9allocatorIcEEEENS_4hashIS6_EENS_8equal_toIS6_EENS4_IS6_EEEC2EOSC_, symObjAddr: 0x9F4C, symBinAddr: 0x35F30, symSize: 0x70 }
  - { offsetInCU: 0x76800, offset: 0x29610F, size: 0x8, addend: 0x0, symName: __ZNSt3__112__hash_tableINS_12basic_stringIcNS_11char_traitsIcEENS_9allocatorIcEEEENS_4hashIS6_EENS_8equal_toIS6_EENS4_IS6_EEED2Ev, symObjAddr: 0x9ED0, symBinAddr: 0x35EB4, symSize: 0x38 }
  - { offsetInCU: 0x7697B, offset: 0x29628A, size: 0x8, addend: 0x0, symName: __ZN8firebase9firestore6remote9DatastoreD1Ev, symObjAddr: 0x2AFC, symBinAddr: 0x30028, symSize: 0x4 }
  - { offsetInCU: 0x7699E, offset: 0x2962AD, size: 0x8, addend: 0x0, symName: __ZN8firebase9firestore6remote9DatastoreD1Ev, symObjAddr: 0x2AFC, symBinAddr: 0x30028, symSize: 0x4 }
  - { offsetInCU: 0x769B1, offset: 0x2962C0, size: 0x8, addend: 0x0, symName: __ZN8firebase9firestore6remote9DatastoreD2Ev, symObjAddr: 0x3D7C, symBinAddr: 0x3079C, symSize: 0xD8 }
  - { offsetInCU: 0x771D6, offset: 0x296AE5, size: 0x8, addend: 0x0, symName: __ZN8firebase9firestore6remote9DatastoreD0Ev, symObjAddr: 0x2B00, symBinAddr: 0x3002C, symSize: 0x14 }
  - { offsetInCU: 0x7743E, offset: 0x296D4D, size: 0x8, addend: 0x0, symName: __ZN4grpc18GrpcLibraryCodegenC2Eb, symObjAddr: 0x2C0C, symBinAddr: 0x30138, symSize: 0x90 }
  - { offsetInCU: 0x77496, offset: 0x296DA5, size: 0x8, addend: 0x0, symName: __ZNSt3__110__list_impIPKN4grpc6ServerENS_9allocatorIS4_EEE5clearEv, symObjAddr: 0x2D60, symBinAddr: 0x30280, symSize: 0x60 }
  - { offsetInCU: 0x7763A, offset: 0x296F49, size: 0x8, addend: 0x0, symName: __ZN4grpc18GrpcLibraryCodegenD2Ev, symObjAddr: 0x2C9C, symBinAddr: 0x301C8, symSize: 0x8C }
  - { offsetInCU: 0x77683, offset: 0x296F92, size: 0x8, addend: 0x0, symName: __ZN4grpc15CompletionQueueD0Ev, symObjAddr: 0x2D28, symBinAddr: 0x30254, symSize: 0x14 }
  - { offsetInCU: 0x776DC, offset: 0x296FEB, size: 0x8, addend: 0x0, symName: __ZN4grpc18GrpcLibraryCodegenD1Ev, symObjAddr: 0x2D3C, symBinAddr: 0x30268, symSize: 0x4 }
  - { offsetInCU: 0x776FF, offset: 0x29700E, size: 0x8, addend: 0x0, symName: __ZN4grpc18GrpcLibraryCodegenD1Ev, symObjAddr: 0x2D3C, symBinAddr: 0x30268, symSize: 0x4 }
  - { offsetInCU: 0x77730, offset: 0x29703F, size: 0x8, addend: 0x0, symName: __ZN4grpc18GrpcLibraryCodegenD0Ev, symObjAddr: 0x2D40, symBinAddr: 0x3026C, symSize: 0x14 }
  - { offsetInCU: 0x77896, offset: 0x2971A5, size: 0x8, addend: 0x0, symName: __ZNSt3__110shared_ptrIN4grpc16ChannelInterfaceEED2B7v160006Ev, symObjAddr: 0x2E44, symBinAddr: 0x3030C, symSize: 0x58 }
  - { offsetInCU: 0x797C4, offset: 0x2990D3, size: 0x8, addend: 0x0, symName: __ZN4absl12lts_2022062316allocator_traitsINSt3__19allocatorINS2_4pairIKNS2_12basic_stringIcNS2_11char_traitsIcEENS3_IcEEEES9_EEEEE12destroy_implINS4_IS9_S9_EEEEvcRSC_PT_, symObjAddr: 0x3C90, symBinAddr: 0x306C4, symSize: 0x44 }
  - { offsetInCU: 0x79A63, offset: 0x299372, size: 0x8, addend: 0x0, symName: __ZN4absl12lts_2022062318container_internal12raw_hash_setINS1_17FlatHashMapPolicyINSt3__112basic_stringIcNS4_11char_traitsIcEENS4_9allocatorIcEEEESA_EENS1_10StringHashENS1_8StringEqENS8_INS4_4pairIKSA_SA_EEEEE13destroy_slotsEv.cold.1, symObjAddr: 0xA110, symBinAddr: 0x176C60, symSize: 0x24 }
  - { offsetInCU: 0x79B33, offset: 0x299442, size: 0x8, addend: 0x0, symName: __ZN4absl12lts_2022062318container_internal10DeallocateILm8ENSt3__19allocatorINS3_4pairIKNS3_12basic_stringIcNS3_11char_traitsIcEENS4_IcEEEESA_EEEEEEvPT0_Pvm.cold.1, symObjAddr: 0xA134, symBinAddr: 0x176C84, symSize: 0x28 }
  - { offsetInCU: 0x79D23, offset: 0x299632, size: 0x8, addend: 0x0, symName: __ZN8firebase9firestore6remote9DatastoreD2Ev, symObjAddr: 0x3D7C, symBinAddr: 0x3079C, symSize: 0xD8 }
  - { offsetInCU: 0x79DC5, offset: 0x2996D4, size: 0x8, addend: 0x0, symName: __ZNSt3__16vectorINS_10unique_ptrIN8firebase9firestore6remote8GrpcCallENS_14default_deleteIS5_EEEENS_9allocatorIS8_EEE16__destroy_vectorclB7v160006Ev, symObjAddr: 0x4030, symBinAddr: 0x3095C, symSize: 0x7C }
  - { offsetInCU: 0x7A02E, offset: 0x29993D, size: 0x8, addend: 0x0, symName: '__ZNSt3__110__function6__funcIZN8firebase9firestore6remote9Datastore5StartEvE3$_0NS_9allocatorIS6_EEFvvEED1Ev', symObjAddr: 0x40AC, symBinAddr: 0x309D8, symSize: 0x4 }
  - { offsetInCU: 0x7A059, offset: 0x299968, size: 0x8, addend: 0x0, symName: '__ZNSt3__110__function6__funcIZN8firebase9firestore6remote9Datastore5StartEvE3$_0NS_9allocatorIS6_EEFvvEED0Ev', symObjAddr: 0x40B0, symBinAddr: 0x309DC, symSize: 0x4 }
  - { offsetInCU: 0x7A251, offset: 0x299B60, size: 0x8, addend: 0x0, symName: '__ZNKSt3__110__function6__funcIZN8firebase9firestore6remote9Datastore5StartEvE3$_0NS_9allocatorIS6_EEFvvEE7__cloneEv', symObjAddr: 0x40B4, symBinAddr: 0x309E0, symSize: 0x34 }
  - { offsetInCU: 0x7A544, offset: 0x299E53, size: 0x8, addend: 0x0, symName: '__ZNKSt3__110__function6__funcIZN8firebase9firestore6remote9Datastore5StartEvE3$_0NS_9allocatorIS6_EEFvvEE7__cloneEPNS0_6__baseIS9_EE', symObjAddr: 0x40E8, symBinAddr: 0x30A14, symSize: 0x14 }
  - { offsetInCU: 0x7A57B, offset: 0x299E8A, size: 0x8, addend: 0x0, symName: '__ZNKSt3__110__function6__funcIZN8firebase9firestore6remote9Datastore5StartEvE3$_0NS_9allocatorIS6_EEFvvEE7__cloneEPNS0_6__baseIS9_EE', symObjAddr: 0x40E8, symBinAddr: 0x30A14, symSize: 0x14 }
  - { offsetInCU: 0x7A5A9, offset: 0x299EB8, size: 0x8, addend: 0x0, symName: '__ZNKSt3__110__function6__funcIZN8firebase9firestore6remote9Datastore5StartEvE3$_0NS_9allocatorIS6_EEFvvEE7__cloneEPNS0_6__baseIS9_EE', symObjAddr: 0x40E8, symBinAddr: 0x30A14, symSize: 0x14 }
  - { offsetInCU: 0x7A5D7, offset: 0x299EE6, size: 0x8, addend: 0x0, symName: '__ZNKSt3__110__function6__funcIZN8firebase9firestore6remote9Datastore5StartEvE3$_0NS_9allocatorIS6_EEFvvEE7__cloneEPNS0_6__baseIS9_EE', symObjAddr: 0x40E8, symBinAddr: 0x30A14, symSize: 0x14 }
  - { offsetInCU: 0x7A5EC, offset: 0x299EFB, size: 0x8, addend: 0x0, symName: '__ZNKSt3__110__function6__funcIZN8firebase9firestore6remote9Datastore5StartEvE3$_0NS_9allocatorIS6_EEFvvEE7__cloneEPNS0_6__baseIS9_EE', symObjAddr: 0x40E8, symBinAddr: 0x30A14, symSize: 0x14 }
  - { offsetInCU: 0x7A600, offset: 0x299F0F, size: 0x8, addend: 0x0, symName: '__ZNKSt3__110__function6__funcIZN8firebase9firestore6remote9Datastore5StartEvE3$_0NS_9allocatorIS6_EEFvvEE7__cloneEPNS0_6__baseIS9_EE', symObjAddr: 0x40E8, symBinAddr: 0x30A14, symSize: 0x14 }
  - { offsetInCU: 0x7A614, offset: 0x299F23, size: 0x8, addend: 0x0, symName: '__ZNKSt3__110__function6__funcIZN8firebase9firestore6remote9Datastore5StartEvE3$_0NS_9allocatorIS6_EEFvvEE7__cloneEPNS0_6__baseIS9_EE', symObjAddr: 0x40E8, symBinAddr: 0x30A14, symSize: 0x14 }
  - { offsetInCU: 0x7A628, offset: 0x299F37, size: 0x8, addend: 0x0, symName: '__ZNKSt3__110__function6__funcIZN8firebase9firestore6remote9Datastore5StartEvE3$_0NS_9allocatorIS6_EEFvvEE7__cloneEPNS0_6__baseIS9_EE', symObjAddr: 0x40E8, symBinAddr: 0x30A14, symSize: 0x14 }
  - { offsetInCU: 0x7A640, offset: 0x299F4F, size: 0x8, addend: 0x0, symName: '__ZNSt3__110__function6__funcIZN8firebase9firestore6remote9Datastore5StartEvE3$_0NS_9allocatorIS6_EEFvvEE7destroyEv', symObjAddr: 0x40FC, symBinAddr: 0x30A28, symSize: 0x4 }
  - { offsetInCU: 0x7A68E, offset: 0x299F9D, size: 0x8, addend: 0x0, symName: '__ZNSt3__110__function6__funcIZN8firebase9firestore6remote9Datastore5StartEvE3$_0NS_9allocatorIS6_EEFvvEE18destroy_deallocateEv', symObjAddr: 0x4100, symBinAddr: 0x30A2C, symSize: 0x4 }
  - { offsetInCU: 0x7A6C2, offset: 0x299FD1, size: 0x8, addend: 0x0, symName: '__ZNSt3__110__function6__funcIZN8firebase9firestore6remote9Datastore5StartEvE3$_0NS_9allocatorIS6_EEFvvEE18destroy_deallocateEv', symObjAddr: 0x4100, symBinAddr: 0x30A2C, symSize: 0x4 }
  - { offsetInCU: 0x7A6E5, offset: 0x299FF4, size: 0x8, addend: 0x0, symName: '__ZNSt3__110__function6__funcIZN8firebase9firestore6remote9Datastore5StartEvE3$_0NS_9allocatorIS6_EEFvvEE18destroy_deallocateEv', symObjAddr: 0x4100, symBinAddr: 0x30A2C, symSize: 0x4 }
  - { offsetInCU: 0x7A711, offset: 0x29A020, size: 0x8, addend: 0x0, symName: '__ZNSt3__110__function6__funcIZN8firebase9firestore6remote9Datastore5StartEvE3$_0NS_9allocatorIS6_EEFvvEE18destroy_deallocateEv', symObjAddr: 0x4100, symBinAddr: 0x30A2C, symSize: 0x4 }
  - { offsetInCU: 0x7A739, offset: 0x29A048, size: 0x8, addend: 0x0, symName: '__ZNSt3__110__function6__funcIZN8firebase9firestore6remote9Datastore5StartEvE3$_0NS_9allocatorIS6_EEFvvEE18destroy_deallocateEv', symObjAddr: 0x4100, symBinAddr: 0x30A2C, symSize: 0x4 }
  - { offsetInCU: 0x7A7B7, offset: 0x29A0C6, size: 0x8, addend: 0x0, symName: '__ZNSt3__110__function6__funcIZN8firebase9firestore6remote9Datastore5StartEvE3$_0NS_9allocatorIS6_EEFvvEEclEv', symObjAddr: 0x4104, symBinAddr: 0x30A30, symSize: 0x8 }
  - { offsetInCU: 0x7A846, offset: 0x29A155, size: 0x8, addend: 0x0, symName: '__ZNKSt3__110__function6__funcIZN8firebase9firestore6remote9Datastore5StartEvE3$_0NS_9allocatorIS6_EEFvvEE6targetERKSt9type_info', symObjAddr: 0x410C, symBinAddr: 0x30A38, symSize: 0x3C }
  - { offsetInCU: 0x7A8DC, offset: 0x29A1EB, size: 0x8, addend: 0x0, symName: '__ZNKSt3__110__function6__funcIZN8firebase9firestore6remote9Datastore5StartEvE3$_0NS_9allocatorIS6_EEFvvEE11target_typeEv', symObjAddr: 0x4148, symBinAddr: 0x30A74, symSize: 0xC }
  - { offsetInCU: 0x7A931, offset: 0x29A240, size: 0x8, addend: 0x0, symName: '__ZNSt3__110__function6__funcIZN8firebase9firestore6remote9Datastore8ShutdownEvE3$_1NS_9allocatorIS6_EEFvvEED1Ev', symObjAddr: 0x419C, symBinAddr: 0x30A80, symSize: 0x4 }
  - { offsetInCU: 0x7A95C, offset: 0x29A26B, size: 0x8, addend: 0x0, symName: '__ZNSt3__110__function6__funcIZN8firebase9firestore6remote9Datastore8ShutdownEvE3$_1NS_9allocatorIS6_EEFvvEED0Ev', symObjAddr: 0x41A0, symBinAddr: 0x30A84, symSize: 0x4 }
  - { offsetInCU: 0x7AA0D, offset: 0x29A31C, size: 0x8, addend: 0x0, symName: '__ZNKSt3__110__function6__funcIZN8firebase9firestore6remote9Datastore8ShutdownEvE3$_1NS_9allocatorIS6_EEFvvEE7__cloneEv', symObjAddr: 0x41A4, symBinAddr: 0x30A88, symSize: 0x24 }
  - { offsetInCU: 0x7AB55, offset: 0x29A464, size: 0x8, addend: 0x0, symName: '__ZNKSt3__110__function6__funcIZN8firebase9firestore6remote9Datastore8ShutdownEvE3$_1NS_9allocatorIS6_EEFvvEE7__cloneEPNS0_6__baseIS9_EE', symObjAddr: 0x41C8, symBinAddr: 0x30AAC, symSize: 0x10 }
  - { offsetInCU: 0x7AB8A, offset: 0x29A499, size: 0x8, addend: 0x0, symName: '__ZNKSt3__110__function6__funcIZN8firebase9firestore6remote9Datastore8ShutdownEvE3$_1NS_9allocatorIS6_EEFvvEE7__cloneEPNS0_6__baseIS9_EE', symObjAddr: 0x41C8, symBinAddr: 0x30AAC, symSize: 0x10 }
  - { offsetInCU: 0x7ABA6, offset: 0x29A4B5, size: 0x8, addend: 0x0, symName: '__ZNKSt3__110__function6__funcIZN8firebase9firestore6remote9Datastore8ShutdownEvE3$_1NS_9allocatorIS6_EEFvvEE7__cloneEPNS0_6__baseIS9_EE', symObjAddr: 0x41C8, symBinAddr: 0x30AAC, symSize: 0x10 }
  - { offsetInCU: 0x7ABC2, offset: 0x29A4D1, size: 0x8, addend: 0x0, symName: '__ZNSt3__110__function6__funcIZN8firebase9firestore6remote9Datastore8ShutdownEvE3$_1NS_9allocatorIS6_EEFvvEE7destroyEv', symObjAddr: 0x41D8, symBinAddr: 0x30ABC, symSize: 0x4 }
  - { offsetInCU: 0x7AC10, offset: 0x29A51F, size: 0x8, addend: 0x0, symName: '__ZNSt3__110__function6__funcIZN8firebase9firestore6remote9Datastore8ShutdownEvE3$_1NS_9allocatorIS6_EEFvvEE18destroy_deallocateEv', symObjAddr: 0x41DC, symBinAddr: 0x30AC0, symSize: 0x4 }
  - { offsetInCU: 0x7AC44, offset: 0x29A553, size: 0x8, addend: 0x0, symName: '__ZNSt3__110__function6__funcIZN8firebase9firestore6remote9Datastore8ShutdownEvE3$_1NS_9allocatorIS6_EEFvvEE18destroy_deallocateEv', symObjAddr: 0x41DC, symBinAddr: 0x30AC0, symSize: 0x4 }
  - { offsetInCU: 0x7AC67, offset: 0x29A576, size: 0x8, addend: 0x0, symName: '__ZNSt3__110__function6__funcIZN8firebase9firestore6remote9Datastore8ShutdownEvE3$_1NS_9allocatorIS6_EEFvvEE18destroy_deallocateEv', symObjAddr: 0x41DC, symBinAddr: 0x30AC0, symSize: 0x4 }
  - { offsetInCU: 0x7AC93, offset: 0x29A5A2, size: 0x8, addend: 0x0, symName: '__ZNSt3__110__function6__funcIZN8firebase9firestore6remote9Datastore8ShutdownEvE3$_1NS_9allocatorIS6_EEFvvEE18destroy_deallocateEv', symObjAddr: 0x41DC, symBinAddr: 0x30AC0, symSize: 0x4 }
  - { offsetInCU: 0x7ACBB, offset: 0x29A5CA, size: 0x8, addend: 0x0, symName: '__ZNSt3__110__function6__funcIZN8firebase9firestore6remote9Datastore8ShutdownEvE3$_1NS_9allocatorIS6_EEFvvEE18destroy_deallocateEv', symObjAddr: 0x41DC, symBinAddr: 0x30AC0, symSize: 0x4 }
  - { offsetInCU: 0x7ACE7, offset: 0x29A5F6, size: 0x8, addend: 0x0, symName: '__ZNSt3__110__function6__funcIZN8firebase9firestore6remote9Datastore8ShutdownEvE3$_1NS_9allocatorIS6_EEFvvEEclEv', symObjAddr: 0x41E0, symBinAddr: 0x30AC4, symSize: 0x4 }
  - { offsetInCU: 0x7AD0B, offset: 0x29A61A, size: 0x8, addend: 0x0, symName: '__ZNKSt3__110__function6__funcIZN8firebase9firestore6remote9Datastore8ShutdownEvE3$_1NS_9allocatorIS6_EEFvvEE6targetERKSt9type_info', symObjAddr: 0x41E4, symBinAddr: 0x30AC8, symSize: 0x3C }
  - { offsetInCU: 0x7AD58, offset: 0x29A667, size: 0x8, addend: 0x0, symName: '__ZNKSt3__110__function6__funcIZN8firebase9firestore6remote9Datastore8ShutdownEvE3$_1NS_9allocatorIS6_EEFvvEE11target_typeEv', symObjAddr: 0x4220, symBinAddr: 0x30B04, symSize: 0xC }
  - { offsetInCU: 0x7AFE1, offset: 0x29A8F0, size: 0x8, addend: 0x0, symName: __ZNSt3__120__shared_ptr_emplaceIN8firebase9firestore6remote11WatchStreamENS_9allocatorIS4_EEEC2B7v160006IJRNS_10shared_ptrINS2_4util10AsyncQueueEEERNS9_INS2_11credentials19CredentialsProviderINSE_9AuthTokenENSE_4UserEEEEERNS9_INSF_INS_12basic_stringIcNS_11char_traitsIcEENS5_IcEEEESP_EEEERKNS3_10SerializerEPNS3_14GrpcConnectionERPNS3_19WatchStreamCallbackEEEES6_DpOT_, symObjAddr: 0x42C4, symBinAddr: 0x30BA8, symSize: 0x18C }
  - { offsetInCU: 0x7B82F, offset: 0x29B13E, size: 0x8, addend: 0x0, symName: __ZNSt3__120__shared_ptr_emplaceIN8firebase9firestore6remote11WatchStreamENS_9allocatorIS4_EEED1Ev, symObjAddr: 0x4450, symBinAddr: 0x30D34, symSize: 0x14 }
  - { offsetInCU: 0x7B851, offset: 0x29B160, size: 0x8, addend: 0x0, symName: __ZNSt3__120__shared_ptr_emplaceIN8firebase9firestore6remote11WatchStreamENS_9allocatorIS4_EEED1Ev, symObjAddr: 0x4450, symBinAddr: 0x30D34, symSize: 0x14 }
  - { offsetInCU: 0x7B888, offset: 0x29B197, size: 0x8, addend: 0x0, symName: __ZNSt3__120__shared_ptr_emplaceIN8firebase9firestore6remote11WatchStreamENS_9allocatorIS4_EEED0Ev, symObjAddr: 0x4464, symBinAddr: 0x30D48, symSize: 0x24 }
  - { offsetInCU: 0x7B8ED, offset: 0x29B1FC, size: 0x8, addend: 0x0, symName: __ZNSt3__120__shared_ptr_emplaceIN8firebase9firestore6remote11WatchStreamENS_9allocatorIS4_EEE16__on_zero_sharedEv, symObjAddr: 0x4488, symBinAddr: 0x30D6C, symSize: 0xC }
  - { offsetInCU: 0x7B91F, offset: 0x29B22E, size: 0x8, addend: 0x0, symName: __ZNSt3__120__shared_ptr_emplaceIN8firebase9firestore6remote11WatchStreamENS_9allocatorIS4_EEE21__on_zero_shared_weakEv, symObjAddr: 0x4494, symBinAddr: 0x30D78, symSize: 0x4 }
  - { offsetInCU: 0x7B951, offset: 0x29B260, size: 0x8, addend: 0x0, symName: __ZNSt3__120__shared_ptr_emplaceIN8firebase9firestore6remote11WatchStreamENS_9allocatorIS4_EEE21__on_zero_shared_weakEv, symObjAddr: 0x4494, symBinAddr: 0x30D78, symSize: 0x4 }
  - { offsetInCU: 0x7B974, offset: 0x29B283, size: 0x8, addend: 0x0, symName: __ZNSt3__120__shared_ptr_emplaceIN8firebase9firestore6remote11WatchStreamENS_9allocatorIS4_EEE21__on_zero_shared_weakEv, symObjAddr: 0x4494, symBinAddr: 0x30D78, symSize: 0x4 }
  - { offsetInCU: 0x7B997, offset: 0x29B2A6, size: 0x8, addend: 0x0, symName: __ZNSt3__120__shared_ptr_emplaceIN8firebase9firestore6remote11WatchStreamENS_9allocatorIS4_EEE21__on_zero_shared_weakEv, symObjAddr: 0x4494, symBinAddr: 0x30D78, symSize: 0x4 }
  - { offsetInCU: 0x7B9C5, offset: 0x29B2D4, size: 0x8, addend: 0x0, symName: __ZNSt3__120__shared_ptr_emplaceIN8firebase9firestore6remote11WatchStreamENS_9allocatorIS4_EEE21__on_zero_shared_weakEv, symObjAddr: 0x4494, symBinAddr: 0x30D78, symSize: 0x4 }
  - { offsetInCU: 0x7B9EF, offset: 0x29B2FE, size: 0x8, addend: 0x0, symName: __ZNSt3__120__shared_ptr_emplaceIN8firebase9firestore6remote11WatchStreamENS_9allocatorIS4_EEE21__on_zero_shared_weakEv, symObjAddr: 0x4494, symBinAddr: 0x30D78, symSize: 0x4 }
  - { offsetInCU: 0x7BE8C, offset: 0x29B79B, size: 0x8, addend: 0x0, symName: __ZNSt3__120__shared_ptr_emplaceIN8firebase9firestore6remote11WriteStreamENS_9allocatorIS4_EEEC2B7v160006IJRNS_10shared_ptrINS2_4util10AsyncQueueEEERNS9_INS2_11credentials19CredentialsProviderINSE_9AuthTokenENSE_4UserEEEEERNS9_INSF_INS_12basic_stringIcNS_11char_traitsIcEENS5_IcEEEESP_EEEERKNS3_10SerializerEPNS3_14GrpcConnectionERPNS3_19WriteStreamCallbackEEEES6_DpOT_, symObjAddr: 0x45E0, symBinAddr: 0x30EC4, symSize: 0x18C }
  - { offsetInCU: 0x7C573, offset: 0x29BE82, size: 0x8, addend: 0x0, symName: __ZNSt3__120__shared_ptr_emplaceIN8firebase9firestore6remote11WriteStreamENS_9allocatorIS4_EEED1Ev, symObjAddr: 0x476C, symBinAddr: 0x31050, symSize: 0x14 }
  - { offsetInCU: 0x7C595, offset: 0x29BEA4, size: 0x8, addend: 0x0, symName: __ZNSt3__120__shared_ptr_emplaceIN8firebase9firestore6remote11WriteStreamENS_9allocatorIS4_EEED1Ev, symObjAddr: 0x476C, symBinAddr: 0x31050, symSize: 0x14 }
  - { offsetInCU: 0x7C5CC, offset: 0x29BEDB, size: 0x8, addend: 0x0, symName: __ZNSt3__120__shared_ptr_emplaceIN8firebase9firestore6remote11WriteStreamENS_9allocatorIS4_EEED0Ev, symObjAddr: 0x4780, symBinAddr: 0x31064, symSize: 0x24 }
  - { offsetInCU: 0x7C631, offset: 0x29BF40, size: 0x8, addend: 0x0, symName: __ZNSt3__120__shared_ptr_emplaceIN8firebase9firestore6remote11WriteStreamENS_9allocatorIS4_EEE16__on_zero_sharedEv, symObjAddr: 0x47A4, symBinAddr: 0x31088, symSize: 0xC }
  - { offsetInCU: 0x7C663, offset: 0x29BF72, size: 0x8, addend: 0x0, symName: __ZNSt3__120__shared_ptr_emplaceIN8firebase9firestore6remote11WriteStreamENS_9allocatorIS4_EEE21__on_zero_shared_weakEv, symObjAddr: 0x47B0, symBinAddr: 0x31094, symSize: 0x4 }
  - { offsetInCU: 0x7C695, offset: 0x29BFA4, size: 0x8, addend: 0x0, symName: __ZNSt3__120__shared_ptr_emplaceIN8firebase9firestore6remote11WriteStreamENS_9allocatorIS4_EEE21__on_zero_shared_weakEv, symObjAddr: 0x47B0, symBinAddr: 0x31094, symSize: 0x4 }
  - { offsetInCU: 0x7C6B8, offset: 0x29BFC7, size: 0x8, addend: 0x0, symName: __ZNSt3__120__shared_ptr_emplaceIN8firebase9firestore6remote11WriteStreamENS_9allocatorIS4_EEE21__on_zero_shared_weakEv, symObjAddr: 0x47B0, symBinAddr: 0x31094, symSize: 0x4 }
  - { offsetInCU: 0x7C6DB, offset: 0x29BFEA, size: 0x8, addend: 0x0, symName: __ZNSt3__120__shared_ptr_emplaceIN8firebase9firestore6remote11WriteStreamENS_9allocatorIS4_EEE21__on_zero_shared_weakEv, symObjAddr: 0x47B0, symBinAddr: 0x31094, symSize: 0x4 }
  - { offsetInCU: 0x7C709, offset: 0x29C018, size: 0x8, addend: 0x0, symName: __ZNSt3__120__shared_ptr_emplaceIN8firebase9firestore6remote11WriteStreamENS_9allocatorIS4_EEE21__on_zero_shared_weakEv, symObjAddr: 0x47B0, symBinAddr: 0x31094, symSize: 0x4 }
  - { offsetInCU: 0x7C733, offset: 0x29C042, size: 0x8, addend: 0x0, symName: __ZNSt3__120__shared_ptr_emplaceIN8firebase9firestore6remote11WriteStreamENS_9allocatorIS4_EEE21__on_zero_shared_weakEv, symObjAddr: 0x47B0, symBinAddr: 0x31094, symSize: 0x4 }
  - { offsetInCU: 0x7CA83, offset: 0x29C392, size: 0x8, addend: 0x0, symName: __ZNSt3__16vectorIN8firebase9firestore5model8MutationENS_9allocatorIS4_EEE11__vallocateB7v160006Em, symObjAddr: 0x4924, symBinAddr: 0x31208, symSize: 0x40 }
  - { offsetInCU: 0x7CAFC, offset: 0x29C40B, size: 0x8, addend: 0x0, symName: __ZNKSt3__16vectorIN8firebase9firestore5model8MutationENS_9allocatorIS4_EEE20__throw_length_errorB7v160006Ev, symObjAddr: 0x4964, symBinAddr: 0x31248, symSize: 0x14 }
  - { offsetInCU: 0x7CB0E, offset: 0x29C41D, size: 0x8, addend: 0x0, symName: __ZNSt3__128__exception_guard_exceptionsINS_6vectorIN8firebase9firestore5model8MutationENS_9allocatorIS5_EEE16__destroy_vectorEED2B7v160006Ev, symObjAddr: 0x4A04, symBinAddr: 0x312E8, symSize: 0x34 }
  - { offsetInCU: 0x7CB60, offset: 0x29C46F, size: 0x8, addend: 0x0, symName: __ZNKSt3__16vectorIN8firebase9firestore5model8MutationENS_9allocatorIS4_EEE20__throw_length_errorB7v160006Ev, symObjAddr: 0x4964, symBinAddr: 0x31248, symSize: 0x14 }
  - { offsetInCU: 0x7CB88, offset: 0x29C497, size: 0x8, addend: 0x0, symName: __ZNSt3__119__allocate_at_leastB7v160006INS_9allocatorIN8firebase9firestore5model8MutationEEEEENS_19__allocation_resultINS_16allocator_traitsIT_E7pointerEEERS9_m, symObjAddr: 0x4978, symBinAddr: 0x3125C, symSize: 0x34 }
  - { offsetInCU: 0x7CBB2, offset: 0x29C4C1, size: 0x8, addend: 0x0, symName: __ZNSt3__110shared_ptrIN8firebase9firestore5model8Mutation3RepEED2B7v160006Ev, symObjAddr: 0x49AC, symBinAddr: 0x31290, symSize: 0x58 }
  - { offsetInCU: 0x7CC44, offset: 0x29C553, size: 0x8, addend: 0x0, symName: __ZNSt3__16vectorIN8firebase9firestore5model8MutationENS_9allocatorIS4_EEE16__destroy_vectorclB7v160006Ev, symObjAddr: 0x4A38, symBinAddr: 0x3131C, symSize: 0x70 }
  - { offsetInCU: 0x7D025, offset: 0x29C934, size: 0x8, addend: 0x0, symName: '__ZNSt3__110__function6__funcIZN8firebase9firestore6remote9Datastore15CommitMutationsERKNS_6vectorINS3_5model8MutationENS_9allocatorIS8_EEEEONS_8functionIFvRKNS3_4util6StatusEEEEE3$_2NS9_ISM_EEFvRKNSF_8StatusOrINS3_11credentials9AuthTokenEEERKNS_12basic_stringIcNS_11char_traitsIcEENS9_IcEEEEEED1Ev', symObjAddr: 0x4B44, symBinAddr: 0x31428, symSize: 0x64 }
  - { offsetInCU: 0x7D20A, offset: 0x29CB19, size: 0x8, addend: 0x0, symName: '__ZNSt3__110__function6__funcIZN8firebase9firestore6remote9Datastore15CommitMutationsERKNS_6vectorINS3_5model8MutationENS_9allocatorIS8_EEEEONS_8functionIFvRKNS3_4util6StatusEEEEE3$_2NS9_ISM_EEFvRKNSF_8StatusOrINS3_11credentials9AuthTokenEEERKNS_12basic_stringIcNS_11char_traitsIcEENS9_IcEEEEEED0Ev', symObjAddr: 0x4BA8, symBinAddr: 0x3148C, symSize: 0x64 }
  - { offsetInCU: 0x7D5E6, offset: 0x29CEF5, size: 0x8, addend: 0x0, symName: '__ZNKSt3__110__function6__funcIZN8firebase9firestore6remote9Datastore15CommitMutationsERKNS_6vectorINS3_5model8MutationENS_9allocatorIS8_EEEEONS_8functionIFvRKNS3_4util6StatusEEEEE3$_2NS9_ISM_EEFvRKNSF_8StatusOrINS3_11credentials9AuthTokenEEERKNS_12basic_stringIcNS_11char_traitsIcEENS9_IcEEEEEE7__cloneEv', symObjAddr: 0x4C0C, symBinAddr: 0x314F0, symSize: 0x54 }
  - { offsetInCU: 0x7D887, offset: 0x29D196, size: 0x8, addend: 0x0, symName: '__ZNSt3__122__compressed_pair_elemIZN8firebase9firestore6remote9Datastore15CommitMutationsERKNS_6vectorINS2_5model8MutationENS_9allocatorIS7_EEEEONS_8functionIFvRKNS2_4util6StatusEEEEE3$_2Li0ELb0EEC2B7v160006IJRKSL_EJLm0EEEENS_21piecewise_construct_tENS_5tupleIJDpT_EEENS_15__tuple_indicesIJXspT0_EEEE', symObjAddr: 0x4E18, symBinAddr: 0x316FC, symSize: 0x68 }
  - { offsetInCU: 0x7DB6F, offset: 0x29D47E, size: 0x8, addend: 0x0, symName: '__ZNKSt3__110__function6__funcIZN8firebase9firestore6remote9Datastore15CommitMutationsERKNS_6vectorINS3_5model8MutationENS_9allocatorIS8_EEEEONS_8functionIFvRKNS3_4util6StatusEEEEE3$_2NS9_ISM_EEFvRKNSF_8StatusOrINS3_11credentials9AuthTokenEEERKNS_12basic_stringIcNS_11char_traitsIcEENS9_IcEEEEEE7__cloneEPNS0_6__baseIS11_EE', symObjAddr: 0x4C60, symBinAddr: 0x31544, symSize: 0x1C }
  - { offsetInCU: 0x7DCCB, offset: 0x29D5DA, size: 0x8, addend: 0x0, symName: '__ZNSt3__110__function6__funcIZN8firebase9firestore6remote9Datastore15CommitMutationsERKNS_6vectorINS3_5model8MutationENS_9allocatorIS8_EEEEONS_8functionIFvRKNS3_4util6StatusEEEEE3$_2NS9_ISM_EEFvRKNSF_8StatusOrINS3_11credentials9AuthTokenEEERKNS_12basic_stringIcNS_11char_traitsIcEENS9_IcEEEEEE7destroyEv', symObjAddr: 0x4C7C, symBinAddr: 0x31560, symSize: 0x50 }
  - { offsetInCU: 0x7DE60, offset: 0x29D76F, size: 0x8, addend: 0x0, symName: '__ZNSt3__110__function6__funcIZN8firebase9firestore6remote9Datastore15CommitMutationsERKNS_6vectorINS3_5model8MutationENS_9allocatorIS8_EEEEONS_8functionIFvRKNS3_4util6StatusEEEEE3$_2NS9_ISM_EEFvRKNSF_8StatusOrINS3_11credentials9AuthTokenEEERKNS_12basic_stringIcNS_11char_traitsIcEENS9_IcEEEEEE18destroy_deallocateEv', symObjAddr: 0x4CCC, symBinAddr: 0x315B0, symSize: 0x58 }
  - { offsetInCU: 0x7E1C6, offset: 0x29DAD5, size: 0x8, addend: 0x0, symName: '__ZNSt3__110__function6__funcIZN8firebase9firestore6remote9Datastore15CommitMutationsERKNS_6vectorINS3_5model8MutationENS_9allocatorIS8_EEEEONS_8functionIFvRKNS3_4util6StatusEEEEE3$_2NS9_ISM_EEFvRKNSF_8StatusOrINS3_11credentials9AuthTokenEEERKNS_12basic_stringIcNS_11char_traitsIcEENS9_IcEEEEEEclEST_S10_', symObjAddr: 0x4D24, symBinAddr: 0x31608, symSize: 0x48 }
  - { offsetInCU: 0x7E3C4, offset: 0x29DCD3, size: 0x8, addend: 0x0, symName: '__ZNKSt3__110__function6__funcIZN8firebase9firestore6remote9Datastore15CommitMutationsERKNS_6vectorINS3_5model8MutationENS_9allocatorIS8_EEEEONS_8functionIFvRKNS3_4util6StatusEEEEE3$_2NS9_ISM_EEFvRKNSF_8StatusOrINS3_11credentials9AuthTokenEEERKNS_12basic_stringIcNS_11char_traitsIcEENS9_IcEEEEEE6targetERKSt9type_info', symObjAddr: 0x4D6C, symBinAddr: 0x31650, symSize: 0x3C }
  - { offsetInCU: 0x7E3CF, offset: 0x29DCDE, size: 0x8, addend: 0x0, symName: '__ZNKSt3__110__function6__funcIZN8firebase9firestore6remote9Datastore15CommitMutationsERKNS_6vectorINS3_5model8MutationENS_9allocatorIS8_EEEEONS_8functionIFvRKNS3_4util6StatusEEEEE3$_2NS9_ISM_EEFvRKNSF_8StatusOrINS3_11credentials9AuthTokenEEERKNS_12basic_stringIcNS_11char_traitsIcEENS9_IcEEEEEE6targetERKSt9type_info', symObjAddr: 0x4D6C, symBinAddr: 0x31650, symSize: 0x3C }
  - { offsetInCU: 0x7E41C, offset: 0x29DD2B, size: 0x8, addend: 0x0, symName: '__ZNKSt3__110__function6__funcIZN8firebase9firestore6remote9Datastore15CommitMutationsERKNS_6vectorINS3_5model8MutationENS_9allocatorIS8_EEEEONS_8functionIFvRKNS3_4util6StatusEEEEE3$_2NS9_ISM_EEFvRKNSF_8StatusOrINS3_11credentials9AuthTokenEEERKNS_12basic_stringIcNS_11char_traitsIcEENS9_IcEEEEEE11target_typeEv', symObjAddr: 0x4DA8, symBinAddr: 0x3168C, symSize: 0xC }
  - { offsetInCU: 0x7E523, offset: 0x29DE32, size: 0x8, addend: 0x0, symName: __ZNSt3__16vectorIN4grpc5SliceENS_9allocatorIS2_EEE16__destroy_vectorclB7v160006Ev, symObjAddr: 0x4F40, symBinAddr: 0x317D8, symSize: 0x40 }
  - { offsetInCU: 0x7E690, offset: 0x29DF9F, size: 0x8, addend: 0x0, symName: __ZNSt3__16vectorIN4grpc5SliceENS_9allocatorIS2_EEE22__base_destruct_at_endB7v160006EPS2_, symObjAddr: 0x4F80, symBinAddr: 0x31818, symSize: 0xA0 }
  - { offsetInCU: 0x7E8CA, offset: 0x29E1D9, size: 0x8, addend: 0x0, symName: '__ZNSt3__110__function6__funcIZN8firebase9firestore6remote9Datastore30CommitMutationsWithCredentialsERKNS3_11credentials9AuthTokenERKNS_12basic_stringIcNS_11char_traitsIcEENS_9allocatorIcEEEERKNS_6vectorINS3_5model8MutationENSD_ISK_EEEEONS_8functionIFvRKNS3_4util6StatusEEEEE3$_3NSD_ISX_EEFvRKNSQ_8StatusOrIN4grpc10ByteBufferEEEEED1Ev', symObjAddr: 0x50C8, symBinAddr: 0x31960, symSize: 0x5C }
  - { offsetInCU: 0x7EA7F, offset: 0x29E38E, size: 0x8, addend: 0x0, symName: '__ZNSt3__110__function6__funcIZN8firebase9firestore6remote9Datastore30CommitMutationsWithCredentialsERKNS3_11credentials9AuthTokenERKNS_12basic_stringIcNS_11char_traitsIcEENS_9allocatorIcEEEERKNS_6vectorINS3_5model8MutationENSD_ISK_EEEEONS_8functionIFvRKNS3_4util6StatusEEEEE3$_3NSD_ISX_EEFvRKNSQ_8StatusOrIN4grpc10ByteBufferEEEEED0Ev', symObjAddr: 0x5124, symBinAddr: 0x319BC, symSize: 0x5C }
  - { offsetInCU: 0x7EF2D, offset: 0x29E83C, size: 0x8, addend: 0x0, symName: '__ZNKSt3__110__function6__funcIZN8firebase9firestore6remote9Datastore30CommitMutationsWithCredentialsERKNS3_11credentials9AuthTokenERKNS_12basic_stringIcNS_11char_traitsIcEENS_9allocatorIcEEEERKNS_6vectorINS3_5model8MutationENSD_ISK_EEEEONS_8functionIFvRKNS3_4util6StatusEEEEE3$_3NSD_ISX_EEFvRKNSQ_8StatusOrIN4grpc10ByteBufferEEEEE7__cloneEv', symObjAddr: 0x5180, symBinAddr: 0x31A18, symSize: 0x60 }
  - { offsetInCU: 0x7F422, offset: 0x29ED31, size: 0x8, addend: 0x0, symName: '__ZNKSt3__110__function6__funcIZN8firebase9firestore6remote9Datastore30CommitMutationsWithCredentialsERKNS3_11credentials9AuthTokenERKNS_12basic_stringIcNS_11char_traitsIcEENS_9allocatorIcEEEERKNS_6vectorINS3_5model8MutationENSD_ISK_EEEEONS_8functionIFvRKNS3_4util6StatusEEEEE3$_3NSD_ISX_EEFvRKNSQ_8StatusOrIN4grpc10ByteBufferEEEEE7__cloneEPNS0_6__baseIS15_EE', symObjAddr: 0x51E0, symBinAddr: 0x31A78, symSize: 0x24 }
  - { offsetInCU: 0x7F45C, offset: 0x29ED6B, size: 0x8, addend: 0x0, symName: '__ZNKSt3__110__function6__funcIZN8firebase9firestore6remote9Datastore30CommitMutationsWithCredentialsERKNS3_11credentials9AuthTokenERKNS_12basic_stringIcNS_11char_traitsIcEENS_9allocatorIcEEEERKNS_6vectorINS3_5model8MutationENSD_ISK_EEEEONS_8functionIFvRKNS3_4util6StatusEEEEE3$_3NSD_ISX_EEFvRKNSQ_8StatusOrIN4grpc10ByteBufferEEEEE7__cloneEPNS0_6__baseIS15_EE', symObjAddr: 0x51E0, symBinAddr: 0x31A78, symSize: 0x24 }
  - { offsetInCU: 0x7F48C, offset: 0x29ED9B, size: 0x8, addend: 0x0, symName: '__ZNKSt3__110__function6__funcIZN8firebase9firestore6remote9Datastore30CommitMutationsWithCredentialsERKNS3_11credentials9AuthTokenERKNS_12basic_stringIcNS_11char_traitsIcEENS_9allocatorIcEEEERKNS_6vectorINS3_5model8MutationENSD_ISK_EEEEONS_8functionIFvRKNS3_4util6StatusEEEEE3$_3NSD_ISX_EEFvRKNSQ_8StatusOrIN4grpc10ByteBufferEEEEE7__cloneEPNS0_6__baseIS15_EE', symObjAddr: 0x51E0, symBinAddr: 0x31A78, symSize: 0x24 }
  - { offsetInCU: 0x7F67E, offset: 0x29EF8D, size: 0x8, addend: 0x0, symName: '__ZNSt3__110__function6__funcIZN8firebase9firestore6remote9Datastore30CommitMutationsWithCredentialsERKNS3_11credentials9AuthTokenERKNS_12basic_stringIcNS_11char_traitsIcEENS_9allocatorIcEEEERKNS_6vectorINS3_5model8MutationENSD_ISK_EEEEONS_8functionIFvRKNS3_4util6StatusEEEEE3$_3NSD_ISX_EEFvRKNSQ_8StatusOrIN4grpc10ByteBufferEEEEE7destroyEv', symObjAddr: 0x5204, symBinAddr: 0x31A9C, symSize: 0x34 }
  - { offsetInCU: 0x7F6A8, offset: 0x29EFB7, size: 0x8, addend: 0x0, symName: '__ZNSt3__110__function6__funcIZN8firebase9firestore6remote9Datastore30CommitMutationsWithCredentialsERKNS3_11credentials9AuthTokenERKNS_12basic_stringIcNS_11char_traitsIcEENS_9allocatorIcEEEERKNS_6vectorINS3_5model8MutationENSD_ISK_EEEEONS_8functionIFvRKNS3_4util6StatusEEEEE3$_3NSD_ISX_EEFvRKNSQ_8StatusOrIN4grpc10ByteBufferEEEEE7destroyEv', symObjAddr: 0x5204, symBinAddr: 0x31A9C, symSize: 0x34 }
  - { offsetInCU: 0x7F6C6, offset: 0x29EFD5, size: 0x8, addend: 0x0, symName: '__ZNSt3__110__function6__funcIZN8firebase9firestore6remote9Datastore30CommitMutationsWithCredentialsERKNS3_11credentials9AuthTokenERKNS_12basic_stringIcNS_11char_traitsIcEENS_9allocatorIcEEEERKNS_6vectorINS3_5model8MutationENSD_ISK_EEEEONS_8functionIFvRKNS3_4util6StatusEEEEE3$_3NSD_ISX_EEFvRKNSQ_8StatusOrIN4grpc10ByteBufferEEEEE7destroyEv', symObjAddr: 0x5204, symBinAddr: 0x31A9C, symSize: 0x34 }
  - { offsetInCU: 0x7F6E3, offset: 0x29EFF2, size: 0x8, addend: 0x0, symName: '__ZNSt3__110__function6__funcIZN8firebase9firestore6remote9Datastore30CommitMutationsWithCredentialsERKNS3_11credentials9AuthTokenERKNS_12basic_stringIcNS_11char_traitsIcEENS_9allocatorIcEEEERKNS_6vectorINS3_5model8MutationENSD_ISK_EEEEONS_8functionIFvRKNS3_4util6StatusEEEEE3$_3NSD_ISX_EEFvRKNSQ_8StatusOrIN4grpc10ByteBufferEEEEE7destroyEv', symObjAddr: 0x5204, symBinAddr: 0x31A9C, symSize: 0x34 }
  - { offsetInCU: 0x7F700, offset: 0x29F00F, size: 0x8, addend: 0x0, symName: '__ZNSt3__110__function6__funcIZN8firebase9firestore6remote9Datastore30CommitMutationsWithCredentialsERKNS3_11credentials9AuthTokenERKNS_12basic_stringIcNS_11char_traitsIcEENS_9allocatorIcEEEERKNS_6vectorINS3_5model8MutationENSD_ISK_EEEEONS_8functionIFvRKNS3_4util6StatusEEEEE3$_3NSD_ISX_EEFvRKNSQ_8StatusOrIN4grpc10ByteBufferEEEEE7destroyEv', symObjAddr: 0x5204, symBinAddr: 0x31A9C, symSize: 0x34 }
  - { offsetInCU: 0x7F71D, offset: 0x29F02C, size: 0x8, addend: 0x0, symName: '__ZNSt3__110__function6__funcIZN8firebase9firestore6remote9Datastore30CommitMutationsWithCredentialsERKNS3_11credentials9AuthTokenERKNS_12basic_stringIcNS_11char_traitsIcEENS_9allocatorIcEEEERKNS_6vectorINS3_5model8MutationENSD_ISK_EEEEONS_8functionIFvRKNS3_4util6StatusEEEEE3$_3NSD_ISX_EEFvRKNSQ_8StatusOrIN4grpc10ByteBufferEEEEE7destroyEv', symObjAddr: 0x5204, symBinAddr: 0x31A9C, symSize: 0x34 }
  - { offsetInCU: 0x7F73A, offset: 0x29F049, size: 0x8, addend: 0x0, symName: '__ZNSt3__110__function6__funcIZN8firebase9firestore6remote9Datastore30CommitMutationsWithCredentialsERKNS3_11credentials9AuthTokenERKNS_12basic_stringIcNS_11char_traitsIcEENS_9allocatorIcEEEERKNS_6vectorINS3_5model8MutationENSD_ISK_EEEEONS_8functionIFvRKNS3_4util6StatusEEEEE3$_3NSD_ISX_EEFvRKNSQ_8StatusOrIN4grpc10ByteBufferEEEEE7destroyEv', symObjAddr: 0x5204, symBinAddr: 0x31A9C, symSize: 0x34 }
  - { offsetInCU: 0x7F7E2, offset: 0x29F0F1, size: 0x8, addend: 0x0, symName: '__ZNSt3__110__function6__funcIZN8firebase9firestore6remote9Datastore30CommitMutationsWithCredentialsERKNS3_11credentials9AuthTokenERKNS_12basic_stringIcNS_11char_traitsIcEENS_9allocatorIcEEEERKNS_6vectorINS3_5model8MutationENSD_ISK_EEEEONS_8functionIFvRKNS3_4util6StatusEEEEE3$_3NSD_ISX_EEFvRKNSQ_8StatusOrIN4grpc10ByteBufferEEEEE18destroy_deallocateEv', symObjAddr: 0x5238, symBinAddr: 0x31AD0, symSize: 0x50 }
  - { offsetInCU: 0x7FAA0, offset: 0x29F3AF, size: 0x8, addend: 0x0, symName: '__ZNSt3__110__function6__funcIZN8firebase9firestore6remote9Datastore30CommitMutationsWithCredentialsERKNS3_11credentials9AuthTokenERKNS_12basic_stringIcNS_11char_traitsIcEENS_9allocatorIcEEEERKNS_6vectorINS3_5model8MutationENSD_ISK_EEEEONS_8functionIFvRKNS3_4util6StatusEEEEE3$_3NSD_ISX_EEFvRKNSQ_8StatusOrIN4grpc10ByteBufferEEEEEclES14_', symObjAddr: 0x5288, symBinAddr: 0x31B20, symSize: 0x9C }
  - { offsetInCU: 0x7FCEA, offset: 0x29F5F9, size: 0x8, addend: 0x0, symName: '__ZNKSt3__110__function6__funcIZN8firebase9firestore6remote9Datastore30CommitMutationsWithCredentialsERKNS3_11credentials9AuthTokenERKNS_12basic_stringIcNS_11char_traitsIcEENS_9allocatorIcEEEERKNS_6vectorINS3_5model8MutationENSD_ISK_EEEEONS_8functionIFvRKNS3_4util6StatusEEEEE3$_3NSD_ISX_EEFvRKNSQ_8StatusOrIN4grpc10ByteBufferEEEEE6targetERKSt9type_info', symObjAddr: 0x5324, symBinAddr: 0x31BBC, symSize: 0x3C }
  - { offsetInCU: 0x7FCF5, offset: 0x29F604, size: 0x8, addend: 0x0, symName: '__ZNKSt3__110__function6__funcIZN8firebase9firestore6remote9Datastore30CommitMutationsWithCredentialsERKNS3_11credentials9AuthTokenERKNS_12basic_stringIcNS_11char_traitsIcEENS_9allocatorIcEEEERKNS_6vectorINS3_5model8MutationENSD_ISK_EEEEONS_8functionIFvRKNS3_4util6StatusEEEEE3$_3NSD_ISX_EEFvRKNSQ_8StatusOrIN4grpc10ByteBufferEEEEE6targetERKSt9type_info', symObjAddr: 0x5324, symBinAddr: 0x31BBC, symSize: 0x3C }
  - { offsetInCU: 0x7FD42, offset: 0x29F651, size: 0x8, addend: 0x0, symName: '__ZNKSt3__110__function6__funcIZN8firebase9firestore6remote9Datastore30CommitMutationsWithCredentialsERKNS3_11credentials9AuthTokenERKNS_12basic_stringIcNS_11char_traitsIcEENS_9allocatorIcEEEERKNS_6vectorINS3_5model8MutationENSD_ISK_EEEEONS_8functionIFvRKNS3_4util6StatusEEEEE3$_3NSD_ISX_EEFvRKNSQ_8StatusOrIN4grpc10ByteBufferEEEEE11target_typeEv', symObjAddr: 0x5360, symBinAddr: 0x31BF8, symSize: 0xC }
  - { offsetInCU: 0x7FFF1, offset: 0x29F900, size: 0x8, addend: 0x0, symName: __ZNSt3__16__treeINS_12__value_typeIN4grpc10string_refES3_EENS_19__map_value_compareIS3_S4_NS_4lessIS3_EELb1EEENS_9allocatorIS4_EEE7destroyEPNS_11__tree_nodeIS4_PvEE, symObjAddr: 0x5650, symBinAddr: 0x31E84, symSize: 0x40 }
  - { offsetInCU: 0x8044F, offset: 0x29FD5E, size: 0x8, addend: 0x0, symName: __ZNSt3__16vectorIN8firebase9firestore5model11DocumentKeyENS_9allocatorIS4_EEE11__vallocateB7v160006Em, symObjAddr: 0x5750, symBinAddr: 0x31F84, symSize: 0x40 }
  - { offsetInCU: 0x804C8, offset: 0x29FDD7, size: 0x8, addend: 0x0, symName: __ZNKSt3__16vectorIN8firebase9firestore5model11DocumentKeyENS_9allocatorIS4_EEE20__throw_length_errorB7v160006Ev, symObjAddr: 0x5790, symBinAddr: 0x31FC4, symSize: 0x14 }
  - { offsetInCU: 0x804DA, offset: 0x29FDE9, size: 0x8, addend: 0x0, symName: __ZNSt3__128__exception_guard_exceptionsINS_6vectorIN8firebase9firestore5model11DocumentKeyENS_9allocatorIS5_EEE16__destroy_vectorEED2B7v160006Ev, symObjAddr: 0x5830, symBinAddr: 0x3200C, symSize: 0x34 }
  - { offsetInCU: 0x8052C, offset: 0x29FE3B, size: 0x8, addend: 0x0, symName: __ZNKSt3__16vectorIN8firebase9firestore5model11DocumentKeyENS_9allocatorIS4_EEE20__throw_length_errorB7v160006Ev, symObjAddr: 0x5790, symBinAddr: 0x31FC4, symSize: 0x14 }
  - { offsetInCU: 0x80554, offset: 0x29FE63, size: 0x8, addend: 0x0, symName: __ZNSt3__119__allocate_at_leastB7v160006INS_9allocatorIN8firebase9firestore5model11DocumentKeyEEEEENS_19__allocation_resultINS_16allocator_traitsIT_E7pointerEEERS9_m, symObjAddr: 0x57A4, symBinAddr: 0x31FD8, symSize: 0x34 }
  - { offsetInCU: 0x805D6, offset: 0x29FEE5, size: 0x8, addend: 0x0, symName: __ZNSt3__16vectorIN8firebase9firestore5model11DocumentKeyENS_9allocatorIS4_EEE16__destroy_vectorclB7v160006Ev, symObjAddr: 0x5864, symBinAddr: 0x32040, symSize: 0x70 }
  - { offsetInCU: 0x809B7, offset: 0x2A02C6, size: 0x8, addend: 0x0, symName: '__ZNSt3__110__function6__funcIZN8firebase9firestore6remote9Datastore15LookupDocumentsERKNS_6vectorINS3_5model11DocumentKeyENS_9allocatorIS8_EEEEONS_8functionIFvRKNS3_4util8StatusOrINS6_INS7_8DocumentENS9_ISH_EEEEEEEEEE3$_4NS9_ISQ_EEFvRKNSG_INS3_11credentials9AuthTokenEEERKNS_12basic_stringIcNS_11char_traitsIcEENS9_IcEEEEEED1Ev', symObjAddr: 0x5970, symBinAddr: 0x3214C, symSize: 0x64 }
  - { offsetInCU: 0x80B9C, offset: 0x2A04AB, size: 0x8, addend: 0x0, symName: '__ZNSt3__110__function6__funcIZN8firebase9firestore6remote9Datastore15LookupDocumentsERKNS_6vectorINS3_5model11DocumentKeyENS_9allocatorIS8_EEEEONS_8functionIFvRKNS3_4util8StatusOrINS6_INS7_8DocumentENS9_ISH_EEEEEEEEEE3$_4NS9_ISQ_EEFvRKNSG_INS3_11credentials9AuthTokenEEERKNS_12basic_stringIcNS_11char_traitsIcEENS9_IcEEEEEED0Ev', symObjAddr: 0x59D4, symBinAddr: 0x321B0, symSize: 0x64 }
  - { offsetInCU: 0x80F78, offset: 0x2A0887, size: 0x8, addend: 0x0, symName: '__ZNKSt3__110__function6__funcIZN8firebase9firestore6remote9Datastore15LookupDocumentsERKNS_6vectorINS3_5model11DocumentKeyENS_9allocatorIS8_EEEEONS_8functionIFvRKNS3_4util8StatusOrINS6_INS7_8DocumentENS9_ISH_EEEEEEEEEE3$_4NS9_ISQ_EEFvRKNSG_INS3_11credentials9AuthTokenEEERKNS_12basic_stringIcNS_11char_traitsIcEENS9_IcEEEEEE7__cloneEv', symObjAddr: 0x5A38, symBinAddr: 0x32214, symSize: 0x54 }
  - { offsetInCU: 0x81219, offset: 0x2A0B28, size: 0x8, addend: 0x0, symName: '__ZNSt3__122__compressed_pair_elemIZN8firebase9firestore6remote9Datastore15LookupDocumentsERKNS_6vectorINS2_5model11DocumentKeyENS_9allocatorIS7_EEEEONS_8functionIFvRKNS2_4util8StatusOrINS5_INS6_8DocumentENS8_ISG_EEEEEEEEEE3$_4Li0ELb0EEC2B7v160006IJRKSP_EJLm0EEEENS_21piecewise_construct_tENS_5tupleIJDpT_EEENS_15__tuple_indicesIJXspT0_EEEE', symObjAddr: 0x5C8C, symBinAddr: 0x32468, symSize: 0x68 }
  - { offsetInCU: 0x81501, offset: 0x2A0E10, size: 0x8, addend: 0x0, symName: '__ZNKSt3__110__function6__funcIZN8firebase9firestore6remote9Datastore15LookupDocumentsERKNS_6vectorINS3_5model11DocumentKeyENS_9allocatorIS8_EEEEONS_8functionIFvRKNS3_4util8StatusOrINS6_INS7_8DocumentENS9_ISH_EEEEEEEEEE3$_4NS9_ISQ_EEFvRKNSG_INS3_11credentials9AuthTokenEEERKNS_12basic_stringIcNS_11char_traitsIcEENS9_IcEEEEEE7__cloneEPNS0_6__baseIS14_EE', symObjAddr: 0x5A8C, symBinAddr: 0x32268, symSize: 0x1C }
  - { offsetInCU: 0x8165D, offset: 0x2A0F6C, size: 0x8, addend: 0x0, symName: '__ZNSt3__110__function6__funcIZN8firebase9firestore6remote9Datastore15LookupDocumentsERKNS_6vectorINS3_5model11DocumentKeyENS_9allocatorIS8_EEEEONS_8functionIFvRKNS3_4util8StatusOrINS6_INS7_8DocumentENS9_ISH_EEEEEEEEEE3$_4NS9_ISQ_EEFvRKNSG_INS3_11credentials9AuthTokenEEERKNS_12basic_stringIcNS_11char_traitsIcEENS9_IcEEEEEE7destroyEv', symObjAddr: 0x5AA8, symBinAddr: 0x32284, symSize: 0x50 }
  - { offsetInCU: 0x817F2, offset: 0x2A1101, size: 0x8, addend: 0x0, symName: '__ZNSt3__110__function6__funcIZN8firebase9firestore6remote9Datastore15LookupDocumentsERKNS_6vectorINS3_5model11DocumentKeyENS_9allocatorIS8_EEEEONS_8functionIFvRKNS3_4util8StatusOrINS6_INS7_8DocumentENS9_ISH_EEEEEEEEEE3$_4NS9_ISQ_EEFvRKNSG_INS3_11credentials9AuthTokenEEERKNS_12basic_stringIcNS_11char_traitsIcEENS9_IcEEEEEE18destroy_deallocateEv', symObjAddr: 0x5AF8, symBinAddr: 0x322D4, symSize: 0x58 }
  - { offsetInCU: 0x81BB2, offset: 0x2A14C1, size: 0x8, addend: 0x0, symName: '__ZNSt3__110__function6__funcIZN8firebase9firestore6remote9Datastore15LookupDocumentsERKNS_6vectorINS3_5model11DocumentKeyENS_9allocatorIS8_EEEEONS_8functionIFvRKNS3_4util8StatusOrINS6_INS7_8DocumentENS9_ISH_EEEEEEEEEE3$_4NS9_ISQ_EEFvRKNSG_INS3_11credentials9AuthTokenEEERKNS_12basic_stringIcNS_11char_traitsIcEENS9_IcEEEEEEclESW_S13_', symObjAddr: 0x5B50, symBinAddr: 0x3232C, symSize: 0x90 }
  - { offsetInCU: 0x81E7E, offset: 0x2A178D, size: 0x8, addend: 0x0, symName: __ZN8firebase9firestore4util17internal_statusor12StatusOrDataINSt3__16vectorINS0_5model8DocumentENS4_9allocatorIS7_EEEEEC2ERKNS1_6StatusE, symObjAddr: 0x5CF4, symBinAddr: 0x324D0, symSize: 0x60 }
  - { offsetInCU: 0x820F3, offset: 0x2A1A02, size: 0x8, addend: 0x0, symName: __ZN8firebase9firestore4util17internal_statusor12StatusOrDataINSt3__16vectorINS0_5model8DocumentENS4_9allocatorIS7_EEEEED2Ev, symObjAddr: 0x5E18, symBinAddr: 0x32530, symSize: 0x38 }
  - { offsetInCU: 0x821DF, offset: 0x2A1AEE, size: 0x8, addend: 0x0, symName: '__ZNKSt3__110__function6__funcIZN8firebase9firestore6remote9Datastore15LookupDocumentsERKNS_6vectorINS3_5model11DocumentKeyENS_9allocatorIS8_EEEEONS_8functionIFvRKNS3_4util8StatusOrINS6_INS7_8DocumentENS9_ISH_EEEEEEEEEE3$_4NS9_ISQ_EEFvRKNSG_INS3_11credentials9AuthTokenEEERKNS_12basic_stringIcNS_11char_traitsIcEENS9_IcEEEEEE6targetERKSt9type_info', symObjAddr: 0x5BE0, symBinAddr: 0x323BC, symSize: 0x3C }
  - { offsetInCU: 0x8222C, offset: 0x2A1B3B, size: 0x8, addend: 0x0, symName: '__ZNKSt3__110__function6__funcIZN8firebase9firestore6remote9Datastore15LookupDocumentsERKNS_6vectorINS3_5model11DocumentKeyENS_9allocatorIS8_EEEEONS_8functionIFvRKNS3_4util8StatusOrINS6_INS7_8DocumentENS9_ISH_EEEEEEEEEE3$_4NS9_ISQ_EEFvRKNSG_INS3_11credentials9AuthTokenEEERKNS_12basic_stringIcNS_11char_traitsIcEENS9_IcEEEEEE11target_typeEv', symObjAddr: 0x5C1C, symBinAddr: 0x323F8, symSize: 0xC }
  - { offsetInCU: 0x828ED, offset: 0x2A21FC, size: 0x8, addend: 0x0, symName: __ZNSt3__16vectorIN8firebase9firestore5model8DocumentENS_9allocatorIS4_EEED2B7v160006Ev, symObjAddr: 0x5E50, symBinAddr: 0x32568, symSize: 0x38 }
  - { offsetInCU: 0x829C6, offset: 0x2A22D5, size: 0x8, addend: 0x0, symName: __ZNSt3__16vectorIN8firebase9firestore5model8DocumentENS_9allocatorIS4_EEE16__destroy_vectorclB7v160006Ev, symObjAddr: 0x5E88, symBinAddr: 0x325A0, symSize: 0x40 }
  - { offsetInCU: 0x82B33, offset: 0x2A2442, size: 0x8, addend: 0x0, symName: __ZNSt3__16vectorIN8firebase9firestore5model8DocumentENS_9allocatorIS4_EEE22__base_destruct_at_endB7v160006EPS4_, symObjAddr: 0x5EC8, symBinAddr: 0x325E0, symSize: 0x58 }
  - { offsetInCU: 0x82EC2, offset: 0x2A27D1, size: 0x8, addend: 0x0, symName: '__ZNSt3__110__function6__funcIZN8firebase9firestore6remote9Datastore30LookupDocumentsWithCredentialsERKNS3_11credentials9AuthTokenERKNS_12basic_stringIcNS_11char_traitsIcEENS_9allocatorIcEEEERKNS_6vectorINS3_5model11DocumentKeyENSD_ISK_EEEEONS_8functionIFvRKNS3_4util8StatusOrINSI_INSJ_8DocumentENSD_ISS_EEEEEEEEEE3$_5NSD_IS11_EEFvNSI_IN4grpc10ByteBufferENSD_IS14_EEEEEED1Ev', symObjAddr: 0x5FB4, symBinAddr: 0x32674, symSize: 0x5C }
  - { offsetInCU: 0x83077, offset: 0x2A2986, size: 0x8, addend: 0x0, symName: '__ZNSt3__110__function6__funcIZN8firebase9firestore6remote9Datastore30LookupDocumentsWithCredentialsERKNS3_11credentials9AuthTokenERKNS_12basic_stringIcNS_11char_traitsIcEENS_9allocatorIcEEEERKNS_6vectorINS3_5model11DocumentKeyENSD_ISK_EEEEONS_8functionIFvRKNS3_4util8StatusOrINSI_INSJ_8DocumentENSD_ISS_EEEEEEEEEE3$_5NSD_IS11_EEFvNSI_IN4grpc10ByteBufferENSD_IS14_EEEEEED0Ev', symObjAddr: 0x6010, symBinAddr: 0x326D0, symSize: 0x5C }
  - { offsetInCU: 0x834E5, offset: 0x2A2DF4, size: 0x8, addend: 0x0, symName: '__ZNKSt3__110__function6__funcIZN8firebase9firestore6remote9Datastore30LookupDocumentsWithCredentialsERKNS3_11credentials9AuthTokenERKNS_12basic_stringIcNS_11char_traitsIcEENS_9allocatorIcEEEERKNS_6vectorINS3_5model11DocumentKeyENSD_ISK_EEEEONS_8functionIFvRKNS3_4util8StatusOrINSI_INSJ_8DocumentENSD_ISS_EEEEEEEEEE3$_5NSD_IS11_EEFvNSI_IN4grpc10ByteBufferENSD_IS14_EEEEEE7__cloneEv', symObjAddr: 0x606C, symBinAddr: 0x3272C, symSize: 0x58 }
  - { offsetInCU: 0x839A2, offset: 0x2A32B1, size: 0x8, addend: 0x0, symName: '__ZNKSt3__110__function6__funcIZN8firebase9firestore6remote9Datastore30LookupDocumentsWithCredentialsERKNS3_11credentials9AuthTokenERKNS_12basic_stringIcNS_11char_traitsIcEENS_9allocatorIcEEEERKNS_6vectorINS3_5model11DocumentKeyENSD_ISK_EEEEONS_8functionIFvRKNS3_4util8StatusOrINSI_INSJ_8DocumentENSD_ISS_EEEEEEEEEE3$_5NSD_IS11_EEFvNSI_IN4grpc10ByteBufferENSD_IS14_EEEEEE7__cloneEPNS0_6__baseIS17_EE', symObjAddr: 0x60C4, symBinAddr: 0x32784, symSize: 0x20 }
  - { offsetInCU: 0x839DC, offset: 0x2A32EB, size: 0x8, addend: 0x0, symName: '__ZNKSt3__110__function6__funcIZN8firebase9firestore6remote9Datastore30LookupDocumentsWithCredentialsERKNS3_11credentials9AuthTokenERKNS_12basic_stringIcNS_11char_traitsIcEENS_9allocatorIcEEEERKNS_6vectorINS3_5model11DocumentKeyENSD_ISK_EEEEONS_8functionIFvRKNS3_4util8StatusOrINSI_INSJ_8DocumentENSD_ISS_EEEEEEEEEE3$_5NSD_IS11_EEFvNSI_IN4grpc10ByteBufferENSD_IS14_EEEEEE7__cloneEPNS0_6__baseIS17_EE', symObjAddr: 0x60C4, symBinAddr: 0x32784, symSize: 0x20 }
  - { offsetInCU: 0x83A0C, offset: 0x2A331B, size: 0x8, addend: 0x0, symName: '__ZNKSt3__110__function6__funcIZN8firebase9firestore6remote9Datastore30LookupDocumentsWithCredentialsERKNS3_11credentials9AuthTokenERKNS_12basic_stringIcNS_11char_traitsIcEENS_9allocatorIcEEEERKNS_6vectorINS3_5model11DocumentKeyENSD_ISK_EEEEONS_8functionIFvRKNS3_4util8StatusOrINSI_INSJ_8DocumentENSD_ISS_EEEEEEEEEE3$_5NSD_IS11_EEFvNSI_IN4grpc10ByteBufferENSD_IS14_EEEEEE7__cloneEPNS0_6__baseIS17_EE', symObjAddr: 0x60C4, symBinAddr: 0x32784, symSize: 0x20 }
  - { offsetInCU: 0x83BC6, offset: 0x2A34D5, size: 0x8, addend: 0x0, symName: '__ZNSt3__110__function6__funcIZN8firebase9firestore6remote9Datastore30LookupDocumentsWithCredentialsERKNS3_11credentials9AuthTokenERKNS_12basic_stringIcNS_11char_traitsIcEENS_9allocatorIcEEEERKNS_6vectorINS3_5model11DocumentKeyENSD_ISK_EEEEONS_8functionIFvRKNS3_4util8StatusOrINSI_INSJ_8DocumentENSD_ISS_EEEEEEEEEE3$_5NSD_IS11_EEFvNSI_IN4grpc10ByteBufferENSD_IS14_EEEEEE7destroyEv', symObjAddr: 0x60E4, symBinAddr: 0x327A4, symSize: 0x34 }
  - { offsetInCU: 0x83BF0, offset: 0x2A34FF, size: 0x8, addend: 0x0, symName: '__ZNSt3__110__function6__funcIZN8firebase9firestore6remote9Datastore30LookupDocumentsWithCredentialsERKNS3_11credentials9AuthTokenERKNS_12basic_stringIcNS_11char_traitsIcEENS_9allocatorIcEEEERKNS_6vectorINS3_5model11DocumentKeyENSD_ISK_EEEEONS_8functionIFvRKNS3_4util8StatusOrINSI_INSJ_8DocumentENSD_ISS_EEEEEEEEEE3$_5NSD_IS11_EEFvNSI_IN4grpc10ByteBufferENSD_IS14_EEEEEE7destroyEv', symObjAddr: 0x60E4, symBinAddr: 0x327A4, symSize: 0x34 }
  - { offsetInCU: 0x83C0E, offset: 0x2A351D, size: 0x8, addend: 0x0, symName: '__ZNSt3__110__function6__funcIZN8firebase9firestore6remote9Datastore30LookupDocumentsWithCredentialsERKNS3_11credentials9AuthTokenERKNS_12basic_stringIcNS_11char_traitsIcEENS_9allocatorIcEEEERKNS_6vectorINS3_5model11DocumentKeyENSD_ISK_EEEEONS_8functionIFvRKNS3_4util8StatusOrINSI_INSJ_8DocumentENSD_ISS_EEEEEEEEEE3$_5NSD_IS11_EEFvNSI_IN4grpc10ByteBufferENSD_IS14_EEEEEE7destroyEv', symObjAddr: 0x60E4, symBinAddr: 0x327A4, symSize: 0x34 }
  - { offsetInCU: 0x83C2B, offset: 0x2A353A, size: 0x8, addend: 0x0, symName: '__ZNSt3__110__function6__funcIZN8firebase9firestore6remote9Datastore30LookupDocumentsWithCredentialsERKNS3_11credentials9AuthTokenERKNS_12basic_stringIcNS_11char_traitsIcEENS_9allocatorIcEEEERKNS_6vectorINS3_5model11DocumentKeyENSD_ISK_EEEEONS_8functionIFvRKNS3_4util8StatusOrINSI_INSJ_8DocumentENSD_ISS_EEEEEEEEEE3$_5NSD_IS11_EEFvNSI_IN4grpc10ByteBufferENSD_IS14_EEEEEE7destroyEv', symObjAddr: 0x60E4, symBinAddr: 0x327A4, symSize: 0x34 }
  - { offsetInCU: 0x83C48, offset: 0x2A3557, size: 0x8, addend: 0x0, symName: '__ZNSt3__110__function6__funcIZN8firebase9firestore6remote9Datastore30LookupDocumentsWithCredentialsERKNS3_11credentials9AuthTokenERKNS_12basic_stringIcNS_11char_traitsIcEENS_9allocatorIcEEEERKNS_6vectorINS3_5model11DocumentKeyENSD_ISK_EEEEONS_8functionIFvRKNS3_4util8StatusOrINSI_INSJ_8DocumentENSD_ISS_EEEEEEEEEE3$_5NSD_IS11_EEFvNSI_IN4grpc10ByteBufferENSD_IS14_EEEEEE7destroyEv', symObjAddr: 0x60E4, symBinAddr: 0x327A4, symSize: 0x34 }
  - { offsetInCU: 0x83C65, offset: 0x2A3574, size: 0x8, addend: 0x0, symName: '__ZNSt3__110__function6__funcIZN8firebase9firestore6remote9Datastore30LookupDocumentsWithCredentialsERKNS3_11credentials9AuthTokenERKNS_12basic_stringIcNS_11char_traitsIcEENS_9allocatorIcEEEERKNS_6vectorINS3_5model11DocumentKeyENSD_ISK_EEEEONS_8functionIFvRKNS3_4util8StatusOrINSI_INSJ_8DocumentENSD_ISS_EEEEEEEEEE3$_5NSD_IS11_EEFvNSI_IN4grpc10ByteBufferENSD_IS14_EEEEEE7destroyEv', symObjAddr: 0x60E4, symBinAddr: 0x327A4, symSize: 0x34 }
  - { offsetInCU: 0x83C82, offset: 0x2A3591, size: 0x8, addend: 0x0, symName: '__ZNSt3__110__function6__funcIZN8firebase9firestore6remote9Datastore30LookupDocumentsWithCredentialsERKNS3_11credentials9AuthTokenERKNS_12basic_stringIcNS_11char_traitsIcEENS_9allocatorIcEEEERKNS_6vectorINS3_5model11DocumentKeyENSD_ISK_EEEEONS_8functionIFvRKNS3_4util8StatusOrINSI_INSJ_8DocumentENSD_ISS_EEEEEEEEEE3$_5NSD_IS11_EEFvNSI_IN4grpc10ByteBufferENSD_IS14_EEEEEE7destroyEv', symObjAddr: 0x60E4, symBinAddr: 0x327A4, symSize: 0x34 }
  - { offsetInCU: 0x83D2A, offset: 0x2A3639, size: 0x8, addend: 0x0, symName: '__ZNSt3__110__function6__funcIZN8firebase9firestore6remote9Datastore30LookupDocumentsWithCredentialsERKNS3_11credentials9AuthTokenERKNS_12basic_stringIcNS_11char_traitsIcEENS_9allocatorIcEEEERKNS_6vectorINS3_5model11DocumentKeyENSD_ISK_EEEEONS_8functionIFvRKNS3_4util8StatusOrINSI_INSJ_8DocumentENSD_ISS_EEEEEEEEEE3$_5NSD_IS11_EEFvNSI_IN4grpc10ByteBufferENSD_IS14_EEEEEE18destroy_deallocateEv', symObjAddr: 0x6118, symBinAddr: 0x327D8, symSize: 0x50 }
  - { offsetInCU: 0x83FC4, offset: 0x2A38D3, size: 0x8, addend: 0x0, symName: '__ZNSt3__110__function6__funcIZN8firebase9firestore6remote9Datastore30LookupDocumentsWithCredentialsERKNS3_11credentials9AuthTokenERKNS_12basic_stringIcNS_11char_traitsIcEENS_9allocatorIcEEEERKNS_6vectorINS3_5model11DocumentKeyENSD_ISK_EEEEONS_8functionIFvRKNS3_4util8StatusOrINSI_INSJ_8DocumentENSD_ISS_EEEEEEEEEE3$_5NSD_IS11_EEFvNSI_IN4grpc10ByteBufferENSD_IS14_EEEEEEclEOS16_', symObjAddr: 0x6168, symBinAddr: 0x32828, symSize: 0x70 }
  - { offsetInCU: 0x84177, offset: 0x2A3A86, size: 0x8, addend: 0x0, symName: '__ZNKSt3__110__function6__funcIZN8firebase9firestore6remote9Datastore30LookupDocumentsWithCredentialsERKNS3_11credentials9AuthTokenERKNS_12basic_stringIcNS_11char_traitsIcEENS_9allocatorIcEEEERKNS_6vectorINS3_5model11DocumentKeyENSD_ISK_EEEEONS_8functionIFvRKNS3_4util8StatusOrINSI_INSJ_8DocumentENSD_ISS_EEEEEEEEEE3$_5NSD_IS11_EEFvNSI_IN4grpc10ByteBufferENSD_IS14_EEEEEE6targetERKSt9type_info', symObjAddr: 0x61D8, symBinAddr: 0x32898, symSize: 0x3C }
  - { offsetInCU: 0x841C4, offset: 0x2A3AD3, size: 0x8, addend: 0x0, symName: '__ZNKSt3__110__function6__funcIZN8firebase9firestore6remote9Datastore30LookupDocumentsWithCredentialsERKNS3_11credentials9AuthTokenERKNS_12basic_stringIcNS_11char_traitsIcEENS_9allocatorIcEEEERKNS_6vectorINS3_5model11DocumentKeyENSD_ISK_EEEEONS_8functionIFvRKNS3_4util8StatusOrINSI_INSJ_8DocumentENSD_ISS_EEEEEEEEEE3$_5NSD_IS11_EEFvNSI_IN4grpc10ByteBufferENSD_IS14_EEEEEE11target_typeEv', symObjAddr: 0x6214, symBinAddr: 0x328D4, symSize: 0xC }
  - { offsetInCU: 0x8428B, offset: 0x2A3B9A, size: 0x8, addend: 0x0, symName: '__ZNSt3__110__function6__funcIZN8firebase9firestore6remote9Datastore30LookupDocumentsWithCredentialsERKNS3_11credentials9AuthTokenERKNS_12basic_stringIcNS_11char_traitsIcEENS_9allocatorIcEEEERKNS_6vectorINS3_5model11DocumentKeyENSD_ISK_EEEEONS_8functionIFvRKNS3_4util8StatusOrINSI_INSJ_8DocumentENSD_ISS_EEEEEEEEEE3$_6NSD_IS11_EEFvRKNSQ_6StatusEbEED1Ev', symObjAddr: 0x6220, symBinAddr: 0x328E0, symSize: 0x5C }
  - { offsetInCU: 0x84440, offset: 0x2A3D4F, size: 0x8, addend: 0x0, symName: '__ZNSt3__110__function6__funcIZN8firebase9firestore6remote9Datastore30LookupDocumentsWithCredentialsERKNS3_11credentials9AuthTokenERKNS_12basic_stringIcNS_11char_traitsIcEENS_9allocatorIcEEEERKNS_6vectorINS3_5model11DocumentKeyENSD_ISK_EEEEONS_8functionIFvRKNS3_4util8StatusOrINSI_INSJ_8DocumentENSD_ISS_EEEEEEEEEE3$_6NSD_IS11_EEFvRKNSQ_6StatusEbEED0Ev', symObjAddr: 0x627C, symBinAddr: 0x3293C, symSize: 0x5C }
  - { offsetInCU: 0x848AE, offset: 0x2A41BD, size: 0x8, addend: 0x0, symName: '__ZNKSt3__110__function6__funcIZN8firebase9firestore6remote9Datastore30LookupDocumentsWithCredentialsERKNS3_11credentials9AuthTokenERKNS_12basic_stringIcNS_11char_traitsIcEENS_9allocatorIcEEEERKNS_6vectorINS3_5model11DocumentKeyENSD_ISK_EEEEONS_8functionIFvRKNS3_4util8StatusOrINSI_INSJ_8DocumentENSD_ISS_EEEEEEEEEE3$_6NSD_IS11_EEFvRKNSQ_6StatusEbEE7__cloneEv', symObjAddr: 0x62D8, symBinAddr: 0x32998, symSize: 0x60 }
  - { offsetInCU: 0x84D6B, offset: 0x2A467A, size: 0x8, addend: 0x0, symName: '__ZNKSt3__110__function6__funcIZN8firebase9firestore6remote9Datastore30LookupDocumentsWithCredentialsERKNS3_11credentials9AuthTokenERKNS_12basic_stringIcNS_11char_traitsIcEENS_9allocatorIcEEEERKNS_6vectorINS3_5model11DocumentKeyENSD_ISK_EEEEONS_8functionIFvRKNS3_4util8StatusOrINSI_INSJ_8DocumentENSD_ISS_EEEEEEEEEE3$_6NSD_IS11_EEFvRKNSQ_6StatusEbEE7__cloneEPNS0_6__baseIS16_EE', symObjAddr: 0x6338, symBinAddr: 0x329F8, symSize: 0x44 }
  - { offsetInCU: 0x84F92, offset: 0x2A48A1, size: 0x8, addend: 0x0, symName: '__ZNSt3__110__function6__funcIZN8firebase9firestore6remote9Datastore30LookupDocumentsWithCredentialsERKNS3_11credentials9AuthTokenERKNS_12basic_stringIcNS_11char_traitsIcEENS_9allocatorIcEEEERKNS_6vectorINS3_5model11DocumentKeyENSD_ISK_EEEEONS_8functionIFvRKNS3_4util8StatusOrINSI_INSJ_8DocumentENSD_ISS_EEEEEEEEEE3$_6NSD_IS11_EEFvRKNSQ_6StatusEbEE7destroyEv', symObjAddr: 0x637C, symBinAddr: 0x32A3C, symSize: 0x34 }
  - { offsetInCU: 0x84FBC, offset: 0x2A48CB, size: 0x8, addend: 0x0, symName: '__ZNSt3__110__function6__funcIZN8firebase9firestore6remote9Datastore30LookupDocumentsWithCredentialsERKNS3_11credentials9AuthTokenERKNS_12basic_stringIcNS_11char_traitsIcEENS_9allocatorIcEEEERKNS_6vectorINS3_5model11DocumentKeyENSD_ISK_EEEEONS_8functionIFvRKNS3_4util8StatusOrINSI_INSJ_8DocumentENSD_ISS_EEEEEEEEEE3$_6NSD_IS11_EEFvRKNSQ_6StatusEbEE7destroyEv', symObjAddr: 0x637C, symBinAddr: 0x32A3C, symSize: 0x34 }
  - { offsetInCU: 0x84FDA, offset: 0x2A48E9, size: 0x8, addend: 0x0, symName: '__ZNSt3__110__function6__funcIZN8firebase9firestore6remote9Datastore30LookupDocumentsWithCredentialsERKNS3_11credentials9AuthTokenERKNS_12basic_stringIcNS_11char_traitsIcEENS_9allocatorIcEEEERKNS_6vectorINS3_5model11DocumentKeyENSD_ISK_EEEEONS_8functionIFvRKNS3_4util8StatusOrINSI_INSJ_8DocumentENSD_ISS_EEEEEEEEEE3$_6NSD_IS11_EEFvRKNSQ_6StatusEbEE7destroyEv', symObjAddr: 0x637C, symBinAddr: 0x32A3C, symSize: 0x34 }
  - { offsetInCU: 0x84FF7, offset: 0x2A4906, size: 0x8, addend: 0x0, symName: '__ZNSt3__110__function6__funcIZN8firebase9firestore6remote9Datastore30LookupDocumentsWithCredentialsERKNS3_11credentials9AuthTokenERKNS_12basic_stringIcNS_11char_traitsIcEENS_9allocatorIcEEEERKNS_6vectorINS3_5model11DocumentKeyENSD_ISK_EEEEONS_8functionIFvRKNS3_4util8StatusOrINSI_INSJ_8DocumentENSD_ISS_EEEEEEEEEE3$_6NSD_IS11_EEFvRKNSQ_6StatusEbEE7destroyEv', symObjAddr: 0x637C, symBinAddr: 0x32A3C, symSize: 0x34 }
  - { offsetInCU: 0x85014, offset: 0x2A4923, size: 0x8, addend: 0x0, symName: '__ZNSt3__110__function6__funcIZN8firebase9firestore6remote9Datastore30LookupDocumentsWithCredentialsERKNS3_11credentials9AuthTokenERKNS_12basic_stringIcNS_11char_traitsIcEENS_9allocatorIcEEEERKNS_6vectorINS3_5model11DocumentKeyENSD_ISK_EEEEONS_8functionIFvRKNS3_4util8StatusOrINSI_INSJ_8DocumentENSD_ISS_EEEEEEEEEE3$_6NSD_IS11_EEFvRKNSQ_6StatusEbEE7destroyEv', symObjAddr: 0x637C, symBinAddr: 0x32A3C, symSize: 0x34 }
  - { offsetInCU: 0x85031, offset: 0x2A4940, size: 0x8, addend: 0x0, symName: '__ZNSt3__110__function6__funcIZN8firebase9firestore6remote9Datastore30LookupDocumentsWithCredentialsERKNS3_11credentials9AuthTokenERKNS_12basic_stringIcNS_11char_traitsIcEENS_9allocatorIcEEEERKNS_6vectorINS3_5model11DocumentKeyENSD_ISK_EEEEONS_8functionIFvRKNS3_4util8StatusOrINSI_INSJ_8DocumentENSD_ISS_EEEEEEEEEE3$_6NSD_IS11_EEFvRKNSQ_6StatusEbEE7destroyEv', symObjAddr: 0x637C, symBinAddr: 0x32A3C, symSize: 0x34 }
  - { offsetInCU: 0x8504E, offset: 0x2A495D, size: 0x8, addend: 0x0, symName: '__ZNSt3__110__function6__funcIZN8firebase9firestore6remote9Datastore30LookupDocumentsWithCredentialsERKNS3_11credentials9AuthTokenERKNS_12basic_stringIcNS_11char_traitsIcEENS_9allocatorIcEEEERKNS_6vectorINS3_5model11DocumentKeyENSD_ISK_EEEEONS_8functionIFvRKNS3_4util8StatusOrINSI_INSJ_8DocumentENSD_ISS_EEEEEEEEEE3$_6NSD_IS11_EEFvRKNSQ_6StatusEbEE7destroyEv', symObjAddr: 0x637C, symBinAddr: 0x32A3C, symSize: 0x34 }
  - { offsetInCU: 0x850F6, offset: 0x2A4A05, size: 0x8, addend: 0x0, symName: '__ZNSt3__110__function6__funcIZN8firebase9firestore6remote9Datastore30LookupDocumentsWithCredentialsERKNS3_11credentials9AuthTokenERKNS_12basic_stringIcNS_11char_traitsIcEENS_9allocatorIcEEEERKNS_6vectorINS3_5model11DocumentKeyENSD_ISK_EEEEONS_8functionIFvRKNS3_4util8StatusOrINSI_INSJ_8DocumentENSD_ISS_EEEEEEEEEE3$_6NSD_IS11_EEFvRKNSQ_6StatusEbEE18destroy_deallocateEv', symObjAddr: 0x63B0, symBinAddr: 0x32A70, symSize: 0x50 }
  - { offsetInCU: 0x853B9, offset: 0x2A4CC8, size: 0x8, addend: 0x0, symName: '__ZNSt3__110__function6__funcIZN8firebase9firestore6remote9Datastore30LookupDocumentsWithCredentialsERKNS3_11credentials9AuthTokenERKNS_12basic_stringIcNS_11char_traitsIcEENS_9allocatorIcEEEERKNS_6vectorINS3_5model11DocumentKeyENSD_ISK_EEEEONS_8functionIFvRKNS3_4util8StatusOrINSI_INSJ_8DocumentENSD_ISS_EEEEEEEEEE3$_6NSD_IS11_EEFvRKNSQ_6StatusEbEEclES15_Ob', symObjAddr: 0x6400, symBinAddr: 0x32AC0, symSize: 0xE8 }
  - { offsetInCU: 0x8574F, offset: 0x2A505E, size: 0x8, addend: 0x0, symName: '__ZNKSt3__110__function6__funcIZN8firebase9firestore6remote9Datastore30LookupDocumentsWithCredentialsERKNS3_11credentials9AuthTokenERKNS_12basic_stringIcNS_11char_traitsIcEENS_9allocatorIcEEEERKNS_6vectorINS3_5model11DocumentKeyENSD_ISK_EEEEONS_8functionIFvRKNS3_4util8StatusOrINSI_INSJ_8DocumentENSD_ISS_EEEEEEEEEE3$_6NSD_IS11_EEFvRKNSQ_6StatusEbEE6targetERKSt9type_info', symObjAddr: 0x64E8, symBinAddr: 0x32BA8, symSize: 0x3C }
  - { offsetInCU: 0x8579C, offset: 0x2A50AB, size: 0x8, addend: 0x0, symName: '__ZNKSt3__110__function6__funcIZN8firebase9firestore6remote9Datastore30LookupDocumentsWithCredentialsERKNS3_11credentials9AuthTokenERKNS_12basic_stringIcNS_11char_traitsIcEENS_9allocatorIcEEEERKNS_6vectorINS3_5model11DocumentKeyENSD_ISK_EEEEONS_8functionIFvRKNS3_4util8StatusOrINSI_INSJ_8DocumentENSD_ISS_EEEEEEEEEE3$_6NSD_IS11_EEFvRKNSQ_6StatusEbEE11target_typeEv', symObjAddr: 0x6524, symBinAddr: 0x32BE4, symSize: 0xC }
  - { offsetInCU: 0x8595C, offset: 0x2A526B, size: 0x8, addend: 0x0, symName: __ZNSt3__16vectorIN8firebase9firestore5model14AggregateFieldENS_9allocatorIS4_EEE11__vallocateB7v160006Em, symObjAddr: 0x65EC, symBinAddr: 0x32CAC, symSize: 0x54 }
  - { offsetInCU: 0x859D5, offset: 0x2A52E4, size: 0x8, addend: 0x0, symName: __ZNKSt3__16vectorIN8firebase9firestore5model14AggregateFieldENS_9allocatorIS4_EEE20__throw_length_errorB7v160006Ev, symObjAddr: 0x6640, symBinAddr: 0x32D00, symSize: 0x14 }
  - { offsetInCU: 0x859E7, offset: 0x2A52F6, size: 0x8, addend: 0x0, symName: __ZNSt3__128__exception_guard_exceptionsINS_6vectorIN8firebase9firestore5model14AggregateFieldENS_9allocatorIS5_EEE16__destroy_vectorEED2B7v160006Ev, symObjAddr: 0x6870, symBinAddr: 0x32EF4, symSize: 0x34 }
  - { offsetInCU: 0x85A39, offset: 0x2A5348, size: 0x8, addend: 0x0, symName: __ZNKSt3__16vectorIN8firebase9firestore5model14AggregateFieldENS_9allocatorIS4_EEE20__throw_length_errorB7v160006Ev, symObjAddr: 0x6640, symBinAddr: 0x32D00, symSize: 0x14 }
  - { offsetInCU: 0x85A61, offset: 0x2A5370, size: 0x8, addend: 0x0, symName: __ZNSt3__119__allocate_at_leastB7v160006INS_9allocatorIN8firebase9firestore5model14AggregateFieldEEEEENS_19__allocation_resultINS_16allocator_traitsIT_E7pointerEEERS9_m, symObjAddr: 0x6654, symBinAddr: 0x32D14, symSize: 0x48 }
  - { offsetInCU: 0x85B4B, offset: 0x2A545A, size: 0x8, addend: 0x0, symName: __ZNSt3__19allocatorIN8firebase9firestore5model14AggregateFieldEE9constructB7v160006IS4_JRS4_EEEvPT_DpOT0_, symObjAddr: 0x6744, symBinAddr: 0x32E04, symSize: 0x6C }
  - { offsetInCU: 0x85E12, offset: 0x2A5721, size: 0x8, addend: 0x0, symName: __ZNSt3__128__exception_guard_exceptionsINS_29_AllocatorDestroyRangeReverseINS_9allocatorIN8firebase9firestore5model14AggregateFieldEEEPS6_EEED2B7v160006Ev, symObjAddr: 0x67B0, symBinAddr: 0x32E70, symSize: 0x34 }
  - { offsetInCU: 0x85F10, offset: 0x2A581F, size: 0x8, addend: 0x0, symName: __ZNKSt3__129_AllocatorDestroyRangeReverseINS_9allocatorIN8firebase9firestore5model14AggregateFieldEEEPS5_EclB7v160006Ev, symObjAddr: 0x67E4, symBinAddr: 0x32EA4, symSize: 0x50 }
  - { offsetInCU: 0x8644B, offset: 0x2A5D5A, size: 0x8, addend: 0x0, symName: '__ZNSt3__110__function6__funcIZN8firebase9firestore6remote9Datastore17RunAggregateQueryERKNS3_4core5QueryERKNS_6vectorINS3_5model14AggregateFieldENS_9allocatorISC_EEEEONS_8functionIFvRKNS3_4util8StatusOrINSB_11ObjectValueEEEEEEE3$_7NSD_ISS_EEFvRKNSK_INS3_11credentials9AuthTokenEEERKNS_12basic_stringIcNS_11char_traitsIcEENSD_IcEEEEEED1Ev', symObjAddr: 0x69C4, symBinAddr: 0x32F8C, symSize: 0x30 }
  - { offsetInCU: 0x86541, offset: 0x2A5E50, size: 0x8, addend: 0x0, symName: '__ZNSt3__110__function6__funcIZN8firebase9firestore6remote9Datastore17RunAggregateQueryERKNS3_4core5QueryERKNS_6vectorINS3_5model14AggregateFieldENS_9allocatorISC_EEEEONS_8functionIFvRKNS3_4util8StatusOrINSB_11ObjectValueEEEEEEE3$_7NSD_ISS_EEFvRKNSK_INS3_11credentials9AuthTokenEEERKNS_12basic_stringIcNS_11char_traitsIcEENSD_IcEEEEEED0Ev', symObjAddr: 0x69F4, symBinAddr: 0x32FBC, symSize: 0x30 }
  - { offsetInCU: 0x8682E, offset: 0x2A613D, size: 0x8, addend: 0x0, symName: '__ZNKSt3__110__function6__funcIZN8firebase9firestore6remote9Datastore17RunAggregateQueryERKNS3_4core5QueryERKNS_6vectorINS3_5model14AggregateFieldENS_9allocatorISC_EEEEONS_8functionIFvRKNS3_4util8StatusOrINSB_11ObjectValueEEEEEEE3$_7NSD_ISS_EEFvRKNSK_INS3_11credentials9AuthTokenEEERKNS_12basic_stringIcNS_11char_traitsIcEENSD_IcEEEEEE7__cloneEv', symObjAddr: 0x6A24, symBinAddr: 0x32FEC, symSize: 0x54 }
  - { offsetInCU: 0x86AD1, offset: 0x2A63E0, size: 0x8, addend: 0x0, symName: '__ZNSt3__122__compressed_pair_elemIZN8firebase9firestore6remote9Datastore17RunAggregateQueryERKNS2_4core5QueryERKNS_6vectorINS2_5model14AggregateFieldENS_9allocatorISB_EEEEONS_8functionIFvRKNS2_4util8StatusOrINSA_11ObjectValueEEEEEEE3$_7Li0ELb0EEC2B7v160006IJRKSR_EJLm0EEEENS_21piecewise_construct_tENS_5tupleIJDpT_EEENS_15__tuple_indicesIJXspT0_EEEE', symObjAddr: 0x6C04, symBinAddr: 0x331CC, symSize: 0xB4 }
  - { offsetInCU: 0x86FD2, offset: 0x2A68E1, size: 0x8, addend: 0x0, symName: '__ZNKSt3__110__function6__funcIZN8firebase9firestore6remote9Datastore17RunAggregateQueryERKNS3_4core5QueryERKNS_6vectorINS3_5model14AggregateFieldENS_9allocatorISC_EEEEONS_8functionIFvRKNS3_4util8StatusOrINSB_11ObjectValueEEEEEEE3$_7NSD_ISS_EEFvRKNSK_INS3_11credentials9AuthTokenEEERKNS_12basic_stringIcNS_11char_traitsIcEENSD_IcEEEEEE7__cloneEPNS0_6__baseIS16_EE', symObjAddr: 0x6A78, symBinAddr: 0x33040, symSize: 0x1C }
  - { offsetInCU: 0x8712E, offset: 0x2A6A3D, size: 0x8, addend: 0x0, symName: '__ZNSt3__110__function6__funcIZN8firebase9firestore6remote9Datastore17RunAggregateQueryERKNS3_4core5QueryERKNS_6vectorINS3_5model14AggregateFieldENS_9allocatorISC_EEEEONS_8functionIFvRKNS3_4util8StatusOrINSB_11ObjectValueEEEEEEE3$_7NSD_ISS_EEFvRKNSK_INS3_11credentials9AuthTokenEEERKNS_12basic_stringIcNS_11char_traitsIcEENSD_IcEEEEEE7destroyEv', symObjAddr: 0x6A94, symBinAddr: 0x3305C, symSize: 0x8 }
  - { offsetInCU: 0x871D4, offset: 0x2A6AE3, size: 0x8, addend: 0x0, symName: '__ZNSt3__110__function6__funcIZN8firebase9firestore6remote9Datastore17RunAggregateQueryERKNS3_4core5QueryERKNS_6vectorINS3_5model14AggregateFieldENS_9allocatorISC_EEEEONS_8functionIFvRKNS3_4util8StatusOrINSB_11ObjectValueEEEEEEE3$_7NSD_ISS_EEFvRKNSK_INS3_11credentials9AuthTokenEEERKNS_12basic_stringIcNS_11char_traitsIcEENSD_IcEEEEEE18destroy_deallocateEv', symObjAddr: 0x6A9C, symBinAddr: 0x33064, symSize: 0x28 }
  - { offsetInCU: 0x874AB, offset: 0x2A6DBA, size: 0x8, addend: 0x0, symName: '__ZNSt3__110__function6__funcIZN8firebase9firestore6remote9Datastore17RunAggregateQueryERKNS3_4core5QueryERKNS_6vectorINS3_5model14AggregateFieldENS_9allocatorISC_EEEEONS_8functionIFvRKNS3_4util8StatusOrINSB_11ObjectValueEEEEEEE3$_7NSD_ISS_EEFvRKNSK_INS3_11credentials9AuthTokenEEERKNS_12basic_stringIcNS_11char_traitsIcEENSD_IcEEEEEEclESY_S15_', symObjAddr: 0x6AC4, symBinAddr: 0x3308C, symSize: 0x94 }
  - { offsetInCU: 0x87791, offset: 0x2A70A0, size: 0x8, addend: 0x0, symName: __ZN8firebase9firestore4util17internal_statusor12StatusOrDataINS0_5model11ObjectValueEEC2ERKNS1_6StatusE, symObjAddr: 0x6CB8, symBinAddr: 0x33280, symSize: 0x60 }
  - { offsetInCU: 0x87A06, offset: 0x2A7315, size: 0x8, addend: 0x0, symName: __ZN8firebase9firestore4util17internal_statusor12StatusOrDataINS0_5model11ObjectValueEED2Ev, symObjAddr: 0x6D18, symBinAddr: 0x332E0, symSize: 0x38 }
  - { offsetInCU: 0x87B2A, offset: 0x2A7439, size: 0x8, addend: 0x0, symName: '__ZNKSt3__110__function6__funcIZN8firebase9firestore6remote9Datastore17RunAggregateQueryERKNS3_4core5QueryERKNS_6vectorINS3_5model14AggregateFieldENS_9allocatorISC_EEEEONS_8functionIFvRKNS3_4util8StatusOrINSB_11ObjectValueEEEEEEE3$_7NSD_ISS_EEFvRKNSK_INS3_11credentials9AuthTokenEEERKNS_12basic_stringIcNS_11char_traitsIcEENSD_IcEEEEEE6targetERKSt9type_info', symObjAddr: 0x6B58, symBinAddr: 0x33120, symSize: 0x3C }
  - { offsetInCU: 0x87B77, offset: 0x2A7486, size: 0x8, addend: 0x0, symName: '__ZNKSt3__110__function6__funcIZN8firebase9firestore6remote9Datastore17RunAggregateQueryERKNS3_4core5QueryERKNS_6vectorINS3_5model14AggregateFieldENS_9allocatorISC_EEEEONS_8functionIFvRKNS3_4util8StatusOrINSB_11ObjectValueEEEEEEE3$_7NSD_ISS_EEFvRKNSK_INS3_11credentials9AuthTokenEEERKNS_12basic_stringIcNS_11char_traitsIcEENSD_IcEEEEEE11target_typeEv', symObjAddr: 0x6B94, symBinAddr: 0x3315C, symSize: 0xC }
  - { offsetInCU: 0x87BDD, offset: 0x2A74EC, size: 0x8, addend: 0x0, symName: '__ZNSt3__122__compressed_pair_elemIZN8firebase9firestore6remote9Datastore17RunAggregateQueryERKNS2_4core5QueryERKNS_6vectorINS2_5model14AggregateFieldENS_9allocatorISB_EEEEONS_8functionIFvRKNS2_4util8StatusOrINSA_11ObjectValueEEEEEEE3$_7Li0ELb0EEC2B7v160006IJRKSR_EJLm0EEEENS_21piecewise_construct_tENS_5tupleIJDpT_EEENS_15__tuple_indicesIJXspT0_EEEE.cold.1', symObjAddr: 0xA184, symBinAddr: 0x176CAC, symSize: 0x5C }
  - { offsetInCU: 0x87F26, offset: 0x2A7835, size: 0x8, addend: 0x0, symName: '__ZNSt3__110__function6__funcIZN8firebase9firestore6remote9Datastore32RunAggregateQueryWithCredentialsERKNS3_11credentials9AuthTokenERKNS_12basic_stringIcNS_11char_traitsIcEENS_9allocatorIcEEEERKNS3_4core5QueryERKNS_6vectorINS3_5model14AggregateFieldENSD_ISO_EEEEONS_8functionIFvRKNS3_4util8StatusOrINSN_11ObjectValueEEEEEEE3$_8NSD_IS13_EEFvRKNSV_IN4grpc10ByteBufferEEEEED1Ev', symObjAddr: 0x6DC8, symBinAddr: 0x33354, symSize: 0x64 }
  - { offsetInCU: 0x88106, offset: 0x2A7A15, size: 0x8, addend: 0x0, symName: '__ZNSt3__110__function6__funcIZN8firebase9firestore6remote9Datastore32RunAggregateQueryWithCredentialsERKNS3_11credentials9AuthTokenERKNS_12basic_stringIcNS_11char_traitsIcEENS_9allocatorIcEEEERKNS3_4core5QueryERKNS_6vectorINS3_5model14AggregateFieldENSD_ISO_EEEEONS_8functionIFvRKNS3_4util8StatusOrINSN_11ObjectValueEEEEEEE3$_8NSD_IS13_EEFvRKNSV_IN4grpc10ByteBufferEEEEED0Ev', symObjAddr: 0x6E2C, symBinAddr: 0x333B8, symSize: 0x64 }
  - { offsetInCU: 0x88550, offset: 0x2A7E5F, size: 0x8, addend: 0x0, symName: '__ZNKSt3__110__function6__funcIZN8firebase9firestore6remote9Datastore32RunAggregateQueryWithCredentialsERKNS3_11credentials9AuthTokenERKNS_12basic_stringIcNS_11char_traitsIcEENS_9allocatorIcEEEERKNS3_4core5QueryERKNS_6vectorINS3_5model14AggregateFieldENSD_ISO_EEEEONS_8functionIFvRKNS3_4util8StatusOrINSN_11ObjectValueEEEEEEE3$_8NSD_IS13_EEFvRKNSV_IN4grpc10ByteBufferEEEEE7__cloneEv', symObjAddr: 0x6E90, symBinAddr: 0x3341C, symSize: 0x54 }
  - { offsetInCU: 0x887F1, offset: 0x2A8100, size: 0x8, addend: 0x0, symName: '__ZNSt3__122__compressed_pair_elemIZN8firebase9firestore6remote9Datastore32RunAggregateQueryWithCredentialsERKNS2_11credentials9AuthTokenERKNS_12basic_stringIcNS_11char_traitsIcEENS_9allocatorIcEEEERKNS2_4core5QueryERKNS_6vectorINS2_5model14AggregateFieldENSC_ISN_EEEEONS_8functionIFvRKNS2_4util8StatusOrINSM_11ObjectValueEEEEEEE3$_8Li0ELb0EEC2B7v160006IJRKS12_EJLm0EEEENS_21piecewise_construct_tENS_5tupleIJDpT_EEENS_15__tuple_indicesIJXspT0_EEEE', symObjAddr: 0x7090, symBinAddr: 0x3361C, symSize: 0x98 }
  - { offsetInCU: 0x88BAA, offset: 0x2A84B9, size: 0x8, addend: 0x0, symName: '__ZNKSt3__110__function6__funcIZN8firebase9firestore6remote9Datastore32RunAggregateQueryWithCredentialsERKNS3_11credentials9AuthTokenERKNS_12basic_stringIcNS_11char_traitsIcEENS_9allocatorIcEEEERKNS3_4core5QueryERKNS_6vectorINS3_5model14AggregateFieldENSD_ISO_EEEEONS_8functionIFvRKNS3_4util8StatusOrINSN_11ObjectValueEEEEEEE3$_8NSD_IS13_EEFvRKNSV_IN4grpc10ByteBufferEEEEE7__cloneEPNS0_6__baseIS1A_EE', symObjAddr: 0x6EE4, symBinAddr: 0x33470, symSize: 0x1C }
  - { offsetInCU: 0x88CF2, offset: 0x2A8601, size: 0x8, addend: 0x0, symName: '__ZNSt3__110__function6__funcIZN8firebase9firestore6remote9Datastore32RunAggregateQueryWithCredentialsERKNS3_11credentials9AuthTokenERKNS_12basic_stringIcNS_11char_traitsIcEENS_9allocatorIcEEEERKNS3_4core5QueryERKNS_6vectorINS3_5model14AggregateFieldENSD_ISO_EEEEONS_8functionIFvRKNS3_4util8StatusOrINSN_11ObjectValueEEEEEEE3$_8NSD_IS13_EEFvRKNSV_IN4grpc10ByteBufferEEEEE7destroyEv', symObjAddr: 0x6F00, symBinAddr: 0x3348C, symSize: 0x8 }
  - { offsetInCU: 0x88D27, offset: 0x2A8636, size: 0x8, addend: 0x0, symName: '__ZNSt3__110__function12__alloc_funcIZN8firebase9firestore6remote9Datastore32RunAggregateQueryWithCredentialsERKNS3_11credentials9AuthTokenERKNS_12basic_stringIcNS_11char_traitsIcEENS_9allocatorIcEEEERKNS3_4core5QueryERKNS_6vectorINS3_5model14AggregateFieldENSD_ISO_EEEEONS_8functionIFvRKNS3_4util8StatusOrINSN_11ObjectValueEEEEEEE3$_8NSD_IS13_EEFvRKNSV_IN4grpc10ByteBufferEEEEE7destroyB7v160006Ev', symObjAddr: 0x7CEC, symBinAddr: 0x34278, symSize: 0x60 }
  - { offsetInCU: 0x88EAA, offset: 0x2A87B9, size: 0x8, addend: 0x0, symName: '__ZNSt3__110__function6__funcIZN8firebase9firestore6remote9Datastore32RunAggregateQueryWithCredentialsERKNS3_11credentials9AuthTokenERKNS_12basic_stringIcNS_11char_traitsIcEENS_9allocatorIcEEEERKNS3_4core5QueryERKNS_6vectorINS3_5model14AggregateFieldENSD_ISO_EEEEONS_8functionIFvRKNS3_4util8StatusOrINSN_11ObjectValueEEEEEEE3$_8NSD_IS13_EEFvRKNSV_IN4grpc10ByteBufferEEEEE18destroy_deallocateEv', symObjAddr: 0x6F08, symBinAddr: 0x33494, symSize: 0x28 }
  - { offsetInCU: 0x89047, offset: 0x2A8956, size: 0x8, addend: 0x0, symName: '__ZNSt3__110__function6__funcIZN8firebase9firestore6remote9Datastore32RunAggregateQueryWithCredentialsERKNS3_11credentials9AuthTokenERKNS_12basic_stringIcNS_11char_traitsIcEENS_9allocatorIcEEEERKNS3_4core5QueryERKNS_6vectorINS3_5model14AggregateFieldENSD_ISO_EEEEONS_8functionIFvRKNS3_4util8StatusOrINSN_11ObjectValueEEEEEEE3$_8NSD_IS13_EEFvRKNSV_IN4grpc10ByteBufferEEEEEclES19_', symObjAddr: 0x6F30, symBinAddr: 0x334BC, symSize: 0x118 }
  - { offsetInCU: 0x893E4, offset: 0x2A8CF3, size: 0x8, addend: 0x0, symName: '__ZNKSt3__110__function6__funcIZN8firebase9firestore6remote9Datastore32RunAggregateQueryWithCredentialsERKNS3_11credentials9AuthTokenERKNS_12basic_stringIcNS_11char_traitsIcEENS_9allocatorIcEEEERKNS3_4core5QueryERKNS_6vectorINS3_5model14AggregateFieldENSD_ISO_EEEEONS_8functionIFvRKNS3_4util8StatusOrINSN_11ObjectValueEEEEEEE3$_8NSD_IS13_EEFvRKNSV_IN4grpc10ByteBufferEEEEE6targetERKSt9type_info', symObjAddr: 0x7048, symBinAddr: 0x335D4, symSize: 0x3C }
  - { offsetInCU: 0x89431, offset: 0x2A8D40, size: 0x8, addend: 0x0, symName: '__ZNKSt3__110__function6__funcIZN8firebase9firestore6remote9Datastore32RunAggregateQueryWithCredentialsERKNS3_11credentials9AuthTokenERKNS_12basic_stringIcNS_11char_traitsIcEENS_9allocatorIcEEEERKNS3_4core5QueryERKNS_6vectorINS3_5model14AggregateFieldENSD_ISO_EEEEONS_8functionIFvRKNS3_4util8StatusOrINSN_11ObjectValueEEEEEEE3$_8NSD_IS13_EEFvRKNSV_IN4grpc10ByteBufferEEEEE11target_typeEv', symObjAddr: 0x7084, symBinAddr: 0x33610, symSize: 0xC }
  - { offsetInCU: 0x89526, offset: 0x2A8E35, size: 0x8, addend: 0x0, symName: __ZN4absl12lts_2022062318container_internal12raw_hash_setINS1_17FlatHashMapPolicyINSt3__112basic_stringIcNS4_11char_traitsIcEENS4_9allocatorIcEEEESA_EENS1_10StringHashENS1_8StringEqENS8_INS4_4pairIKSA_SA_EEEEEC2ERKSI_RKSH_, symObjAddr: 0x7128, symBinAddr: 0x336B4, symSize: 0x27C }
  - { offsetInCU: 0x8A144, offset: 0x2A9A53, size: 0x8, addend: 0x0, symName: __ZN4absl12lts_2022062318container_internal12raw_hash_setINS1_17FlatHashMapPolicyINSt3__112basic_stringIcNS4_11char_traitsIcEENS4_9allocatorIcEEEESA_EENS1_10StringHashENS1_8StringEqENS8_INS4_4pairIKSA_SA_EEEEE7reserveEm, symObjAddr: 0x73A4, symBinAddr: 0x33930, symSize: 0x60 }
  - { offsetInCU: 0x8A17A, offset: 0x2A9A89, size: 0x8, addend: 0x0, symName: __ZN4absl12lts_2022062318container_internal12raw_hash_setINS1_17FlatHashMapPolicyINSt3__112basic_stringIcNS4_11char_traitsIcEENS4_9allocatorIcEEEESA_EENS1_10StringHashENS1_8StringEqENS8_INS4_4pairIKSA_SA_EEEEE7reserveEm, symObjAddr: 0x73A4, symBinAddr: 0x33930, symSize: 0x60 }
  - { offsetInCU: 0x8A204, offset: 0x2A9B13, size: 0x8, addend: 0x0, symName: __ZN4absl12lts_2022062318container_internal12raw_hash_setINS1_17FlatHashMapPolicyINSt3__112basic_stringIcNS4_11char_traitsIcEENS4_9allocatorIcEEEESA_EENS1_10StringHashENS1_8StringEqENS8_INS4_4pairIKSA_SA_EEEEE5beginEv, symObjAddr: 0x78F8, symBinAddr: 0x33E84, symSize: 0x70 }
  - { offsetInCU: 0x8A368, offset: 0x2A9C77, size: 0x8, addend: 0x0, symName: __ZN4absl12lts_2022062318container_internal12raw_hash_setINS1_17FlatHashMapPolicyINSt3__112basic_stringIcNS4_11char_traitsIcEENS4_9allocatorIcEEEESA_EENS1_10StringHashENS1_8StringEqENS8_INS4_4pairIKSA_SA_EEEEE8iterator21skip_empty_or_deletedEv, symObjAddr: 0x7968, symBinAddr: 0x33EF4, symSize: 0x68 }
  - { offsetInCU: 0x8A373, offset: 0x2A9C82, size: 0x8, addend: 0x0, symName: __ZN4absl12lts_2022062313hash_internal15MixingHashState18combine_contiguousES2_PKhm, symObjAddr: 0x77F4, symBinAddr: 0x33D80, symSize: 0x104 }
  - { offsetInCU: 0x8A571, offset: 0x2A9E80, size: 0x8, addend: 0x0, symName: __ZN4absl12lts_2022062318container_internal12raw_hash_setINS1_17FlatHashMapPolicyINSt3__112basic_stringIcNS4_11char_traitsIcEENS4_9allocatorIcEEEESA_EENS1_10StringHashENS1_8StringEqENS8_INS4_4pairIKSA_SA_EEEEE10emplace_atIJRKSG_EEEvmDpOT_, symObjAddr: 0x7404, symBinAddr: 0x33990, symSize: 0xA0 }
  - { offsetInCU: 0x8A91B, offset: 0x2AA22A, size: 0x8, addend: 0x0, symName: __ZN4absl12lts_2022062318container_internal12raw_hash_setINS1_17FlatHashMapPolicyINSt3__112basic_stringIcNS4_11char_traitsIcEENS4_9allocatorIcEEEESA_EENS1_10StringHashENS1_8StringEqENS8_INS4_4pairIKSA_SA_EEEEE16initialize_slotsEv, symObjAddr: 0x74A4, symBinAddr: 0x33A30, symSize: 0xA0 }
  - { offsetInCU: 0x8A931, offset: 0x2AA240, size: 0x8, addend: 0x0, symName: __ZN4absl12lts_2022062318container_internal12raw_hash_setINS1_17FlatHashMapPolicyINSt3__112basic_stringIcNS4_11char_traitsIcEENS4_9allocatorIcEEEESA_EENS1_10StringHashENS1_8StringEqENS8_INS4_4pairIKSA_SA_EEEEE8iteratorppEv, symObjAddr: 0x7CA4, symBinAddr: 0x34230, symSize: 0x48 }
  - { offsetInCU: 0x8A993, offset: 0x2AA2A2, size: 0x8, addend: 0x0, symName: '__ZNSt3__110__function12__alloc_funcIZN8firebase9firestore6remote9Datastore32RunAggregateQueryWithCredentialsERKNS3_11credentials9AuthTokenERKNS_12basic_stringIcNS_11char_traitsIcEENS_9allocatorIcEEEERKNS3_4core5QueryERKNS_6vectorINS3_5model14AggregateFieldENSD_ISO_EEEEONS_8functionIFvRKNS3_4util8StatusOrINSN_11ObjectValueEEEEEEE3$_8NSD_IS13_EEFvRKNSV_IN4grpc10ByteBufferEEEEE7destroyB7v160006Ev', symObjAddr: 0x7CEC, symBinAddr: 0x34278, symSize: 0x60 }
  - { offsetInCU: 0x8A99E, offset: 0x2AA2AD, size: 0x8, addend: 0x0, symName: __ZN4absl12lts_2022062318container_internal12raw_hash_setINS1_17FlatHashMapPolicyINSt3__112basic_stringIcNS4_11char_traitsIcEENS4_9allocatorIcEEEESA_EENS1_10StringHashENS1_8StringEqENS8_INS4_4pairIKSA_SA_EEEEE6resizeEm, symObjAddr: 0x75BC, symBinAddr: 0x33B48, symSize: 0x238 }
  - { offsetInCU: 0x8B2F1, offset: 0x2AAC00, size: 0x8, addend: 0x0, symName: __ZN4absl12lts_2022062313hash_internal15MixingHashState18combine_contiguousES2_PKhm, symObjAddr: 0x77F4, symBinAddr: 0x33D80, symSize: 0x104 }
  - { offsetInCU: 0x8B66C, offset: 0x2AAF7B, size: 0x8, addend: 0x0, symName: __ZNSt3__14pairINS_12basic_stringIcNS_11char_traitsIcEENS_9allocatorIcEEEES6_EC2B7v160006IKS6_S6_LPv0EEERKNS0_IT_T0_EE, symObjAddr: 0x7A10, symBinAddr: 0x33F9C, symSize: 0x50 }
  - { offsetInCU: 0x8B7D5, offset: 0x2AB0E4, size: 0x8, addend: 0x0, symName: __ZNK4absl12lts_2022062318container_internal12raw_hash_setINS1_17FlatHashMapPolicyINSt3__112basic_stringIcNS4_11char_traitsIcEENS4_9allocatorIcEEEESA_EENS1_10StringHashENS1_8StringEqENS8_INS4_4pairIKSA_SA_EEEEE4findISA_EENSI_14const_iteratorERKT_, symObjAddr: 0x7A60, symBinAddr: 0x33FEC, symSize: 0x84 }
  - { offsetInCU: 0x8BB4A, offset: 0x2AB459, size: 0x8, addend: 0x0, symName: __ZN4absl12lts_2022062318container_internal12raw_hash_setINS1_17FlatHashMapPolicyINSt3__112basic_stringIcNS4_11char_traitsIcEENS4_9allocatorIcEEEESA_EENS1_10StringHashENS1_8StringEqENS8_INS4_4pairIKSA_SA_EEEEE10emplace_atIJRKSG_EEEvmDpOT_.cold.1, symObjAddr: 0xA1E0, symBinAddr: 0x176D08, symSize: 0x24 }
  - { offsetInCU: 0x8BBA4, offset: 0x2AB4B3, size: 0x8, addend: 0x0, symName: __ZN4absl12lts_2022062318container_internal12raw_hash_setINS1_17FlatHashMapPolicyINSt3__112basic_stringIcNS4_11char_traitsIcEENS4_9allocatorIcEEEESA_EENS1_10StringHashENS1_8StringEqENS8_INS4_4pairIKSA_SA_EEEEE10emplace_atIJRKSG_EEEvmDpOT_.cold.4, symObjAddr: 0xA250, symBinAddr: 0x176D78, symSize: 0x28 }
  - { offsetInCU: 0x8BBE8, offset: 0x2AB4F7, size: 0x8, addend: 0x0, symName: __ZN4absl12lts_2022062318container_internal12raw_hash_setINS1_17FlatHashMapPolicyINSt3__112basic_stringIcNS4_11char_traitsIcEENS4_9allocatorIcEEEESA_EENS1_10StringHashENS1_8StringEqENS8_INS4_4pairIKSA_SA_EEEEE10emplace_atIJRKSG_EEEvmDpOT_.cold.2, symObjAddr: 0xA204, symBinAddr: 0x176D2C, symSize: 0x24 }
  - { offsetInCU: 0x8BC42, offset: 0x2AB551, size: 0x8, addend: 0x0, symName: __ZN4absl12lts_2022062318container_internal12raw_hash_setINS1_17FlatHashMapPolicyINSt3__112basic_stringIcNS4_11char_traitsIcEENS4_9allocatorIcEEEESA_EENS1_10StringHashENS1_8StringEqENS8_INS4_4pairIKSA_SA_EEEEE10emplace_atIJRKSG_EEEvmDpOT_.cold.3, symObjAddr: 0xA228, symBinAddr: 0x176D50, symSize: 0x28 }
  - { offsetInCU: 0x8BC6E, offset: 0x2AB57D, size: 0x8, addend: 0x0, symName: __ZN4absl12lts_2022062318container_internal12raw_hash_setINS1_17FlatHashMapPolicyINSt3__112basic_stringIcNS4_11char_traitsIcEENS4_9allocatorIcEEEESA_EENS1_10StringHashENS1_8StringEqENS8_INS4_4pairIKSA_SA_EEEEE16initialize_slotsEv, symObjAddr: 0x74A4, symBinAddr: 0x33A30, symSize: 0xA0 }
  - { offsetInCU: 0x8BDC6, offset: 0x2AB6D5, size: 0x8, addend: 0x0, symName: __ZN4absl12lts_2022062318container_internal8AllocateILm8ENSt3__19allocatorINS3_4pairIKNS3_12basic_stringIcNS3_11char_traitsIcEENS4_IcEEEESA_EEEEEEPvPT0_m, symObjAddr: 0x7544, symBinAddr: 0x33AD0, symSize: 0x30 }
  - { offsetInCU: 0x8BDD1, offset: 0x2AB6E0, size: 0x8, addend: 0x0, symName: __ZN4absl12lts_2022062318container_internal12raw_hash_setINS1_17FlatHashMapPolicyINSt3__112basic_stringIcNS4_11char_traitsIcEENS4_9allocatorIcEEEESA_EENS1_10StringHashENS1_8StringEqENS8_INS4_4pairIKSA_SA_EEEEE17reset_growth_leftEv, symObjAddr: 0x7574, symBinAddr: 0x33B00, symSize: 0x48 }
  - { offsetInCU: 0x8BE4A, offset: 0x2AB759, size: 0x8, addend: 0x0, symName: __ZN4absl12lts_2022062318container_internal12raw_hash_setINS1_17FlatHashMapPolicyINSt3__112basic_stringIcNS4_11char_traitsIcEENS4_9allocatorIcEEEESA_EENS1_10StringHashENS1_8StringEqENS8_INS4_4pairIKSA_SA_EEEEE6resizeEm, symObjAddr: 0x75BC, symBinAddr: 0x33B48, symSize: 0x238 }
  - { offsetInCU: 0x8BE55, offset: 0x2AB764, size: 0x8, addend: 0x0, symName: __ZN4absl12lts_2022062318container_internal12raw_hash_setINS1_17FlatHashMapPolicyINSt3__112basic_stringIcNS4_11char_traitsIcEENS4_9allocatorIcEEEESA_EENS1_10StringHashENS1_8StringEqENS8_INS4_4pairIKSA_SA_EEEEE16initialize_slotsEv.cold.1, symObjAddr: 0xA278, symBinAddr: 0x176DA0, symSize: 0x28 }
  - { offsetInCU: 0x8BE6D, offset: 0x2AB77C, size: 0x8, addend: 0x0, symName: __ZN4absl12lts_2022062318container_internal12raw_hash_setINS1_17FlatHashMapPolicyINSt3__112basic_stringIcNS4_11char_traitsIcEENS4_9allocatorIcEEEESA_EENS1_10StringHashENS1_8StringEqENS8_INS4_4pairIKSA_SA_EEEEE16initialize_slotsEv.cold.3, symObjAddr: 0xA2C4, symBinAddr: 0x176DEC, symSize: 0x24 }
  - { offsetInCU: 0x8BEB1, offset: 0x2AB7C0, size: 0x8, addend: 0x0, symName: __ZN4absl12lts_2022062318container_internal12raw_hash_setINS1_17FlatHashMapPolicyINSt3__112basic_stringIcNS4_11char_traitsIcEENS4_9allocatorIcEEEESA_EENS1_10StringHashENS1_8StringEqENS8_INS4_4pairIKSA_SA_EEEEE16initialize_slotsEv.cold.2, symObjAddr: 0xA2A0, symBinAddr: 0x176DC8, symSize: 0x24 }
  - { offsetInCU: 0x8BF1D, offset: 0x2AB82C, size: 0x8, addend: 0x0, symName: __ZN4absl12lts_2022062318container_internal8AllocateILm8ENSt3__19allocatorINS3_4pairIKNS3_12basic_stringIcNS3_11char_traitsIcEENS4_IcEEEESA_EEEEEEPvPT0_m.cold.1, symObjAddr: 0xA2E8, symBinAddr: 0x176E10, symSize: 0x28 }
  - { offsetInCU: 0x8BF35, offset: 0x2AB844, size: 0x8, addend: 0x0, symName: __ZN4absl12lts_2022062318container_internal8AllocateILm8ENSt3__19allocatorINS3_4pairIKNS3_12basic_stringIcNS3_11char_traitsIcEENS4_IcEEEESA_EEEEEEPvPT0_m.cold.2, symObjAddr: 0xA310, symBinAddr: 0x176E38, symSize: 0x28 }
  - { offsetInCU: 0x8BF61, offset: 0x2AB870, size: 0x8, addend: 0x0, symName: __ZN4absl12lts_2022062318container_internal12raw_hash_setINS1_17FlatHashMapPolicyINSt3__112basic_stringIcNS4_11char_traitsIcEENS4_9allocatorIcEEEESA_EENS1_10StringHashENS1_8StringEqENS8_INS4_4pairIKSA_SA_EEEEE17reset_growth_leftEv.cold.1, symObjAddr: 0xA338, symBinAddr: 0x176E60, symSize: 0x28 }
  - { offsetInCU: 0x8C22A, offset: 0x2ABB39, size: 0x8, addend: 0x0, symName: __ZN4absl12lts_2022062318container_internal12raw_hash_setINS1_17FlatHashMapPolicyINSt3__112basic_stringIcNS4_11char_traitsIcEENS4_9allocatorIcEEEESA_EENS1_10StringHashENS1_8StringEqENS8_INS4_4pairIKSA_SA_EEEEE6resizeEm.cold.1, symObjAddr: 0xA360, symBinAddr: 0x176E88, symSize: 0x28 }
  - { offsetInCU: 0x8C258, offset: 0x2ABB67, size: 0x8, addend: 0x0, symName: __ZN4absl12lts_2022062318container_internal12raw_hash_setINS1_17FlatHashMapPolicyINSt3__112basic_stringIcNS4_11char_traitsIcEENS4_9allocatorIcEEEESA_EENS1_10StringHashENS1_8StringEqENS8_INS4_4pairIKSA_SA_EEEEE6resizeEm.cold.4, symObjAddr: 0xA3D4, symBinAddr: 0x176EFC, symSize: 0x28 }
  - { offsetInCU: 0x8C2C8, offset: 0x2ABBD7, size: 0x8, addend: 0x0, symName: __ZN4absl12lts_2022062318container_internal12raw_hash_setINS1_17FlatHashMapPolicyINSt3__112basic_stringIcNS4_11char_traitsIcEENS4_9allocatorIcEEEESA_EENS1_10StringHashENS1_8StringEqENS8_INS4_4pairIKSA_SA_EEEEE6resizeEm.cold.3, symObjAddr: 0xA3AC, symBinAddr: 0x176ED4, symSize: 0x28 }
  - { offsetInCU: 0x8C30C, offset: 0x2ABC1B, size: 0x8, addend: 0x0, symName: __ZN4absl12lts_2022062318container_internal12raw_hash_setINS1_17FlatHashMapPolicyINSt3__112basic_stringIcNS4_11char_traitsIcEENS4_9allocatorIcEEEESA_EENS1_10StringHashENS1_8StringEqENS8_INS4_4pairIKSA_SA_EEEEE6resizeEm.cold.5, symObjAddr: 0xA3FC, symBinAddr: 0x176F24, symSize: 0x28 }
  - { offsetInCU: 0x8C324, offset: 0x2ABC33, size: 0x8, addend: 0x0, symName: __ZN4absl12lts_2022062318container_internal12raw_hash_setINS1_17FlatHashMapPolicyINSt3__112basic_stringIcNS4_11char_traitsIcEENS4_9allocatorIcEEEESA_EENS1_10StringHashENS1_8StringEqENS8_INS4_4pairIKSA_SA_EEEEE6resizeEm.cold.2, symObjAddr: 0xA388, symBinAddr: 0x176EB0, symSize: 0x24 }
  - { offsetInCU: 0x8C589, offset: 0x2ABE98, size: 0x8, addend: 0x0, symName: __ZN4absl12lts_2022062318container_internal12raw_hash_setINS1_17FlatHashMapPolicyINSt3__112basic_stringIcNS4_11char_traitsIcEENS4_9allocatorIcEEEESA_EENS1_10StringHashENS1_8StringEqENS8_INS4_4pairIKSA_SA_EEEEE5beginEv.cold.1, symObjAddr: 0xA424, symBinAddr: 0x176F4C, symSize: 0x24 }
  - { offsetInCU: 0x8C5E3, offset: 0x2ABEF2, size: 0x8, addend: 0x0, symName: __ZN4absl12lts_2022062318container_internal12raw_hash_setINS1_17FlatHashMapPolicyINSt3__112basic_stringIcNS4_11char_traitsIcEENS4_9allocatorIcEEEESA_EENS1_10StringHashENS1_8StringEqENS8_INS4_4pairIKSA_SA_EEEEE8iterator21skip_empty_or_deletedEv, symObjAddr: 0x7968, symBinAddr: 0x33EF4, symSize: 0x68 }
  - { offsetInCU: 0x8C6E8, offset: 0x2ABFF7, size: 0x8, addend: 0x0, symName: __ZN4absl12lts_2022062318container_internaleqERKNS1_12raw_hash_setINS1_17FlatHashMapPolicyINSt3__112basic_stringIcNS4_11char_traitsIcEENS4_9allocatorIcEEEESA_EENS1_10StringHashENS1_8StringEqENS8_INS4_4pairIKSA_SA_EEEEE8iteratorESL_.cold.2, symObjAddr: 0xA470, symBinAddr: 0x176F98, symSize: 0x28 }
  - { offsetInCU: 0x8C72C, offset: 0x2AC03B, size: 0x8, addend: 0x0, symName: __ZN4absl12lts_2022062318container_internaleqERKNS1_12raw_hash_setINS1_17FlatHashMapPolicyINSt3__112basic_stringIcNS4_11char_traitsIcEENS4_9allocatorIcEEEESA_EENS1_10StringHashENS1_8StringEqENS8_INS4_4pairIKSA_SA_EEEEE8iteratorESL_.cold.1, symObjAddr: 0xA448, symBinAddr: 0x176F70, symSize: 0x28 }
  - { offsetInCU: 0x8C881, offset: 0x2AC190, size: 0x8, addend: 0x0, symName: __ZN4absl12lts_2022062318container_internal12raw_hash_setINS1_17FlatHashMapPolicyINSt3__112basic_stringIcNS4_11char_traitsIcEENS4_9allocatorIcEEEESA_EENS1_10StringHashENS1_8StringEqENS8_INS4_4pairIKSA_SA_EEEEE4findISA_EENSI_8iteratorERKT_m, symObjAddr: 0x7AE4, symBinAddr: 0x34070, symSize: 0x150 }
  - { offsetInCU: 0x8CC39, offset: 0x2AC548, size: 0x8, addend: 0x0, symName: __ZNK4absl12lts_2022062318container_internal12raw_hash_setINS1_17FlatHashMapPolicyINSt3__112basic_stringIcNS4_11char_traitsIcEENS4_9allocatorIcEEEESA_EENS1_10StringHashENS1_8StringEqENS8_INS4_4pairIKSA_SA_EEEEE12EqualElementISA_EclISA_JRKNS4_21piecewise_construct_tENS4_5tupleIJRSF_EEESR_EEEbRKT_DpOT0_, symObjAddr: 0x7C34, symBinAddr: 0x341C0, symSize: 0x70 }
  - { offsetInCU: 0x8CDBA, offset: 0x2AC6C9, size: 0x8, addend: 0x0, symName: __ZNK4absl12lts_2022062318container_internal12raw_hash_setINS1_17FlatHashMapPolicyINSt3__112basic_stringIcNS4_11char_traitsIcEENS4_9allocatorIcEEEESA_EENS1_10StringHashENS1_8StringEqENS8_INS4_4pairIKSA_SA_EEEEE12EqualElementISA_EclISA_JRKNS4_21piecewise_construct_tENS4_5tupleIJRSF_EEESR_EEEbRKT_DpOT0_, symObjAddr: 0x7C34, symBinAddr: 0x341C0, symSize: 0x70 }
  - { offsetInCU: 0x8CF57, offset: 0x2AC866, size: 0x8, addend: 0x0, symName: __ZN4absl12lts_2022062318container_internal12raw_hash_setINS1_17FlatHashMapPolicyINSt3__112basic_stringIcNS4_11char_traitsIcEENS4_9allocatorIcEEEESA_EENS1_10StringHashENS1_8StringEqENS8_INS4_4pairIKSA_SA_EEEEE4findISA_EENSI_8iteratorERKT_m.cold.1, symObjAddr: 0xA498, symBinAddr: 0x176FC0, symSize: 0x28 }
  - { offsetInCU: 0x8CF6F, offset: 0x2AC87E, size: 0x8, addend: 0x0, symName: __ZN4absl12lts_2022062318container_internal12raw_hash_setINS1_17FlatHashMapPolicyINSt3__112basic_stringIcNS4_11char_traitsIcEENS4_9allocatorIcEEEESA_EENS1_10StringHashENS1_8StringEqENS8_INS4_4pairIKSA_SA_EEEEE4findISA_EENSI_8iteratorERKT_m.cold.3, symObjAddr: 0xA4E4, symBinAddr: 0x17700C, symSize: 0x28 }
  - { offsetInCU: 0x8CFC9, offset: 0x2AC8D8, size: 0x8, addend: 0x0, symName: __ZN4absl12lts_2022062318container_internal12raw_hash_setINS1_17FlatHashMapPolicyINSt3__112basic_stringIcNS4_11char_traitsIcEENS4_9allocatorIcEEEESA_EENS1_10StringHashENS1_8StringEqENS8_INS4_4pairIKSA_SA_EEEEE4findISA_EENSI_8iteratorERKT_m.cold.2, symObjAddr: 0xA4C0, symBinAddr: 0x176FE8, symSize: 0x24 }
  - { offsetInCU: 0x8D07A, offset: 0x2AC989, size: 0x8, addend: 0x0, symName: __ZN4absl12lts_2022062318container_internal12raw_hash_setINS1_17FlatHashMapPolicyINSt3__112basic_stringIcNS4_11char_traitsIcEENS4_9allocatorIcEEEESA_EENS1_10StringHashENS1_8StringEqENS8_INS4_4pairIKSA_SA_EEEEE8iteratorppEv.cold.1, symObjAddr: 0xA50C, symBinAddr: 0x177034, symSize: 0x28 }
  - { offsetInCU: 0x8D0F3, offset: 0x2ACA02, size: 0x8, addend: 0x0, symName: __ZNSt3__110shared_ptrIN8firebase9firestore6remote9DatastoreEED2B7v160006Ev, symObjAddr: 0x7DC0, symBinAddr: 0x3434C, symSize: 0x58 }
  - { offsetInCU: 0x8D37B, offset: 0x2ACC8A, size: 0x8, addend: 0x0, symName: __ZNSt3__120__shared_ptr_emplaceIN8firebase9firestore6remote9Datastore15CallCredentialsENS_9allocatorIS5_EEEC2B7v160006IJEEES7_DpOT_, symObjAddr: 0x7E60, symBinAddr: 0x343EC, symSize: 0xA0 }
  - { offsetInCU: 0x8D66C, offset: 0x2ACF7B, size: 0x8, addend: 0x0, symName: __ZN8firebase9firestore4util8StatusOrINS0_11credentials9AuthTokenEEC2Ev, symObjAddr: 0x7F74, symBinAddr: 0x34500, symSize: 0xA0 }
  - { offsetInCU: 0x8DA62, offset: 0x2AD371, size: 0x8, addend: 0x0, symName: __ZNSt3__120__shared_ptr_emplaceIN8firebase9firestore6remote9Datastore15CallCredentialsENS_9allocatorIS5_EEED1Ev, symObjAddr: 0x7F00, symBinAddr: 0x3448C, symSize: 0x14 }
  - { offsetInCU: 0x8DA84, offset: 0x2AD393, size: 0x8, addend: 0x0, symName: __ZNSt3__120__shared_ptr_emplaceIN8firebase9firestore6remote9Datastore15CallCredentialsENS_9allocatorIS5_EEED1Ev, symObjAddr: 0x7F00, symBinAddr: 0x3448C, symSize: 0x14 }
  - { offsetInCU: 0x8DABB, offset: 0x2AD3CA, size: 0x8, addend: 0x0, symName: __ZNSt3__120__shared_ptr_emplaceIN8firebase9firestore6remote9Datastore15CallCredentialsENS_9allocatorIS5_EEED0Ev, symObjAddr: 0x7F14, symBinAddr: 0x344A0, symSize: 0x24 }
  - { offsetInCU: 0x8DB8C, offset: 0x2AD49B, size: 0x8, addend: 0x0, symName: __ZNSt3__120__shared_ptr_emplaceIN8firebase9firestore6remote9Datastore15CallCredentialsENS_9allocatorIS5_EEE16__on_zero_sharedEv, symObjAddr: 0x7F38, symBinAddr: 0x344C4, symSize: 0x38 }
  - { offsetInCU: 0x8DD69, offset: 0x2AD678, size: 0x8, addend: 0x0, symName: __ZN8firebase9firestore4util17internal_statusor12StatusOrDataINS0_11credentials9AuthTokenEED2Ev, symObjAddr: 0x8074, symBinAddr: 0x34600, symSize: 0x50 }
  - { offsetInCU: 0x8E0F5, offset: 0x2ADA04, size: 0x8, addend: 0x0, symName: __ZNSt3__120__shared_ptr_emplaceIN8firebase9firestore6remote9Datastore15CallCredentialsENS_9allocatorIS5_EEE21__on_zero_shared_weakEv, symObjAddr: 0x7F70, symBinAddr: 0x344FC, symSize: 0x4 }
  - { offsetInCU: 0x8E127, offset: 0x2ADA36, size: 0x8, addend: 0x0, symName: __ZNSt3__120__shared_ptr_emplaceIN8firebase9firestore6remote9Datastore15CallCredentialsENS_9allocatorIS5_EEE21__on_zero_shared_weakEv, symObjAddr: 0x7F70, symBinAddr: 0x344FC, symSize: 0x4 }
  - { offsetInCU: 0x8E14A, offset: 0x2ADA59, size: 0x8, addend: 0x0, symName: __ZNSt3__120__shared_ptr_emplaceIN8firebase9firestore6remote9Datastore15CallCredentialsENS_9allocatorIS5_EEE21__on_zero_shared_weakEv, symObjAddr: 0x7F70, symBinAddr: 0x344FC, symSize: 0x4 }
  - { offsetInCU: 0x8E16D, offset: 0x2ADA7C, size: 0x8, addend: 0x0, symName: __ZNSt3__120__shared_ptr_emplaceIN8firebase9firestore6remote9Datastore15CallCredentialsENS_9allocatorIS5_EEE21__on_zero_shared_weakEv, symObjAddr: 0x7F70, symBinAddr: 0x344FC, symSize: 0x4 }
  - { offsetInCU: 0x8E19B, offset: 0x2ADAAA, size: 0x8, addend: 0x0, symName: __ZNSt3__120__shared_ptr_emplaceIN8firebase9firestore6remote9Datastore15CallCredentialsENS_9allocatorIS5_EEE21__on_zero_shared_weakEv, symObjAddr: 0x7F70, symBinAddr: 0x344FC, symSize: 0x4 }
  - { offsetInCU: 0x8E1C5, offset: 0x2ADAD4, size: 0x8, addend: 0x0, symName: __ZNSt3__120__shared_ptr_emplaceIN8firebase9firestore6remote9Datastore15CallCredentialsENS_9allocatorIS5_EEE21__on_zero_shared_weakEv, symObjAddr: 0x7F70, symBinAddr: 0x344FC, symSize: 0x4 }
  - { offsetInCU: 0x8E1F2, offset: 0x2ADB01, size: 0x8, addend: 0x0, symName: __ZN8firebase9firestore4util17internal_statusor12StatusOrDataINS0_11credentials9AuthTokenEEC2EONS1_6StatusE, symObjAddr: 0x8014, symBinAddr: 0x345A0, symSize: 0x60 }
  - { offsetInCU: 0x8E70C, offset: 0x2AE01B, size: 0x8, addend: 0x0, symName: '__ZNSt3__110__function6__funcIZN8firebase9firestore6remote9Datastore24ResumeRpcWithCredentialsERKNS_8functionIFvRKNS3_4util8StatusOrINS3_11credentials9AuthTokenEEERKNS_12basic_stringIcNS_11char_traitsIcEENS_9allocatorIcEEEEEEEE4$_10NSH_ISQ_EEFvSB_EED1Ev', symObjAddr: 0x8180, symBinAddr: 0x3470C, symSize: 0x70 }
  - { offsetInCU: 0x8E970, offset: 0x2AE27F, size: 0x8, addend: 0x0, symName: '__ZNSt3__110__function6__funcIZN8firebase9firestore6remote9Datastore24ResumeRpcWithCredentialsERKNS_8functionIFvRKNS3_4util8StatusOrINS3_11credentials9AuthTokenEEERKNS_12basic_stringIcNS_11char_traitsIcEENS_9allocatorIcEEEEEEEE4$_10NSH_ISQ_EEFvSB_EED0Ev', symObjAddr: 0x81F0, symBinAddr: 0x3477C, symSize: 0x70 }
  - { offsetInCU: 0x8EDCB, offset: 0x2AE6DA, size: 0x8, addend: 0x0, symName: '__ZNKSt3__110__function6__funcIZN8firebase9firestore6remote9Datastore24ResumeRpcWithCredentialsERKNS_8functionIFvRKNS3_4util8StatusOrINS3_11credentials9AuthTokenEEERKNS_12basic_stringIcNS_11char_traitsIcEENS_9allocatorIcEEEEEEEE4$_10NSH_ISQ_EEFvSB_EE7__cloneEv', symObjAddr: 0x8260, symBinAddr: 0x347EC, symSize: 0x54 }
  - { offsetInCU: 0x8F06C, offset: 0x2AE97B, size: 0x8, addend: 0x0, symName: '__ZNSt3__122__compressed_pair_elemIZN8firebase9firestore6remote9Datastore24ResumeRpcWithCredentialsERKNS_8functionIFvRKNS2_4util8StatusOrINS2_11credentials9AuthTokenEEERKNS_12basic_stringIcNS_11char_traitsIcEENS_9allocatorIcEEEEEEEE4$_10Li0ELb0EEC2B7v160006IJRKSP_EJLm0EEEENS_21piecewise_construct_tENS_5tupleIJDpT_EEENS_15__tuple_indicesIJXspT0_EEEE', symObjAddr: 0x83FC, symBinAddr: 0x34988, symSize: 0x98 }
  - { offsetInCU: 0x8F4C0, offset: 0x2AEDCF, size: 0x8, addend: 0x0, symName: '__ZNKSt3__110__function6__funcIZN8firebase9firestore6remote9Datastore24ResumeRpcWithCredentialsERKNS_8functionIFvRKNS3_4util8StatusOrINS3_11credentials9AuthTokenEEERKNS_12basic_stringIcNS_11char_traitsIcEENS_9allocatorIcEEEEEEEE4$_10NSH_ISQ_EEFvSB_EE7__cloneEPNS0_6__baseISS_EE', symObjAddr: 0x82B4, symBinAddr: 0x34840, symSize: 0x1C }
  - { offsetInCU: 0x8F608, offset: 0x2AEF17, size: 0x8, addend: 0x0, symName: '__ZNSt3__110__function6__funcIZN8firebase9firestore6remote9Datastore24ResumeRpcWithCredentialsERKNS_8functionIFvRKNS3_4util8StatusOrINS3_11credentials9AuthTokenEEERKNS_12basic_stringIcNS_11char_traitsIcEENS_9allocatorIcEEEEEEEE4$_10NSH_ISQ_EEFvSB_EE7destroyEv', symObjAddr: 0x82D0, symBinAddr: 0x3485C, symSize: 0x8 }
  - { offsetInCU: 0x8F63D, offset: 0x2AEF4C, size: 0x8, addend: 0x0, symName: '__ZNSt3__110__function12__alloc_funcIZN8firebase9firestore6remote9Datastore24ResumeRpcWithCredentialsERKNS_8functionIFvRKNS3_4util8StatusOrINS3_11credentials9AuthTokenEEERKNS_12basic_stringIcNS_11char_traitsIcEENS_9allocatorIcEEEEEEEE4$_10NSH_ISQ_EEFvSB_EE7destroyB7v160006Ev', symObjAddr: 0x8494, symBinAddr: 0x34A20, symSize: 0x68 }
  - { offsetInCU: 0x8F82E, offset: 0x2AF13D, size: 0x8, addend: 0x0, symName: '__ZNSt3__110__function6__funcIZN8firebase9firestore6remote9Datastore24ResumeRpcWithCredentialsERKNS_8functionIFvRKNS3_4util8StatusOrINS3_11credentials9AuthTokenEEERKNS_12basic_stringIcNS_11char_traitsIcEENS_9allocatorIcEEEEEEEE4$_10NSH_ISQ_EEFvSB_EE18destroy_deallocateEv', symObjAddr: 0x82D8, symBinAddr: 0x34864, symSize: 0x28 }
  - { offsetInCU: 0x8FCAA, offset: 0x2AF5B9, size: 0x8, addend: 0x0, symName: '__ZNSt3__110__function6__funcIZN8firebase9firestore6remote9Datastore24ResumeRpcWithCredentialsERKNS_8functionIFvRKNS3_4util8StatusOrINS3_11credentials9AuthTokenEEERKNS_12basic_stringIcNS_11char_traitsIcEENS_9allocatorIcEEEEEEEE4$_10NSH_ISQ_EEFvSB_EEclEOSB_', symObjAddr: 0x8300, symBinAddr: 0x3488C, symSize: 0xB4 }
  - { offsetInCU: 0x904B9, offset: 0x2AFDC8, size: 0x8, addend: 0x0, symName: __ZN8firebase9firestore4util17internal_statusor12StatusOrDataINS0_11credentials9AuthTokenEEC2ERKS6_, symObjAddr: 0x8B00, symBinAddr: 0x3508C, symSize: 0x44 }
  - { offsetInCU: 0x90721, offset: 0x2B0030, size: 0x8, addend: 0x0, symName: '__ZNKSt3__110__function6__funcIZN8firebase9firestore6remote9Datastore24ResumeRpcWithCredentialsERKNS_8functionIFvRKNS3_4util8StatusOrINS3_11credentials9AuthTokenEEERKNS_12basic_stringIcNS_11char_traitsIcEENS_9allocatorIcEEEEEEEE4$_10NSH_ISQ_EEFvSB_EE6targetERKSt9type_info', symObjAddr: 0x83B4, symBinAddr: 0x34940, symSize: 0x3C }
  - { offsetInCU: 0x9076E, offset: 0x2B007D, size: 0x8, addend: 0x0, symName: '__ZNKSt3__110__function6__funcIZN8firebase9firestore6remote9Datastore24ResumeRpcWithCredentialsERKNS_8functionIFvRKNS3_4util8StatusOrINS3_11credentials9AuthTokenEEERKNS_12basic_stringIcNS_11char_traitsIcEENS_9allocatorIcEEEEEEEE4$_10NSH_ISQ_EEFvSB_EE11target_typeEv', symObjAddr: 0x83F0, symBinAddr: 0x3497C, symSize: 0xC }
  - { offsetInCU: 0x90E77, offset: 0x2B0786, size: 0x8, addend: 0x0, symName: __ZN8firebase9firestore4util17internal_statusor12StatusOrDataINS0_11credentials9AuthTokenEEaSERKS6_, symObjAddr: 0x890C, symBinAddr: 0x34E98, symSize: 0x48 }
  - { offsetInCU: 0x90F4B, offset: 0x2B085A, size: 0x8, addend: 0x0, symName: '__ZZZN8firebase9firestore6remote9Datastore24ResumeRpcWithCredentialsERKNSt3__18functionIFvRKNS0_4util8StatusOrINS0_11credentials9AuthTokenEEERKNS3_12basic_stringIcNS3_11char_traitsIcEENS3_9allocatorIcEEEEEEEENK3$_9clERKN4absl12lts_202206238optionalIS9_EERKNSR_ISH_EEENUlvE_D1Ev', symObjAddr: 0x8898, symBinAddr: 0x34E24, symSize: 0x74 }
  - { offsetInCU: 0x911C8, offset: 0x2B0AD7, size: 0x8, addend: 0x0, symName: __ZN8firebase9firestore4util17internal_statusor12StatusOrDataINS0_11credentials9AuthTokenEE6AssignERKNS1_6StatusE, symObjAddr: 0x8A0C, symBinAddr: 0x34F98, symSize: 0x54 }
  - { offsetInCU: 0x9131F, offset: 0x2B0C2E, size: 0x8, addend: 0x0, symName: __ZN8firebase9firestore4util17internal_statusor12StatusOrDataINS0_11credentials9AuthTokenEE6AssignERKS5_, symObjAddr: 0x8954, symBinAddr: 0x34EE0, symSize: 0xB8 }
  - { offsetInCU: 0x919A5, offset: 0x2B12B4, size: 0x8, addend: 0x0, symName: __ZN8firebase9firestore4util17internal_statusor12StatusOrDataINS0_11credentials9AuthTokenEE5ClearEv, symObjAddr: 0x8AB4, symBinAddr: 0x35040, symSize: 0x4C }
  - { offsetInCU: 0x91E4E, offset: 0x2B175D, size: 0x8, addend: 0x0, symName: '__ZNSt3__110__function6__funcIZZN8firebase9firestore6remote9Datastore24ResumeRpcWithCredentialsERKNS_8functionIFvRKNS3_4util8StatusOrINS3_11credentials9AuthTokenEEERKNS_12basic_stringIcNS_11char_traitsIcEENS_9allocatorIcEEEEEEEENK3$_9clERKN4absl12lts_202206238optionalISB_EERKNST_ISJ_EEEUlvE_NSH_IS10_EEFvvEED1Ev', symObjAddr: 0x8B44, symBinAddr: 0x350D0, symSize: 0x80 }
  - { offsetInCU: 0x921C1, offset: 0x2B1AD0, size: 0x8, addend: 0x0, symName: '__ZNSt3__110__function6__funcIZZN8firebase9firestore6remote9Datastore24ResumeRpcWithCredentialsERKNS_8functionIFvRKNS3_4util8StatusOrINS3_11credentials9AuthTokenEEERKNS_12basic_stringIcNS_11char_traitsIcEENS_9allocatorIcEEEEEEEENK3$_9clERKN4absl12lts_202206238optionalISB_EERKNST_ISJ_EEEUlvE_NSH_IS10_EEFvvEED0Ev', symObjAddr: 0x8BC4, symBinAddr: 0x35150, symSize: 0x80 }
  - { offsetInCU: 0x9272B, offset: 0x2B203A, size: 0x8, addend: 0x0, symName: '__ZNKSt3__110__function6__funcIZZN8firebase9firestore6remote9Datastore24ResumeRpcWithCredentialsERKNS_8functionIFvRKNS3_4util8StatusOrINS3_11credentials9AuthTokenEEERKNS_12basic_stringIcNS_11char_traitsIcEENS_9allocatorIcEEEEEEEENK3$_9clERKN4absl12lts_202206238optionalISB_EERKNST_ISJ_EEEUlvE_NSH_IS10_EEFvvEE7__cloneEv', symObjAddr: 0x8C44, symBinAddr: 0x351D0, symSize: 0x54 }
  - { offsetInCU: 0x929CE, offset: 0x2B22DD, size: 0x8, addend: 0x0, symName: '__ZNSt3__122__compressed_pair_elemIZZN8firebase9firestore6remote9Datastore24ResumeRpcWithCredentialsERKNS_8functionIFvRKNS2_4util8StatusOrINS2_11credentials9AuthTokenEEERKNS_12basic_stringIcNS_11char_traitsIcEENS_9allocatorIcEEEEEEEENK3$_9clERKN4absl12lts_202206238optionalISA_EERKNSS_ISI_EEEUlvE_Li0ELb0EEC2B7v160006IJRKSZ_EJLm0EEEENS_21piecewise_construct_tENS_5tupleIJDpT_EEENS_15__tuple_indicesIJXspT0_EEEE', symObjAddr: 0x8DF4, symBinAddr: 0x35380, symSize: 0xB8 }
  - { offsetInCU: 0x92ED7, offset: 0x2B27E6, size: 0x8, addend: 0x0, symName: '__ZNKSt3__110__function6__funcIZZN8firebase9firestore6remote9Datastore24ResumeRpcWithCredentialsERKNS_8functionIFvRKNS3_4util8StatusOrINS3_11credentials9AuthTokenEEERKNS_12basic_stringIcNS_11char_traitsIcEENS_9allocatorIcEEEEEEEENK3$_9clERKN4absl12lts_202206238optionalISB_EERKNST_ISJ_EEEUlvE_NSH_IS10_EEFvvEE7__cloneEPNS0_6__baseIS12_EE', symObjAddr: 0x8C98, symBinAddr: 0x35224, symSize: 0x1C }
  - { offsetInCU: 0x9301F, offset: 0x2B292E, size: 0x8, addend: 0x0, symName: '__ZNSt3__110__function6__funcIZZN8firebase9firestore6remote9Datastore24ResumeRpcWithCredentialsERKNS_8functionIFvRKNS3_4util8StatusOrINS3_11credentials9AuthTokenEEERKNS_12basic_stringIcNS_11char_traitsIcEENS_9allocatorIcEEEEEEEENK3$_9clERKN4absl12lts_202206238optionalISB_EERKNST_ISJ_EEEUlvE_NSH_IS10_EEFvvEE7destroyEv', symObjAddr: 0x8CB4, symBinAddr: 0x35240, symSize: 0x8 }
  - { offsetInCU: 0x93054, offset: 0x2B2963, size: 0x8, addend: 0x0, symName: '__ZNSt3__110__function12__alloc_funcIZZN8firebase9firestore6remote9Datastore24ResumeRpcWithCredentialsERKNS_8functionIFvRKNS3_4util8StatusOrINS3_11credentials9AuthTokenEEERKNS_12basic_stringIcNS_11char_traitsIcEENS_9allocatorIcEEEEEEEENK3$_9clERKN4absl12lts_202206238optionalISB_EERKNST_ISJ_EEEUlvE_NSH_IS10_EEFvvEE7destroyB7v160006Ev', symObjAddr: 0x8EAC, symBinAddr: 0x35438, symSize: 0x78 }
  - { offsetInCU: 0x93352, offset: 0x2B2C61, size: 0x8, addend: 0x0, symName: '__ZNSt3__110__function6__funcIZZN8firebase9firestore6remote9Datastore24ResumeRpcWithCredentialsERKNS_8functionIFvRKNS3_4util8StatusOrINS3_11credentials9AuthTokenEEERKNS_12basic_stringIcNS_11char_traitsIcEENS_9allocatorIcEEEEEEEENK3$_9clERKN4absl12lts_202206238optionalISB_EERKNST_ISJ_EEEUlvE_NSH_IS10_EEFvvEE18destroy_deallocateEv', symObjAddr: 0x8CBC, symBinAddr: 0x35248, symSize: 0x28 }
  - { offsetInCU: 0x93508, offset: 0x2B2E17, size: 0x8, addend: 0x0, symName: '__ZNSt3__110__function6__funcIZZN8firebase9firestore6remote9Datastore24ResumeRpcWithCredentialsERKNS_8functionIFvRKNS3_4util8StatusOrINS3_11credentials9AuthTokenEEERKNS_12basic_stringIcNS_11char_traitsIcEENS_9allocatorIcEEEEEEEENK3$_9clERKN4absl12lts_202206238optionalISB_EERKNST_ISJ_EEEUlvE_NSH_IS10_EEFvvEEclEv', symObjAddr: 0x8CE4, symBinAddr: 0x35270, symSize: 0xC8 }
  - { offsetInCU: 0x9373E, offset: 0x2B304D, size: 0x8, addend: 0x0, symName: '__ZNSt3__110__function6__funcIZZN8firebase9firestore6remote9Datastore24ResumeRpcWithCredentialsERKNS_8functionIFvRKNS3_4util8StatusOrINS3_11credentials9AuthTokenEEERKNS_12basic_stringIcNS_11char_traitsIcEENS_9allocatorIcEEEEEEEENK3$_9clERKN4absl12lts_202206238optionalISB_EERKNST_ISJ_EEEUlvE_NSH_IS10_EEFvvEEclEv.cold.1', symObjAddr: 0xA534, symBinAddr: 0x17705C, symSize: 0x2C }
  - { offsetInCU: 0x93808, offset: 0x2B3117, size: 0x8, addend: 0x0, symName: '__ZNKSt3__110__function6__funcIZZN8firebase9firestore6remote9Datastore24ResumeRpcWithCredentialsERKNS_8functionIFvRKNS3_4util8StatusOrINS3_11credentials9AuthTokenEEERKNS_12basic_stringIcNS_11char_traitsIcEENS_9allocatorIcEEEEEEEENK3$_9clERKN4absl12lts_202206238optionalISB_EERKNST_ISJ_EEEUlvE_NSH_IS10_EEFvvEE6targetERKSt9type_info', symObjAddr: 0x8DAC, symBinAddr: 0x35338, symSize: 0x3C }
  - { offsetInCU: 0x93855, offset: 0x2B3164, size: 0x8, addend: 0x0, symName: '__ZNKSt3__110__function6__funcIZZN8firebase9firestore6remote9Datastore24ResumeRpcWithCredentialsERKNS_8functionIFvRKNS3_4util8StatusOrINS3_11credentials9AuthTokenEEERKNS_12basic_stringIcNS_11char_traitsIcEENS_9allocatorIcEEEEEEEENK3$_9clERKN4absl12lts_202206238optionalISB_EERKNST_ISJ_EEEUlvE_NSH_IS10_EEFvvEE11target_typeEv', symObjAddr: 0x8DE8, symBinAddr: 0x35374, symSize: 0xC }
  - { offsetInCU: 0x9395E, offset: 0x2B326D, size: 0x8, addend: 0x0, symName: '__ZNSt3__110__function6__funcIZN8firebase9firestore6remote9Datastore24ResumeRpcWithCredentialsERKNS_8functionIFvRKNS3_4util8StatusOrINS3_11credentials9AuthTokenEEERKNS_12basic_stringIcNS_11char_traitsIcEENS_9allocatorIcEEEEEEEE4$_11NSH_ISQ_EEFvNS8_ISJ_EEEED1Ev', symObjAddr: 0x8F24, symBinAddr: 0x354B0, symSize: 0x70 }
  - { offsetInCU: 0x93BC2, offset: 0x2B34D1, size: 0x8, addend: 0x0, symName: '__ZNSt3__110__function6__funcIZN8firebase9firestore6remote9Datastore24ResumeRpcWithCredentialsERKNS_8functionIFvRKNS3_4util8StatusOrINS3_11credentials9AuthTokenEEERKNS_12basic_stringIcNS_11char_traitsIcEENS_9allocatorIcEEEEEEEE4$_11NSH_ISQ_EEFvNS8_ISJ_EEEED0Ev', symObjAddr: 0x8F94, symBinAddr: 0x35520, symSize: 0x70 }
  - { offsetInCU: 0x9401D, offset: 0x2B392C, size: 0x8, addend: 0x0, symName: '__ZNKSt3__110__function6__funcIZN8firebase9firestore6remote9Datastore24ResumeRpcWithCredentialsERKNS_8functionIFvRKNS3_4util8StatusOrINS3_11credentials9AuthTokenEEERKNS_12basic_stringIcNS_11char_traitsIcEENS_9allocatorIcEEEEEEEE4$_11NSH_ISQ_EEFvNS8_ISJ_EEEE7__cloneEv', symObjAddr: 0x9004, symBinAddr: 0x35590, symSize: 0x54 }
